
MyHomeSysytem.elf:     file format elf32-avr

Sections:
Idx Name          Size      VMA       LMA       File off  Algn
  0 .text         00007b8c  00000000  00000000  00000094  2**1
                  CONTENTS, ALLOC, LOAD, READONLY, CODE
  1 .data         000002f2  00800060  00007b8c  00007c20  2**0
                  CONTENTS, ALLOC, LOAD, DATA
  2 .bss          0000005a  00800352  00800352  00007f12  2**0
                  ALLOC
  3 .stab         00008034  00000000  00000000  00007f14  2**2
                  CONTENTS, READONLY, DEBUGGING
  4 .stabstr      00002a16  00000000  00000000  0000ff48  2**0
                  CONTENTS, READONLY, DEBUGGING
  5 .debug_aranges 000001a0  00000000  00000000  0001295e  2**0
                  CONTENTS, READONLY, DEBUGGING
  6 .debug_pubnames 000001f2  00000000  00000000  00012afe  2**0
                  CONTENTS, READONLY, DEBUGGING
  7 .debug_info   0000240b  00000000  00000000  00012cf0  2**0
                  CONTENTS, READONLY, DEBUGGING
  8 .debug_abbrev 00001386  00000000  00000000  000150fb  2**0
                  CONTENTS, READONLY, DEBUGGING
  9 .debug_line   000011d6  00000000  00000000  00016481  2**0
                  CONTENTS, READONLY, DEBUGGING
 10 .debug_frame  000001c0  00000000  00000000  00017658  2**2
                  CONTENTS, READONLY, DEBUGGING
 11 .debug_str    000002f6  00000000  00000000  00017818  2**0
                  CONTENTS, READONLY, DEBUGGING
 12 .debug_loc    0000096e  00000000  00000000  00017b0e  2**0
                  CONTENTS, READONLY, DEBUGGING
 13 .debug_ranges 00000050  00000000  00000000  0001847c  2**0
                  CONTENTS, READONLY, DEBUGGING

Disassembly of section .text:

00000000 <__vectors>:
       0:	0c 94 2a 00 	jmp	0x54	; 0x54 <__ctors_end>
       4:	0c 94 77 17 	jmp	0x2eee	; 0x2eee <__vector_1>
       8:	0c 94 c7 17 	jmp	0x2f8e	; 0x2f8e <__vector_2>
       c:	0c 94 17 18 	jmp	0x302e	; 0x302e <__vector_3>
      10:	0c 94 a2 2a 	jmp	0x5544	; 0x5544 <__vector_4>
      14:	0c 94 d5 2a 	jmp	0x55aa	; 0x55aa <__vector_5>
      18:	0c 94 08 2b 	jmp	0x5610	; 0x5610 <__vector_6>
      1c:	0c 94 3b 2b 	jmp	0x5676	; 0x5676 <__vector_7>
      20:	0c 94 6e 2b 	jmp	0x56dc	; 0x56dc <__vector_8>
      24:	0c 94 a1 2b 	jmp	0x5742	; 0x5742 <__vector_9>
      28:	0c 94 d4 2b 	jmp	0x57a8	; 0x57a8 <__vector_10>
      2c:	0c 94 07 2c 	jmp	0x580e	; 0x580e <__vector_11>
      30:	0c 94 47 00 	jmp	0x8e	; 0x8e <__bad_interrupt>
      34:	0c 94 21 33 	jmp	0x6642	; 0x6642 <__vector_13>
      38:	0c 94 9c 33 	jmp	0x6738	; 0x6738 <__vector_14>
      3c:	0c 94 0e 34 	jmp	0x681c	; 0x681c <__vector_15>
      40:	0c 94 d1 08 	jmp	0x11a2	; 0x11a2 <__vector_16>
      44:	0c 94 47 00 	jmp	0x8e	; 0x8e <__bad_interrupt>
      48:	0c 94 47 00 	jmp	0x8e	; 0x8e <__bad_interrupt>
      4c:	0c 94 47 00 	jmp	0x8e	; 0x8e <__bad_interrupt>
      50:	0c 94 47 00 	jmp	0x8e	; 0x8e <__bad_interrupt>

00000054 <__ctors_end>:
      54:	11 24       	eor	r1, r1
      56:	1f be       	out	0x3f, r1	; 63
      58:	cf e5       	ldi	r28, 0x5F	; 95
      5a:	d8 e0       	ldi	r29, 0x08	; 8
      5c:	de bf       	out	0x3e, r29	; 62
      5e:	cd bf       	out	0x3d, r28	; 61

00000060 <__do_copy_data>:
      60:	13 e0       	ldi	r17, 0x03	; 3
      62:	a0 e6       	ldi	r26, 0x60	; 96
      64:	b0 e0       	ldi	r27, 0x00	; 0
      66:	ec e8       	ldi	r30, 0x8C	; 140
      68:	fb e7       	ldi	r31, 0x7B	; 123
      6a:	02 c0       	rjmp	.+4      	; 0x70 <.do_copy_data_start>

0000006c <.do_copy_data_loop>:
      6c:	05 90       	lpm	r0, Z+
      6e:	0d 92       	st	X+, r0

00000070 <.do_copy_data_start>:
      70:	a2 35       	cpi	r26, 0x52	; 82
      72:	b1 07       	cpc	r27, r17
      74:	d9 f7       	brne	.-10     	; 0x6c <.do_copy_data_loop>

00000076 <__do_clear_bss>:
      76:	13 e0       	ldi	r17, 0x03	; 3
      78:	a2 e5       	ldi	r26, 0x52	; 82
      7a:	b3 e0       	ldi	r27, 0x03	; 3
      7c:	01 c0       	rjmp	.+2      	; 0x80 <.do_clear_bss_start>

0000007e <.do_clear_bss_loop>:
      7e:	1d 92       	st	X+, r1

00000080 <.do_clear_bss_start>:
      80:	ac 3a       	cpi	r26, 0xAC	; 172
      82:	b1 07       	cpc	r27, r17
      84:	e1 f7       	brne	.-8      	; 0x7e <.do_clear_bss_loop>
      86:	0e 94 49 34 	call	0x6892	; 0x6892 <main>
      8a:	0c 94 c4 3d 	jmp	0x7b88	; 0x7b88 <_exit>

0000008e <__bad_interrupt>:
      8e:	0c 94 00 00 	jmp	0	; 0x0 <__vectors>

00000092 <__fixunssfsi>:
      92:	ef 92       	push	r14
      94:	ff 92       	push	r15
      96:	0f 93       	push	r16
      98:	1f 93       	push	r17
      9a:	7b 01       	movw	r14, r22
      9c:	8c 01       	movw	r16, r24
      9e:	20 e0       	ldi	r18, 0x00	; 0
      a0:	30 e0       	ldi	r19, 0x00	; 0
      a2:	40 e0       	ldi	r20, 0x00	; 0
      a4:	5f e4       	ldi	r21, 0x4F	; 79
      a6:	0e 94 f5 03 	call	0x7ea	; 0x7ea <__gesf2>
      aa:	88 23       	and	r24, r24
      ac:	8c f0       	brlt	.+34     	; 0xd0 <__fixunssfsi+0x3e>
      ae:	c8 01       	movw	r24, r16
      b0:	b7 01       	movw	r22, r14
      b2:	20 e0       	ldi	r18, 0x00	; 0
      b4:	30 e0       	ldi	r19, 0x00	; 0
      b6:	40 e0       	ldi	r20, 0x00	; 0
      b8:	5f e4       	ldi	r21, 0x4F	; 79
      ba:	0e 94 c1 01 	call	0x382	; 0x382 <__subsf3>
      be:	0e 94 55 04 	call	0x8aa	; 0x8aa <__fixsfsi>
      c2:	9b 01       	movw	r18, r22
      c4:	ac 01       	movw	r20, r24
      c6:	20 50       	subi	r18, 0x00	; 0
      c8:	30 40       	sbci	r19, 0x00	; 0
      ca:	40 40       	sbci	r20, 0x00	; 0
      cc:	50 48       	sbci	r21, 0x80	; 128
      ce:	06 c0       	rjmp	.+12     	; 0xdc <__fixunssfsi+0x4a>
      d0:	c8 01       	movw	r24, r16
      d2:	b7 01       	movw	r22, r14
      d4:	0e 94 55 04 	call	0x8aa	; 0x8aa <__fixsfsi>
      d8:	9b 01       	movw	r18, r22
      da:	ac 01       	movw	r20, r24
      dc:	b9 01       	movw	r22, r18
      de:	ca 01       	movw	r24, r20
      e0:	1f 91       	pop	r17
      e2:	0f 91       	pop	r16
      e4:	ff 90       	pop	r15
      e6:	ef 90       	pop	r14
      e8:	08 95       	ret

000000ea <_fpadd_parts>:
      ea:	a0 e0       	ldi	r26, 0x00	; 0
      ec:	b0 e0       	ldi	r27, 0x00	; 0
      ee:	eb e7       	ldi	r30, 0x7B	; 123
      f0:	f0 e0       	ldi	r31, 0x00	; 0
      f2:	0c 94 58 3d 	jmp	0x7ab0	; 0x7ab0 <__prologue_saves__>
      f6:	dc 01       	movw	r26, r24
      f8:	2b 01       	movw	r4, r22
      fa:	fa 01       	movw	r30, r20
      fc:	9c 91       	ld	r25, X
      fe:	92 30       	cpi	r25, 0x02	; 2
     100:	08 f4       	brcc	.+2      	; 0x104 <_fpadd_parts+0x1a>
     102:	39 c1       	rjmp	.+626    	; 0x376 <_fpadd_parts+0x28c>
     104:	eb 01       	movw	r28, r22
     106:	88 81       	ld	r24, Y
     108:	82 30       	cpi	r24, 0x02	; 2
     10a:	08 f4       	brcc	.+2      	; 0x10e <_fpadd_parts+0x24>
     10c:	33 c1       	rjmp	.+614    	; 0x374 <_fpadd_parts+0x28a>
     10e:	94 30       	cpi	r25, 0x04	; 4
     110:	69 f4       	brne	.+26     	; 0x12c <_fpadd_parts+0x42>
     112:	84 30       	cpi	r24, 0x04	; 4
     114:	09 f0       	breq	.+2      	; 0x118 <_fpadd_parts+0x2e>
     116:	2f c1       	rjmp	.+606    	; 0x376 <_fpadd_parts+0x28c>
     118:	11 96       	adiw	r26, 0x01	; 1
     11a:	9c 91       	ld	r25, X
     11c:	11 97       	sbiw	r26, 0x01	; 1
     11e:	89 81       	ldd	r24, Y+1	; 0x01
     120:	98 17       	cp	r25, r24
     122:	09 f4       	brne	.+2      	; 0x126 <_fpadd_parts+0x3c>
     124:	28 c1       	rjmp	.+592    	; 0x376 <_fpadd_parts+0x28c>
     126:	a4 ed       	ldi	r26, 0xD4	; 212
     128:	b1 e0       	ldi	r27, 0x01	; 1
     12a:	25 c1       	rjmp	.+586    	; 0x376 <_fpadd_parts+0x28c>
     12c:	84 30       	cpi	r24, 0x04	; 4
     12e:	09 f4       	brne	.+2      	; 0x132 <_fpadd_parts+0x48>
     130:	21 c1       	rjmp	.+578    	; 0x374 <_fpadd_parts+0x28a>
     132:	82 30       	cpi	r24, 0x02	; 2
     134:	a9 f4       	brne	.+42     	; 0x160 <_fpadd_parts+0x76>
     136:	92 30       	cpi	r25, 0x02	; 2
     138:	09 f0       	breq	.+2      	; 0x13c <_fpadd_parts+0x52>
     13a:	1d c1       	rjmp	.+570    	; 0x376 <_fpadd_parts+0x28c>
     13c:	9a 01       	movw	r18, r20
     13e:	ad 01       	movw	r20, r26
     140:	88 e0       	ldi	r24, 0x08	; 8
     142:	ea 01       	movw	r28, r20
     144:	09 90       	ld	r0, Y+
     146:	ae 01       	movw	r20, r28
     148:	e9 01       	movw	r28, r18
     14a:	09 92       	st	Y+, r0
     14c:	9e 01       	movw	r18, r28
     14e:	81 50       	subi	r24, 0x01	; 1
     150:	c1 f7       	brne	.-16     	; 0x142 <_fpadd_parts+0x58>
     152:	e2 01       	movw	r28, r4
     154:	89 81       	ldd	r24, Y+1	; 0x01
     156:	11 96       	adiw	r26, 0x01	; 1
     158:	9c 91       	ld	r25, X
     15a:	89 23       	and	r24, r25
     15c:	81 83       	std	Z+1, r24	; 0x01
     15e:	08 c1       	rjmp	.+528    	; 0x370 <_fpadd_parts+0x286>
     160:	92 30       	cpi	r25, 0x02	; 2
     162:	09 f4       	brne	.+2      	; 0x166 <_fpadd_parts+0x7c>
     164:	07 c1       	rjmp	.+526    	; 0x374 <_fpadd_parts+0x28a>
     166:	12 96       	adiw	r26, 0x02	; 2
     168:	2d 90       	ld	r2, X+
     16a:	3c 90       	ld	r3, X
     16c:	13 97       	sbiw	r26, 0x03	; 3
     16e:	eb 01       	movw	r28, r22
     170:	8a 81       	ldd	r24, Y+2	; 0x02
     172:	9b 81       	ldd	r25, Y+3	; 0x03
     174:	14 96       	adiw	r26, 0x04	; 4
     176:	ad 90       	ld	r10, X+
     178:	bd 90       	ld	r11, X+
     17a:	cd 90       	ld	r12, X+
     17c:	dc 90       	ld	r13, X
     17e:	17 97       	sbiw	r26, 0x07	; 7
     180:	ec 80       	ldd	r14, Y+4	; 0x04
     182:	fd 80       	ldd	r15, Y+5	; 0x05
     184:	0e 81       	ldd	r16, Y+6	; 0x06
     186:	1f 81       	ldd	r17, Y+7	; 0x07
     188:	91 01       	movw	r18, r2
     18a:	28 1b       	sub	r18, r24
     18c:	39 0b       	sbc	r19, r25
     18e:	b9 01       	movw	r22, r18
     190:	37 ff       	sbrs	r19, 7
     192:	04 c0       	rjmp	.+8      	; 0x19c <_fpadd_parts+0xb2>
     194:	66 27       	eor	r22, r22
     196:	77 27       	eor	r23, r23
     198:	62 1b       	sub	r22, r18
     19a:	73 0b       	sbc	r23, r19
     19c:	60 32       	cpi	r22, 0x20	; 32
     19e:	71 05       	cpc	r23, r1
     1a0:	0c f0       	brlt	.+2      	; 0x1a4 <_fpadd_parts+0xba>
     1a2:	61 c0       	rjmp	.+194    	; 0x266 <_fpadd_parts+0x17c>
     1a4:	12 16       	cp	r1, r18
     1a6:	13 06       	cpc	r1, r19
     1a8:	6c f5       	brge	.+90     	; 0x204 <_fpadd_parts+0x11a>
     1aa:	37 01       	movw	r6, r14
     1ac:	48 01       	movw	r8, r16
     1ae:	06 2e       	mov	r0, r22
     1b0:	04 c0       	rjmp	.+8      	; 0x1ba <_fpadd_parts+0xd0>
     1b2:	96 94       	lsr	r9
     1b4:	87 94       	ror	r8
     1b6:	77 94       	ror	r7
     1b8:	67 94       	ror	r6
     1ba:	0a 94       	dec	r0
     1bc:	d2 f7       	brpl	.-12     	; 0x1b2 <_fpadd_parts+0xc8>
     1be:	21 e0       	ldi	r18, 0x01	; 1
     1c0:	30 e0       	ldi	r19, 0x00	; 0
     1c2:	40 e0       	ldi	r20, 0x00	; 0
     1c4:	50 e0       	ldi	r21, 0x00	; 0
     1c6:	04 c0       	rjmp	.+8      	; 0x1d0 <_fpadd_parts+0xe6>
     1c8:	22 0f       	add	r18, r18
     1ca:	33 1f       	adc	r19, r19
     1cc:	44 1f       	adc	r20, r20
     1ce:	55 1f       	adc	r21, r21
     1d0:	6a 95       	dec	r22
     1d2:	d2 f7       	brpl	.-12     	; 0x1c8 <_fpadd_parts+0xde>
     1d4:	21 50       	subi	r18, 0x01	; 1
     1d6:	30 40       	sbci	r19, 0x00	; 0
     1d8:	40 40       	sbci	r20, 0x00	; 0
     1da:	50 40       	sbci	r21, 0x00	; 0
     1dc:	2e 21       	and	r18, r14
     1de:	3f 21       	and	r19, r15
     1e0:	40 23       	and	r20, r16
     1e2:	51 23       	and	r21, r17
     1e4:	21 15       	cp	r18, r1
     1e6:	31 05       	cpc	r19, r1
     1e8:	41 05       	cpc	r20, r1
     1ea:	51 05       	cpc	r21, r1
     1ec:	21 f0       	breq	.+8      	; 0x1f6 <_fpadd_parts+0x10c>
     1ee:	21 e0       	ldi	r18, 0x01	; 1
     1f0:	30 e0       	ldi	r19, 0x00	; 0
     1f2:	40 e0       	ldi	r20, 0x00	; 0
     1f4:	50 e0       	ldi	r21, 0x00	; 0
     1f6:	79 01       	movw	r14, r18
     1f8:	8a 01       	movw	r16, r20
     1fa:	e6 28       	or	r14, r6
     1fc:	f7 28       	or	r15, r7
     1fe:	08 29       	or	r16, r8
     200:	19 29       	or	r17, r9
     202:	3c c0       	rjmp	.+120    	; 0x27c <_fpadd_parts+0x192>
     204:	23 2b       	or	r18, r19
     206:	d1 f1       	breq	.+116    	; 0x27c <_fpadd_parts+0x192>
     208:	26 0e       	add	r2, r22
     20a:	37 1e       	adc	r3, r23
     20c:	35 01       	movw	r6, r10
     20e:	46 01       	movw	r8, r12
     210:	06 2e       	mov	r0, r22
     212:	04 c0       	rjmp	.+8      	; 0x21c <_fpadd_parts+0x132>
     214:	96 94       	lsr	r9
     216:	87 94       	ror	r8
     218:	77 94       	ror	r7
     21a:	67 94       	ror	r6
     21c:	0a 94       	dec	r0
     21e:	d2 f7       	brpl	.-12     	; 0x214 <_fpadd_parts+0x12a>
     220:	21 e0       	ldi	r18, 0x01	; 1
     222:	30 e0       	ldi	r19, 0x00	; 0
     224:	40 e0       	ldi	r20, 0x00	; 0
     226:	50 e0       	ldi	r21, 0x00	; 0
     228:	04 c0       	rjmp	.+8      	; 0x232 <_fpadd_parts+0x148>
     22a:	22 0f       	add	r18, r18
     22c:	33 1f       	adc	r19, r19
     22e:	44 1f       	adc	r20, r20
     230:	55 1f       	adc	r21, r21
     232:	6a 95       	dec	r22
     234:	d2 f7       	brpl	.-12     	; 0x22a <_fpadd_parts+0x140>
     236:	21 50       	subi	r18, 0x01	; 1
     238:	30 40       	sbci	r19, 0x00	; 0
     23a:	40 40       	sbci	r20, 0x00	; 0
     23c:	50 40       	sbci	r21, 0x00	; 0
     23e:	2a 21       	and	r18, r10
     240:	3b 21       	and	r19, r11
     242:	4c 21       	and	r20, r12
     244:	5d 21       	and	r21, r13
     246:	21 15       	cp	r18, r1
     248:	31 05       	cpc	r19, r1
     24a:	41 05       	cpc	r20, r1
     24c:	51 05       	cpc	r21, r1
     24e:	21 f0       	breq	.+8      	; 0x258 <_fpadd_parts+0x16e>
     250:	21 e0       	ldi	r18, 0x01	; 1
     252:	30 e0       	ldi	r19, 0x00	; 0
     254:	40 e0       	ldi	r20, 0x00	; 0
     256:	50 e0       	ldi	r21, 0x00	; 0
     258:	59 01       	movw	r10, r18
     25a:	6a 01       	movw	r12, r20
     25c:	a6 28       	or	r10, r6
     25e:	b7 28       	or	r11, r7
     260:	c8 28       	or	r12, r8
     262:	d9 28       	or	r13, r9
     264:	0b c0       	rjmp	.+22     	; 0x27c <_fpadd_parts+0x192>
     266:	82 15       	cp	r24, r2
     268:	93 05       	cpc	r25, r3
     26a:	2c f0       	brlt	.+10     	; 0x276 <_fpadd_parts+0x18c>
     26c:	1c 01       	movw	r2, r24
     26e:	aa 24       	eor	r10, r10
     270:	bb 24       	eor	r11, r11
     272:	65 01       	movw	r12, r10
     274:	03 c0       	rjmp	.+6      	; 0x27c <_fpadd_parts+0x192>
     276:	ee 24       	eor	r14, r14
     278:	ff 24       	eor	r15, r15
     27a:	87 01       	movw	r16, r14
     27c:	11 96       	adiw	r26, 0x01	; 1
     27e:	9c 91       	ld	r25, X
     280:	d2 01       	movw	r26, r4
     282:	11 96       	adiw	r26, 0x01	; 1
     284:	8c 91       	ld	r24, X
     286:	98 17       	cp	r25, r24
     288:	09 f4       	brne	.+2      	; 0x28c <_fpadd_parts+0x1a2>
     28a:	45 c0       	rjmp	.+138    	; 0x316 <_fpadd_parts+0x22c>
     28c:	99 23       	and	r25, r25
     28e:	39 f0       	breq	.+14     	; 0x29e <_fpadd_parts+0x1b4>
     290:	a8 01       	movw	r20, r16
     292:	97 01       	movw	r18, r14
     294:	2a 19       	sub	r18, r10
     296:	3b 09       	sbc	r19, r11
     298:	4c 09       	sbc	r20, r12
     29a:	5d 09       	sbc	r21, r13
     29c:	06 c0       	rjmp	.+12     	; 0x2aa <_fpadd_parts+0x1c0>
     29e:	a6 01       	movw	r20, r12
     2a0:	95 01       	movw	r18, r10
     2a2:	2e 19       	sub	r18, r14
     2a4:	3f 09       	sbc	r19, r15
     2a6:	40 0b       	sbc	r20, r16
     2a8:	51 0b       	sbc	r21, r17
     2aa:	57 fd       	sbrc	r21, 7
     2ac:	08 c0       	rjmp	.+16     	; 0x2be <_fpadd_parts+0x1d4>
     2ae:	11 82       	std	Z+1, r1	; 0x01
     2b0:	33 82       	std	Z+3, r3	; 0x03
     2b2:	22 82       	std	Z+2, r2	; 0x02
     2b4:	24 83       	std	Z+4, r18	; 0x04
     2b6:	35 83       	std	Z+5, r19	; 0x05
     2b8:	46 83       	std	Z+6, r20	; 0x06
     2ba:	57 83       	std	Z+7, r21	; 0x07
     2bc:	1d c0       	rjmp	.+58     	; 0x2f8 <_fpadd_parts+0x20e>
     2be:	81 e0       	ldi	r24, 0x01	; 1
     2c0:	81 83       	std	Z+1, r24	; 0x01
     2c2:	33 82       	std	Z+3, r3	; 0x03
     2c4:	22 82       	std	Z+2, r2	; 0x02
     2c6:	88 27       	eor	r24, r24
     2c8:	99 27       	eor	r25, r25
     2ca:	dc 01       	movw	r26, r24
     2cc:	82 1b       	sub	r24, r18
     2ce:	93 0b       	sbc	r25, r19
     2d0:	a4 0b       	sbc	r26, r20
     2d2:	b5 0b       	sbc	r27, r21
     2d4:	84 83       	std	Z+4, r24	; 0x04
     2d6:	95 83       	std	Z+5, r25	; 0x05
     2d8:	a6 83       	std	Z+6, r26	; 0x06
     2da:	b7 83       	std	Z+7, r27	; 0x07
     2dc:	0d c0       	rjmp	.+26     	; 0x2f8 <_fpadd_parts+0x20e>
     2de:	22 0f       	add	r18, r18
     2e0:	33 1f       	adc	r19, r19
     2e2:	44 1f       	adc	r20, r20
     2e4:	55 1f       	adc	r21, r21
     2e6:	24 83       	std	Z+4, r18	; 0x04
     2e8:	35 83       	std	Z+5, r19	; 0x05
     2ea:	46 83       	std	Z+6, r20	; 0x06
     2ec:	57 83       	std	Z+7, r21	; 0x07
     2ee:	82 81       	ldd	r24, Z+2	; 0x02
     2f0:	93 81       	ldd	r25, Z+3	; 0x03
     2f2:	01 97       	sbiw	r24, 0x01	; 1
     2f4:	93 83       	std	Z+3, r25	; 0x03
     2f6:	82 83       	std	Z+2, r24	; 0x02
     2f8:	24 81       	ldd	r18, Z+4	; 0x04
     2fa:	35 81       	ldd	r19, Z+5	; 0x05
     2fc:	46 81       	ldd	r20, Z+6	; 0x06
     2fe:	57 81       	ldd	r21, Z+7	; 0x07
     300:	da 01       	movw	r26, r20
     302:	c9 01       	movw	r24, r18
     304:	01 97       	sbiw	r24, 0x01	; 1
     306:	a1 09       	sbc	r26, r1
     308:	b1 09       	sbc	r27, r1
     30a:	8f 5f       	subi	r24, 0xFF	; 255
     30c:	9f 4f       	sbci	r25, 0xFF	; 255
     30e:	af 4f       	sbci	r26, 0xFF	; 255
     310:	bf 43       	sbci	r27, 0x3F	; 63
     312:	28 f3       	brcs	.-54     	; 0x2de <_fpadd_parts+0x1f4>
     314:	0b c0       	rjmp	.+22     	; 0x32c <_fpadd_parts+0x242>
     316:	91 83       	std	Z+1, r25	; 0x01
     318:	33 82       	std	Z+3, r3	; 0x03
     31a:	22 82       	std	Z+2, r2	; 0x02
     31c:	ea 0c       	add	r14, r10
     31e:	fb 1c       	adc	r15, r11
     320:	0c 1d       	adc	r16, r12
     322:	1d 1d       	adc	r17, r13
     324:	e4 82       	std	Z+4, r14	; 0x04
     326:	f5 82       	std	Z+5, r15	; 0x05
     328:	06 83       	std	Z+6, r16	; 0x06
     32a:	17 83       	std	Z+7, r17	; 0x07
     32c:	83 e0       	ldi	r24, 0x03	; 3
     32e:	80 83       	st	Z, r24
     330:	24 81       	ldd	r18, Z+4	; 0x04
     332:	35 81       	ldd	r19, Z+5	; 0x05
     334:	46 81       	ldd	r20, Z+6	; 0x06
     336:	57 81       	ldd	r21, Z+7	; 0x07
     338:	57 ff       	sbrs	r21, 7
     33a:	1a c0       	rjmp	.+52     	; 0x370 <_fpadd_parts+0x286>
     33c:	c9 01       	movw	r24, r18
     33e:	aa 27       	eor	r26, r26
     340:	97 fd       	sbrc	r25, 7
     342:	a0 95       	com	r26
     344:	ba 2f       	mov	r27, r26
     346:	81 70       	andi	r24, 0x01	; 1
     348:	90 70       	andi	r25, 0x00	; 0
     34a:	a0 70       	andi	r26, 0x00	; 0
     34c:	b0 70       	andi	r27, 0x00	; 0
     34e:	56 95       	lsr	r21
     350:	47 95       	ror	r20
     352:	37 95       	ror	r19
     354:	27 95       	ror	r18
     356:	82 2b       	or	r24, r18
     358:	93 2b       	or	r25, r19
     35a:	a4 2b       	or	r26, r20
     35c:	b5 2b       	or	r27, r21
     35e:	84 83       	std	Z+4, r24	; 0x04
     360:	95 83       	std	Z+5, r25	; 0x05
     362:	a6 83       	std	Z+6, r26	; 0x06
     364:	b7 83       	std	Z+7, r27	; 0x07
     366:	82 81       	ldd	r24, Z+2	; 0x02
     368:	93 81       	ldd	r25, Z+3	; 0x03
     36a:	01 96       	adiw	r24, 0x01	; 1
     36c:	93 83       	std	Z+3, r25	; 0x03
     36e:	82 83       	std	Z+2, r24	; 0x02
     370:	df 01       	movw	r26, r30
     372:	01 c0       	rjmp	.+2      	; 0x376 <_fpadd_parts+0x28c>
     374:	d2 01       	movw	r26, r4
     376:	cd 01       	movw	r24, r26
     378:	cd b7       	in	r28, 0x3d	; 61
     37a:	de b7       	in	r29, 0x3e	; 62
     37c:	e2 e1       	ldi	r30, 0x12	; 18
     37e:	0c 94 74 3d 	jmp	0x7ae8	; 0x7ae8 <__epilogue_restores__>

00000382 <__subsf3>:
     382:	a0 e2       	ldi	r26, 0x20	; 32
     384:	b0 e0       	ldi	r27, 0x00	; 0
     386:	e7 ec       	ldi	r30, 0xC7	; 199
     388:	f1 e0       	ldi	r31, 0x01	; 1
     38a:	0c 94 64 3d 	jmp	0x7ac8	; 0x7ac8 <__prologue_saves__+0x18>
     38e:	69 83       	std	Y+1, r22	; 0x01
     390:	7a 83       	std	Y+2, r23	; 0x02
     392:	8b 83       	std	Y+3, r24	; 0x03
     394:	9c 83       	std	Y+4, r25	; 0x04
     396:	2d 83       	std	Y+5, r18	; 0x05
     398:	3e 83       	std	Y+6, r19	; 0x06
     39a:	4f 83       	std	Y+7, r20	; 0x07
     39c:	58 87       	std	Y+8, r21	; 0x08
     39e:	e9 e0       	ldi	r30, 0x09	; 9
     3a0:	ee 2e       	mov	r14, r30
     3a2:	f1 2c       	mov	r15, r1
     3a4:	ec 0e       	add	r14, r28
     3a6:	fd 1e       	adc	r15, r29
     3a8:	ce 01       	movw	r24, r28
     3aa:	01 96       	adiw	r24, 0x01	; 1
     3ac:	b7 01       	movw	r22, r14
     3ae:	0e 94 46 06 	call	0xc8c	; 0xc8c <__unpack_f>
     3b2:	8e 01       	movw	r16, r28
     3b4:	0f 5e       	subi	r16, 0xEF	; 239
     3b6:	1f 4f       	sbci	r17, 0xFF	; 255
     3b8:	ce 01       	movw	r24, r28
     3ba:	05 96       	adiw	r24, 0x05	; 5
     3bc:	b8 01       	movw	r22, r16
     3be:	0e 94 46 06 	call	0xc8c	; 0xc8c <__unpack_f>
     3c2:	8a 89       	ldd	r24, Y+18	; 0x12
     3c4:	91 e0       	ldi	r25, 0x01	; 1
     3c6:	89 27       	eor	r24, r25
     3c8:	8a 8b       	std	Y+18, r24	; 0x12
     3ca:	c7 01       	movw	r24, r14
     3cc:	b8 01       	movw	r22, r16
     3ce:	ae 01       	movw	r20, r28
     3d0:	47 5e       	subi	r20, 0xE7	; 231
     3d2:	5f 4f       	sbci	r21, 0xFF	; 255
     3d4:	0e 94 75 00 	call	0xea	; 0xea <_fpadd_parts>
     3d8:	0e 94 71 05 	call	0xae2	; 0xae2 <__pack_f>
     3dc:	a0 96       	adiw	r28, 0x20	; 32
     3de:	e6 e0       	ldi	r30, 0x06	; 6
     3e0:	0c 94 80 3d 	jmp	0x7b00	; 0x7b00 <__epilogue_restores__+0x18>

000003e4 <__addsf3>:
     3e4:	a0 e2       	ldi	r26, 0x20	; 32
     3e6:	b0 e0       	ldi	r27, 0x00	; 0
     3e8:	e8 ef       	ldi	r30, 0xF8	; 248
     3ea:	f1 e0       	ldi	r31, 0x01	; 1
     3ec:	0c 94 64 3d 	jmp	0x7ac8	; 0x7ac8 <__prologue_saves__+0x18>
     3f0:	69 83       	std	Y+1, r22	; 0x01
     3f2:	7a 83       	std	Y+2, r23	; 0x02
     3f4:	8b 83       	std	Y+3, r24	; 0x03
     3f6:	9c 83       	std	Y+4, r25	; 0x04
     3f8:	2d 83       	std	Y+5, r18	; 0x05
     3fa:	3e 83       	std	Y+6, r19	; 0x06
     3fc:	4f 83       	std	Y+7, r20	; 0x07
     3fe:	58 87       	std	Y+8, r21	; 0x08
     400:	f9 e0       	ldi	r31, 0x09	; 9
     402:	ef 2e       	mov	r14, r31
     404:	f1 2c       	mov	r15, r1
     406:	ec 0e       	add	r14, r28
     408:	fd 1e       	adc	r15, r29
     40a:	ce 01       	movw	r24, r28
     40c:	01 96       	adiw	r24, 0x01	; 1
     40e:	b7 01       	movw	r22, r14
     410:	0e 94 46 06 	call	0xc8c	; 0xc8c <__unpack_f>
     414:	8e 01       	movw	r16, r28
     416:	0f 5e       	subi	r16, 0xEF	; 239
     418:	1f 4f       	sbci	r17, 0xFF	; 255
     41a:	ce 01       	movw	r24, r28
     41c:	05 96       	adiw	r24, 0x05	; 5
     41e:	b8 01       	movw	r22, r16
     420:	0e 94 46 06 	call	0xc8c	; 0xc8c <__unpack_f>
     424:	c7 01       	movw	r24, r14
     426:	b8 01       	movw	r22, r16
     428:	ae 01       	movw	r20, r28
     42a:	47 5e       	subi	r20, 0xE7	; 231
     42c:	5f 4f       	sbci	r21, 0xFF	; 255
     42e:	0e 94 75 00 	call	0xea	; 0xea <_fpadd_parts>
     432:	0e 94 71 05 	call	0xae2	; 0xae2 <__pack_f>
     436:	a0 96       	adiw	r28, 0x20	; 32
     438:	e6 e0       	ldi	r30, 0x06	; 6
     43a:	0c 94 80 3d 	jmp	0x7b00	; 0x7b00 <__epilogue_restores__+0x18>

0000043e <__mulsf3>:
     43e:	a0 e2       	ldi	r26, 0x20	; 32
     440:	b0 e0       	ldi	r27, 0x00	; 0
     442:	e5 e2       	ldi	r30, 0x25	; 37
     444:	f2 e0       	ldi	r31, 0x02	; 2
     446:	0c 94 58 3d 	jmp	0x7ab0	; 0x7ab0 <__prologue_saves__>
     44a:	69 83       	std	Y+1, r22	; 0x01
     44c:	7a 83       	std	Y+2, r23	; 0x02
     44e:	8b 83       	std	Y+3, r24	; 0x03
     450:	9c 83       	std	Y+4, r25	; 0x04
     452:	2d 83       	std	Y+5, r18	; 0x05
     454:	3e 83       	std	Y+6, r19	; 0x06
     456:	4f 83       	std	Y+7, r20	; 0x07
     458:	58 87       	std	Y+8, r21	; 0x08
     45a:	ce 01       	movw	r24, r28
     45c:	01 96       	adiw	r24, 0x01	; 1
     45e:	be 01       	movw	r22, r28
     460:	67 5f       	subi	r22, 0xF7	; 247
     462:	7f 4f       	sbci	r23, 0xFF	; 255
     464:	0e 94 46 06 	call	0xc8c	; 0xc8c <__unpack_f>
     468:	ce 01       	movw	r24, r28
     46a:	05 96       	adiw	r24, 0x05	; 5
     46c:	be 01       	movw	r22, r28
     46e:	6f 5e       	subi	r22, 0xEF	; 239
     470:	7f 4f       	sbci	r23, 0xFF	; 255
     472:	0e 94 46 06 	call	0xc8c	; 0xc8c <__unpack_f>
     476:	99 85       	ldd	r25, Y+9	; 0x09
     478:	92 30       	cpi	r25, 0x02	; 2
     47a:	88 f0       	brcs	.+34     	; 0x49e <__mulsf3+0x60>
     47c:	89 89       	ldd	r24, Y+17	; 0x11
     47e:	82 30       	cpi	r24, 0x02	; 2
     480:	c8 f0       	brcs	.+50     	; 0x4b4 <__mulsf3+0x76>
     482:	94 30       	cpi	r25, 0x04	; 4
     484:	19 f4       	brne	.+6      	; 0x48c <__mulsf3+0x4e>
     486:	82 30       	cpi	r24, 0x02	; 2
     488:	51 f4       	brne	.+20     	; 0x49e <__mulsf3+0x60>
     48a:	04 c0       	rjmp	.+8      	; 0x494 <__mulsf3+0x56>
     48c:	84 30       	cpi	r24, 0x04	; 4
     48e:	29 f4       	brne	.+10     	; 0x49a <__mulsf3+0x5c>
     490:	92 30       	cpi	r25, 0x02	; 2
     492:	81 f4       	brne	.+32     	; 0x4b4 <__mulsf3+0x76>
     494:	84 ed       	ldi	r24, 0xD4	; 212
     496:	91 e0       	ldi	r25, 0x01	; 1
     498:	c6 c0       	rjmp	.+396    	; 0x626 <__mulsf3+0x1e8>
     49a:	92 30       	cpi	r25, 0x02	; 2
     49c:	49 f4       	brne	.+18     	; 0x4b0 <__mulsf3+0x72>
     49e:	20 e0       	ldi	r18, 0x00	; 0
     4a0:	9a 85       	ldd	r25, Y+10	; 0x0a
     4a2:	8a 89       	ldd	r24, Y+18	; 0x12
     4a4:	98 13       	cpse	r25, r24
     4a6:	21 e0       	ldi	r18, 0x01	; 1
     4a8:	2a 87       	std	Y+10, r18	; 0x0a
     4aa:	ce 01       	movw	r24, r28
     4ac:	09 96       	adiw	r24, 0x09	; 9
     4ae:	bb c0       	rjmp	.+374    	; 0x626 <__mulsf3+0x1e8>
     4b0:	82 30       	cpi	r24, 0x02	; 2
     4b2:	49 f4       	brne	.+18     	; 0x4c6 <__mulsf3+0x88>
     4b4:	20 e0       	ldi	r18, 0x00	; 0
     4b6:	9a 85       	ldd	r25, Y+10	; 0x0a
     4b8:	8a 89       	ldd	r24, Y+18	; 0x12
     4ba:	98 13       	cpse	r25, r24
     4bc:	21 e0       	ldi	r18, 0x01	; 1
     4be:	2a 8b       	std	Y+18, r18	; 0x12
     4c0:	ce 01       	movw	r24, r28
     4c2:	41 96       	adiw	r24, 0x11	; 17
     4c4:	b0 c0       	rjmp	.+352    	; 0x626 <__mulsf3+0x1e8>
     4c6:	2d 84       	ldd	r2, Y+13	; 0x0d
     4c8:	3e 84       	ldd	r3, Y+14	; 0x0e
     4ca:	4f 84       	ldd	r4, Y+15	; 0x0f
     4cc:	58 88       	ldd	r5, Y+16	; 0x10
     4ce:	6d 88       	ldd	r6, Y+21	; 0x15
     4d0:	7e 88       	ldd	r7, Y+22	; 0x16
     4d2:	8f 88       	ldd	r8, Y+23	; 0x17
     4d4:	98 8c       	ldd	r9, Y+24	; 0x18
     4d6:	ee 24       	eor	r14, r14
     4d8:	ff 24       	eor	r15, r15
     4da:	87 01       	movw	r16, r14
     4dc:	aa 24       	eor	r10, r10
     4de:	bb 24       	eor	r11, r11
     4e0:	65 01       	movw	r12, r10
     4e2:	40 e0       	ldi	r20, 0x00	; 0
     4e4:	50 e0       	ldi	r21, 0x00	; 0
     4e6:	60 e0       	ldi	r22, 0x00	; 0
     4e8:	70 e0       	ldi	r23, 0x00	; 0
     4ea:	e0 e0       	ldi	r30, 0x00	; 0
     4ec:	f0 e0       	ldi	r31, 0x00	; 0
     4ee:	c1 01       	movw	r24, r2
     4f0:	81 70       	andi	r24, 0x01	; 1
     4f2:	90 70       	andi	r25, 0x00	; 0
     4f4:	89 2b       	or	r24, r25
     4f6:	e9 f0       	breq	.+58     	; 0x532 <__mulsf3+0xf4>
     4f8:	e6 0c       	add	r14, r6
     4fa:	f7 1c       	adc	r15, r7
     4fc:	08 1d       	adc	r16, r8
     4fe:	19 1d       	adc	r17, r9
     500:	9a 01       	movw	r18, r20
     502:	ab 01       	movw	r20, r22
     504:	2a 0d       	add	r18, r10
     506:	3b 1d       	adc	r19, r11
     508:	4c 1d       	adc	r20, r12
     50a:	5d 1d       	adc	r21, r13
     50c:	80 e0       	ldi	r24, 0x00	; 0
     50e:	90 e0       	ldi	r25, 0x00	; 0
     510:	a0 e0       	ldi	r26, 0x00	; 0
     512:	b0 e0       	ldi	r27, 0x00	; 0
     514:	e6 14       	cp	r14, r6
     516:	f7 04       	cpc	r15, r7
     518:	08 05       	cpc	r16, r8
     51a:	19 05       	cpc	r17, r9
     51c:	20 f4       	brcc	.+8      	; 0x526 <__mulsf3+0xe8>
     51e:	81 e0       	ldi	r24, 0x01	; 1
     520:	90 e0       	ldi	r25, 0x00	; 0
     522:	a0 e0       	ldi	r26, 0x00	; 0
     524:	b0 e0       	ldi	r27, 0x00	; 0
     526:	ba 01       	movw	r22, r20
     528:	a9 01       	movw	r20, r18
     52a:	48 0f       	add	r20, r24
     52c:	59 1f       	adc	r21, r25
     52e:	6a 1f       	adc	r22, r26
     530:	7b 1f       	adc	r23, r27
     532:	aa 0c       	add	r10, r10
     534:	bb 1c       	adc	r11, r11
     536:	cc 1c       	adc	r12, r12
     538:	dd 1c       	adc	r13, r13
     53a:	97 fe       	sbrs	r9, 7
     53c:	08 c0       	rjmp	.+16     	; 0x54e <__mulsf3+0x110>
     53e:	81 e0       	ldi	r24, 0x01	; 1
     540:	90 e0       	ldi	r25, 0x00	; 0
     542:	a0 e0       	ldi	r26, 0x00	; 0
     544:	b0 e0       	ldi	r27, 0x00	; 0
     546:	a8 2a       	or	r10, r24
     548:	b9 2a       	or	r11, r25
     54a:	ca 2a       	or	r12, r26
     54c:	db 2a       	or	r13, r27
     54e:	31 96       	adiw	r30, 0x01	; 1
     550:	e0 32       	cpi	r30, 0x20	; 32
     552:	f1 05       	cpc	r31, r1
     554:	49 f0       	breq	.+18     	; 0x568 <__mulsf3+0x12a>
     556:	66 0c       	add	r6, r6
     558:	77 1c       	adc	r7, r7
     55a:	88 1c       	adc	r8, r8
     55c:	99 1c       	adc	r9, r9
     55e:	56 94       	lsr	r5
     560:	47 94       	ror	r4
     562:	37 94       	ror	r3
     564:	27 94       	ror	r2
     566:	c3 cf       	rjmp	.-122    	; 0x4ee <__mulsf3+0xb0>
     568:	fa 85       	ldd	r31, Y+10	; 0x0a
     56a:	ea 89       	ldd	r30, Y+18	; 0x12
     56c:	2b 89       	ldd	r18, Y+19	; 0x13
     56e:	3c 89       	ldd	r19, Y+20	; 0x14
     570:	8b 85       	ldd	r24, Y+11	; 0x0b
     572:	9c 85       	ldd	r25, Y+12	; 0x0c
     574:	28 0f       	add	r18, r24
     576:	39 1f       	adc	r19, r25
     578:	2e 5f       	subi	r18, 0xFE	; 254
     57a:	3f 4f       	sbci	r19, 0xFF	; 255
     57c:	17 c0       	rjmp	.+46     	; 0x5ac <__mulsf3+0x16e>
     57e:	ca 01       	movw	r24, r20
     580:	81 70       	andi	r24, 0x01	; 1
     582:	90 70       	andi	r25, 0x00	; 0
     584:	89 2b       	or	r24, r25
     586:	61 f0       	breq	.+24     	; 0x5a0 <__mulsf3+0x162>
     588:	16 95       	lsr	r17
     58a:	07 95       	ror	r16
     58c:	f7 94       	ror	r15
     58e:	e7 94       	ror	r14
     590:	80 e0       	ldi	r24, 0x00	; 0
     592:	90 e0       	ldi	r25, 0x00	; 0
     594:	a0 e0       	ldi	r26, 0x00	; 0
     596:	b0 e8       	ldi	r27, 0x80	; 128
     598:	e8 2a       	or	r14, r24
     59a:	f9 2a       	or	r15, r25
     59c:	0a 2b       	or	r16, r26
     59e:	1b 2b       	or	r17, r27
     5a0:	76 95       	lsr	r23
     5a2:	67 95       	ror	r22
     5a4:	57 95       	ror	r21
     5a6:	47 95       	ror	r20
     5a8:	2f 5f       	subi	r18, 0xFF	; 255
     5aa:	3f 4f       	sbci	r19, 0xFF	; 255
     5ac:	77 fd       	sbrc	r23, 7
     5ae:	e7 cf       	rjmp	.-50     	; 0x57e <__mulsf3+0x140>
     5b0:	0c c0       	rjmp	.+24     	; 0x5ca <__mulsf3+0x18c>
     5b2:	44 0f       	add	r20, r20
     5b4:	55 1f       	adc	r21, r21
     5b6:	66 1f       	adc	r22, r22
     5b8:	77 1f       	adc	r23, r23
     5ba:	17 fd       	sbrc	r17, 7
     5bc:	41 60       	ori	r20, 0x01	; 1
     5be:	ee 0c       	add	r14, r14
     5c0:	ff 1c       	adc	r15, r15
     5c2:	00 1f       	adc	r16, r16
     5c4:	11 1f       	adc	r17, r17
     5c6:	21 50       	subi	r18, 0x01	; 1
     5c8:	30 40       	sbci	r19, 0x00	; 0
     5ca:	40 30       	cpi	r20, 0x00	; 0
     5cc:	90 e0       	ldi	r25, 0x00	; 0
     5ce:	59 07       	cpc	r21, r25
     5d0:	90 e0       	ldi	r25, 0x00	; 0
     5d2:	69 07       	cpc	r22, r25
     5d4:	90 e4       	ldi	r25, 0x40	; 64
     5d6:	79 07       	cpc	r23, r25
     5d8:	60 f3       	brcs	.-40     	; 0x5b2 <__mulsf3+0x174>
     5da:	2b 8f       	std	Y+27, r18	; 0x1b
     5dc:	3c 8f       	std	Y+28, r19	; 0x1c
     5de:	db 01       	movw	r26, r22
     5e0:	ca 01       	movw	r24, r20
     5e2:	8f 77       	andi	r24, 0x7F	; 127
     5e4:	90 70       	andi	r25, 0x00	; 0
     5e6:	a0 70       	andi	r26, 0x00	; 0
     5e8:	b0 70       	andi	r27, 0x00	; 0
     5ea:	80 34       	cpi	r24, 0x40	; 64
     5ec:	91 05       	cpc	r25, r1
     5ee:	a1 05       	cpc	r26, r1
     5f0:	b1 05       	cpc	r27, r1
     5f2:	61 f4       	brne	.+24     	; 0x60c <__mulsf3+0x1ce>
     5f4:	47 fd       	sbrc	r20, 7
     5f6:	0a c0       	rjmp	.+20     	; 0x60c <__mulsf3+0x1ce>
     5f8:	e1 14       	cp	r14, r1
     5fa:	f1 04       	cpc	r15, r1
     5fc:	01 05       	cpc	r16, r1
     5fe:	11 05       	cpc	r17, r1
     600:	29 f0       	breq	.+10     	; 0x60c <__mulsf3+0x1ce>
     602:	40 5c       	subi	r20, 0xC0	; 192
     604:	5f 4f       	sbci	r21, 0xFF	; 255
     606:	6f 4f       	sbci	r22, 0xFF	; 255
     608:	7f 4f       	sbci	r23, 0xFF	; 255
     60a:	40 78       	andi	r20, 0x80	; 128
     60c:	1a 8e       	std	Y+26, r1	; 0x1a
     60e:	fe 17       	cp	r31, r30
     610:	11 f0       	breq	.+4      	; 0x616 <__mulsf3+0x1d8>
     612:	81 e0       	ldi	r24, 0x01	; 1
     614:	8a 8f       	std	Y+26, r24	; 0x1a
     616:	4d 8f       	std	Y+29, r20	; 0x1d
     618:	5e 8f       	std	Y+30, r21	; 0x1e
     61a:	6f 8f       	std	Y+31, r22	; 0x1f
     61c:	78 a3       	std	Y+32, r23	; 0x20
     61e:	83 e0       	ldi	r24, 0x03	; 3
     620:	89 8f       	std	Y+25, r24	; 0x19
     622:	ce 01       	movw	r24, r28
     624:	49 96       	adiw	r24, 0x19	; 25
     626:	0e 94 71 05 	call	0xae2	; 0xae2 <__pack_f>
     62a:	a0 96       	adiw	r28, 0x20	; 32
     62c:	e2 e1       	ldi	r30, 0x12	; 18
     62e:	0c 94 74 3d 	jmp	0x7ae8	; 0x7ae8 <__epilogue_restores__>

00000632 <__divsf3>:
     632:	a8 e1       	ldi	r26, 0x18	; 24
     634:	b0 e0       	ldi	r27, 0x00	; 0
     636:	ef e1       	ldi	r30, 0x1F	; 31
     638:	f3 e0       	ldi	r31, 0x03	; 3
     63a:	0c 94 60 3d 	jmp	0x7ac0	; 0x7ac0 <__prologue_saves__+0x10>
     63e:	69 83       	std	Y+1, r22	; 0x01
     640:	7a 83       	std	Y+2, r23	; 0x02
     642:	8b 83       	std	Y+3, r24	; 0x03
     644:	9c 83       	std	Y+4, r25	; 0x04
     646:	2d 83       	std	Y+5, r18	; 0x05
     648:	3e 83       	std	Y+6, r19	; 0x06
     64a:	4f 83       	std	Y+7, r20	; 0x07
     64c:	58 87       	std	Y+8, r21	; 0x08
     64e:	b9 e0       	ldi	r27, 0x09	; 9
     650:	eb 2e       	mov	r14, r27
     652:	f1 2c       	mov	r15, r1
     654:	ec 0e       	add	r14, r28
     656:	fd 1e       	adc	r15, r29
     658:	ce 01       	movw	r24, r28
     65a:	01 96       	adiw	r24, 0x01	; 1
     65c:	b7 01       	movw	r22, r14
     65e:	0e 94 46 06 	call	0xc8c	; 0xc8c <__unpack_f>
     662:	8e 01       	movw	r16, r28
     664:	0f 5e       	subi	r16, 0xEF	; 239
     666:	1f 4f       	sbci	r17, 0xFF	; 255
     668:	ce 01       	movw	r24, r28
     66a:	05 96       	adiw	r24, 0x05	; 5
     66c:	b8 01       	movw	r22, r16
     66e:	0e 94 46 06 	call	0xc8c	; 0xc8c <__unpack_f>
     672:	29 85       	ldd	r18, Y+9	; 0x09
     674:	22 30       	cpi	r18, 0x02	; 2
     676:	08 f4       	brcc	.+2      	; 0x67a <__divsf3+0x48>
     678:	7e c0       	rjmp	.+252    	; 0x776 <__divsf3+0x144>
     67a:	39 89       	ldd	r19, Y+17	; 0x11
     67c:	32 30       	cpi	r19, 0x02	; 2
     67e:	10 f4       	brcc	.+4      	; 0x684 <__divsf3+0x52>
     680:	b8 01       	movw	r22, r16
     682:	7c c0       	rjmp	.+248    	; 0x77c <__divsf3+0x14a>
     684:	8a 85       	ldd	r24, Y+10	; 0x0a
     686:	9a 89       	ldd	r25, Y+18	; 0x12
     688:	89 27       	eor	r24, r25
     68a:	8a 87       	std	Y+10, r24	; 0x0a
     68c:	24 30       	cpi	r18, 0x04	; 4
     68e:	11 f0       	breq	.+4      	; 0x694 <__divsf3+0x62>
     690:	22 30       	cpi	r18, 0x02	; 2
     692:	31 f4       	brne	.+12     	; 0x6a0 <__divsf3+0x6e>
     694:	23 17       	cp	r18, r19
     696:	09 f0       	breq	.+2      	; 0x69a <__divsf3+0x68>
     698:	6e c0       	rjmp	.+220    	; 0x776 <__divsf3+0x144>
     69a:	64 ed       	ldi	r22, 0xD4	; 212
     69c:	71 e0       	ldi	r23, 0x01	; 1
     69e:	6e c0       	rjmp	.+220    	; 0x77c <__divsf3+0x14a>
     6a0:	34 30       	cpi	r19, 0x04	; 4
     6a2:	39 f4       	brne	.+14     	; 0x6b2 <__divsf3+0x80>
     6a4:	1d 86       	std	Y+13, r1	; 0x0d
     6a6:	1e 86       	std	Y+14, r1	; 0x0e
     6a8:	1f 86       	std	Y+15, r1	; 0x0f
     6aa:	18 8a       	std	Y+16, r1	; 0x10
     6ac:	1c 86       	std	Y+12, r1	; 0x0c
     6ae:	1b 86       	std	Y+11, r1	; 0x0b
     6b0:	04 c0       	rjmp	.+8      	; 0x6ba <__divsf3+0x88>
     6b2:	32 30       	cpi	r19, 0x02	; 2
     6b4:	21 f4       	brne	.+8      	; 0x6be <__divsf3+0x8c>
     6b6:	84 e0       	ldi	r24, 0x04	; 4
     6b8:	89 87       	std	Y+9, r24	; 0x09
     6ba:	b7 01       	movw	r22, r14
     6bc:	5f c0       	rjmp	.+190    	; 0x77c <__divsf3+0x14a>
     6be:	2b 85       	ldd	r18, Y+11	; 0x0b
     6c0:	3c 85       	ldd	r19, Y+12	; 0x0c
     6c2:	8b 89       	ldd	r24, Y+19	; 0x13
     6c4:	9c 89       	ldd	r25, Y+20	; 0x14
     6c6:	28 1b       	sub	r18, r24
     6c8:	39 0b       	sbc	r19, r25
     6ca:	3c 87       	std	Y+12, r19	; 0x0c
     6cc:	2b 87       	std	Y+11, r18	; 0x0b
     6ce:	ed 84       	ldd	r14, Y+13	; 0x0d
     6d0:	fe 84       	ldd	r15, Y+14	; 0x0e
     6d2:	0f 85       	ldd	r16, Y+15	; 0x0f
     6d4:	18 89       	ldd	r17, Y+16	; 0x10
     6d6:	ad 88       	ldd	r10, Y+21	; 0x15
     6d8:	be 88       	ldd	r11, Y+22	; 0x16
     6da:	cf 88       	ldd	r12, Y+23	; 0x17
     6dc:	d8 8c       	ldd	r13, Y+24	; 0x18
     6de:	ea 14       	cp	r14, r10
     6e0:	fb 04       	cpc	r15, r11
     6e2:	0c 05       	cpc	r16, r12
     6e4:	1d 05       	cpc	r17, r13
     6e6:	40 f4       	brcc	.+16     	; 0x6f8 <__divsf3+0xc6>
     6e8:	ee 0c       	add	r14, r14
     6ea:	ff 1c       	adc	r15, r15
     6ec:	00 1f       	adc	r16, r16
     6ee:	11 1f       	adc	r17, r17
     6f0:	21 50       	subi	r18, 0x01	; 1
     6f2:	30 40       	sbci	r19, 0x00	; 0
     6f4:	3c 87       	std	Y+12, r19	; 0x0c
     6f6:	2b 87       	std	Y+11, r18	; 0x0b
     6f8:	20 e0       	ldi	r18, 0x00	; 0
     6fa:	30 e0       	ldi	r19, 0x00	; 0
     6fc:	40 e0       	ldi	r20, 0x00	; 0
     6fe:	50 e0       	ldi	r21, 0x00	; 0
     700:	80 e0       	ldi	r24, 0x00	; 0
     702:	90 e0       	ldi	r25, 0x00	; 0
     704:	a0 e0       	ldi	r26, 0x00	; 0
     706:	b0 e4       	ldi	r27, 0x40	; 64
     708:	60 e0       	ldi	r22, 0x00	; 0
     70a:	70 e0       	ldi	r23, 0x00	; 0
     70c:	ea 14       	cp	r14, r10
     70e:	fb 04       	cpc	r15, r11
     710:	0c 05       	cpc	r16, r12
     712:	1d 05       	cpc	r17, r13
     714:	40 f0       	brcs	.+16     	; 0x726 <__divsf3+0xf4>
     716:	28 2b       	or	r18, r24
     718:	39 2b       	or	r19, r25
     71a:	4a 2b       	or	r20, r26
     71c:	5b 2b       	or	r21, r27
     71e:	ea 18       	sub	r14, r10
     720:	fb 08       	sbc	r15, r11
     722:	0c 09       	sbc	r16, r12
     724:	1d 09       	sbc	r17, r13
     726:	b6 95       	lsr	r27
     728:	a7 95       	ror	r26
     72a:	97 95       	ror	r25
     72c:	87 95       	ror	r24
     72e:	ee 0c       	add	r14, r14
     730:	ff 1c       	adc	r15, r15
     732:	00 1f       	adc	r16, r16
     734:	11 1f       	adc	r17, r17
     736:	6f 5f       	subi	r22, 0xFF	; 255
     738:	7f 4f       	sbci	r23, 0xFF	; 255
     73a:	6f 31       	cpi	r22, 0x1F	; 31
     73c:	71 05       	cpc	r23, r1
     73e:	31 f7       	brne	.-52     	; 0x70c <__divsf3+0xda>
     740:	da 01       	movw	r26, r20
     742:	c9 01       	movw	r24, r18
     744:	8f 77       	andi	r24, 0x7F	; 127
     746:	90 70       	andi	r25, 0x00	; 0
     748:	a0 70       	andi	r26, 0x00	; 0
     74a:	b0 70       	andi	r27, 0x00	; 0
     74c:	80 34       	cpi	r24, 0x40	; 64
     74e:	91 05       	cpc	r25, r1
     750:	a1 05       	cpc	r26, r1
     752:	b1 05       	cpc	r27, r1
     754:	61 f4       	brne	.+24     	; 0x76e <__divsf3+0x13c>
     756:	27 fd       	sbrc	r18, 7
     758:	0a c0       	rjmp	.+20     	; 0x76e <__divsf3+0x13c>
     75a:	e1 14       	cp	r14, r1
     75c:	f1 04       	cpc	r15, r1
     75e:	01 05       	cpc	r16, r1
     760:	11 05       	cpc	r17, r1
     762:	29 f0       	breq	.+10     	; 0x76e <__divsf3+0x13c>
     764:	20 5c       	subi	r18, 0xC0	; 192
     766:	3f 4f       	sbci	r19, 0xFF	; 255
     768:	4f 4f       	sbci	r20, 0xFF	; 255
     76a:	5f 4f       	sbci	r21, 0xFF	; 255
     76c:	20 78       	andi	r18, 0x80	; 128
     76e:	2d 87       	std	Y+13, r18	; 0x0d
     770:	3e 87       	std	Y+14, r19	; 0x0e
     772:	4f 87       	std	Y+15, r20	; 0x0f
     774:	58 8b       	std	Y+16, r21	; 0x10
     776:	be 01       	movw	r22, r28
     778:	67 5f       	subi	r22, 0xF7	; 247
     77a:	7f 4f       	sbci	r23, 0xFF	; 255
     77c:	cb 01       	movw	r24, r22
     77e:	0e 94 71 05 	call	0xae2	; 0xae2 <__pack_f>
     782:	68 96       	adiw	r28, 0x18	; 24
     784:	ea e0       	ldi	r30, 0x0A	; 10
     786:	0c 94 7c 3d 	jmp	0x7af8	; 0x7af8 <__epilogue_restores__+0x10>

0000078a <__gtsf2>:
     78a:	a8 e1       	ldi	r26, 0x18	; 24
     78c:	b0 e0       	ldi	r27, 0x00	; 0
     78e:	eb ec       	ldi	r30, 0xCB	; 203
     790:	f3 e0       	ldi	r31, 0x03	; 3
     792:	0c 94 64 3d 	jmp	0x7ac8	; 0x7ac8 <__prologue_saves__+0x18>
     796:	69 83       	std	Y+1, r22	; 0x01
     798:	7a 83       	std	Y+2, r23	; 0x02
     79a:	8b 83       	std	Y+3, r24	; 0x03
     79c:	9c 83       	std	Y+4, r25	; 0x04
     79e:	2d 83       	std	Y+5, r18	; 0x05
     7a0:	3e 83       	std	Y+6, r19	; 0x06
     7a2:	4f 83       	std	Y+7, r20	; 0x07
     7a4:	58 87       	std	Y+8, r21	; 0x08
     7a6:	89 e0       	ldi	r24, 0x09	; 9
     7a8:	e8 2e       	mov	r14, r24
     7aa:	f1 2c       	mov	r15, r1
     7ac:	ec 0e       	add	r14, r28
     7ae:	fd 1e       	adc	r15, r29
     7b0:	ce 01       	movw	r24, r28
     7b2:	01 96       	adiw	r24, 0x01	; 1
     7b4:	b7 01       	movw	r22, r14
     7b6:	0e 94 46 06 	call	0xc8c	; 0xc8c <__unpack_f>
     7ba:	8e 01       	movw	r16, r28
     7bc:	0f 5e       	subi	r16, 0xEF	; 239
     7be:	1f 4f       	sbci	r17, 0xFF	; 255
     7c0:	ce 01       	movw	r24, r28
     7c2:	05 96       	adiw	r24, 0x05	; 5
     7c4:	b8 01       	movw	r22, r16
     7c6:	0e 94 46 06 	call	0xc8c	; 0xc8c <__unpack_f>
     7ca:	89 85       	ldd	r24, Y+9	; 0x09
     7cc:	82 30       	cpi	r24, 0x02	; 2
     7ce:	40 f0       	brcs	.+16     	; 0x7e0 <__gtsf2+0x56>
     7d0:	89 89       	ldd	r24, Y+17	; 0x11
     7d2:	82 30       	cpi	r24, 0x02	; 2
     7d4:	28 f0       	brcs	.+10     	; 0x7e0 <__gtsf2+0x56>
     7d6:	c7 01       	movw	r24, r14
     7d8:	b8 01       	movw	r22, r16
     7da:	0e 94 be 06 	call	0xd7c	; 0xd7c <__fpcmp_parts_f>
     7de:	01 c0       	rjmp	.+2      	; 0x7e2 <__gtsf2+0x58>
     7e0:	8f ef       	ldi	r24, 0xFF	; 255
     7e2:	68 96       	adiw	r28, 0x18	; 24
     7e4:	e6 e0       	ldi	r30, 0x06	; 6
     7e6:	0c 94 80 3d 	jmp	0x7b00	; 0x7b00 <__epilogue_restores__+0x18>

000007ea <__gesf2>:
     7ea:	a8 e1       	ldi	r26, 0x18	; 24
     7ec:	b0 e0       	ldi	r27, 0x00	; 0
     7ee:	eb ef       	ldi	r30, 0xFB	; 251
     7f0:	f3 e0       	ldi	r31, 0x03	; 3
     7f2:	0c 94 64 3d 	jmp	0x7ac8	; 0x7ac8 <__prologue_saves__+0x18>
     7f6:	69 83       	std	Y+1, r22	; 0x01
     7f8:	7a 83       	std	Y+2, r23	; 0x02
     7fa:	8b 83       	std	Y+3, r24	; 0x03
     7fc:	9c 83       	std	Y+4, r25	; 0x04
     7fe:	2d 83       	std	Y+5, r18	; 0x05
     800:	3e 83       	std	Y+6, r19	; 0x06
     802:	4f 83       	std	Y+7, r20	; 0x07
     804:	58 87       	std	Y+8, r21	; 0x08
     806:	89 e0       	ldi	r24, 0x09	; 9
     808:	e8 2e       	mov	r14, r24
     80a:	f1 2c       	mov	r15, r1
     80c:	ec 0e       	add	r14, r28
     80e:	fd 1e       	adc	r15, r29
     810:	ce 01       	movw	r24, r28
     812:	01 96       	adiw	r24, 0x01	; 1
     814:	b7 01       	movw	r22, r14
     816:	0e 94 46 06 	call	0xc8c	; 0xc8c <__unpack_f>
     81a:	8e 01       	movw	r16, r28
     81c:	0f 5e       	subi	r16, 0xEF	; 239
     81e:	1f 4f       	sbci	r17, 0xFF	; 255
     820:	ce 01       	movw	r24, r28
     822:	05 96       	adiw	r24, 0x05	; 5
     824:	b8 01       	movw	r22, r16
     826:	0e 94 46 06 	call	0xc8c	; 0xc8c <__unpack_f>
     82a:	89 85       	ldd	r24, Y+9	; 0x09
     82c:	82 30       	cpi	r24, 0x02	; 2
     82e:	40 f0       	brcs	.+16     	; 0x840 <__gesf2+0x56>
     830:	89 89       	ldd	r24, Y+17	; 0x11
     832:	82 30       	cpi	r24, 0x02	; 2
     834:	28 f0       	brcs	.+10     	; 0x840 <__gesf2+0x56>
     836:	c7 01       	movw	r24, r14
     838:	b8 01       	movw	r22, r16
     83a:	0e 94 be 06 	call	0xd7c	; 0xd7c <__fpcmp_parts_f>
     83e:	01 c0       	rjmp	.+2      	; 0x842 <__gesf2+0x58>
     840:	8f ef       	ldi	r24, 0xFF	; 255
     842:	68 96       	adiw	r28, 0x18	; 24
     844:	e6 e0       	ldi	r30, 0x06	; 6
     846:	0c 94 80 3d 	jmp	0x7b00	; 0x7b00 <__epilogue_restores__+0x18>

0000084a <__ltsf2>:
     84a:	a8 e1       	ldi	r26, 0x18	; 24
     84c:	b0 e0       	ldi	r27, 0x00	; 0
     84e:	eb e2       	ldi	r30, 0x2B	; 43
     850:	f4 e0       	ldi	r31, 0x04	; 4
     852:	0c 94 64 3d 	jmp	0x7ac8	; 0x7ac8 <__prologue_saves__+0x18>
     856:	69 83       	std	Y+1, r22	; 0x01
     858:	7a 83       	std	Y+2, r23	; 0x02
     85a:	8b 83       	std	Y+3, r24	; 0x03
     85c:	9c 83       	std	Y+4, r25	; 0x04
     85e:	2d 83       	std	Y+5, r18	; 0x05
     860:	3e 83       	std	Y+6, r19	; 0x06
     862:	4f 83       	std	Y+7, r20	; 0x07
     864:	58 87       	std	Y+8, r21	; 0x08
     866:	89 e0       	ldi	r24, 0x09	; 9
     868:	e8 2e       	mov	r14, r24
     86a:	f1 2c       	mov	r15, r1
     86c:	ec 0e       	add	r14, r28
     86e:	fd 1e       	adc	r15, r29
     870:	ce 01       	movw	r24, r28
     872:	01 96       	adiw	r24, 0x01	; 1
     874:	b7 01       	movw	r22, r14
     876:	0e 94 46 06 	call	0xc8c	; 0xc8c <__unpack_f>
     87a:	8e 01       	movw	r16, r28
     87c:	0f 5e       	subi	r16, 0xEF	; 239
     87e:	1f 4f       	sbci	r17, 0xFF	; 255
     880:	ce 01       	movw	r24, r28
     882:	05 96       	adiw	r24, 0x05	; 5
     884:	b8 01       	movw	r22, r16
     886:	0e 94 46 06 	call	0xc8c	; 0xc8c <__unpack_f>
     88a:	89 85       	ldd	r24, Y+9	; 0x09
     88c:	82 30       	cpi	r24, 0x02	; 2
     88e:	40 f0       	brcs	.+16     	; 0x8a0 <__stack+0x41>
     890:	89 89       	ldd	r24, Y+17	; 0x11
     892:	82 30       	cpi	r24, 0x02	; 2
     894:	28 f0       	brcs	.+10     	; 0x8a0 <__stack+0x41>
     896:	c7 01       	movw	r24, r14
     898:	b8 01       	movw	r22, r16
     89a:	0e 94 be 06 	call	0xd7c	; 0xd7c <__fpcmp_parts_f>
     89e:	01 c0       	rjmp	.+2      	; 0x8a2 <__stack+0x43>
     8a0:	81 e0       	ldi	r24, 0x01	; 1
     8a2:	68 96       	adiw	r28, 0x18	; 24
     8a4:	e6 e0       	ldi	r30, 0x06	; 6
     8a6:	0c 94 80 3d 	jmp	0x7b00	; 0x7b00 <__epilogue_restores__+0x18>

000008aa <__fixsfsi>:
     8aa:	ac e0       	ldi	r26, 0x0C	; 12
     8ac:	b0 e0       	ldi	r27, 0x00	; 0
     8ae:	eb e5       	ldi	r30, 0x5B	; 91
     8b0:	f4 e0       	ldi	r31, 0x04	; 4
     8b2:	0c 94 68 3d 	jmp	0x7ad0	; 0x7ad0 <__prologue_saves__+0x20>
     8b6:	69 83       	std	Y+1, r22	; 0x01
     8b8:	7a 83       	std	Y+2, r23	; 0x02
     8ba:	8b 83       	std	Y+3, r24	; 0x03
     8bc:	9c 83       	std	Y+4, r25	; 0x04
     8be:	ce 01       	movw	r24, r28
     8c0:	01 96       	adiw	r24, 0x01	; 1
     8c2:	be 01       	movw	r22, r28
     8c4:	6b 5f       	subi	r22, 0xFB	; 251
     8c6:	7f 4f       	sbci	r23, 0xFF	; 255
     8c8:	0e 94 46 06 	call	0xc8c	; 0xc8c <__unpack_f>
     8cc:	8d 81       	ldd	r24, Y+5	; 0x05
     8ce:	82 30       	cpi	r24, 0x02	; 2
     8d0:	61 f1       	breq	.+88     	; 0x92a <__fixsfsi+0x80>
     8d2:	82 30       	cpi	r24, 0x02	; 2
     8d4:	50 f1       	brcs	.+84     	; 0x92a <__fixsfsi+0x80>
     8d6:	84 30       	cpi	r24, 0x04	; 4
     8d8:	21 f4       	brne	.+8      	; 0x8e2 <__fixsfsi+0x38>
     8da:	8e 81       	ldd	r24, Y+6	; 0x06
     8dc:	88 23       	and	r24, r24
     8de:	51 f1       	breq	.+84     	; 0x934 <__fixsfsi+0x8a>
     8e0:	2e c0       	rjmp	.+92     	; 0x93e <__fixsfsi+0x94>
     8e2:	2f 81       	ldd	r18, Y+7	; 0x07
     8e4:	38 85       	ldd	r19, Y+8	; 0x08
     8e6:	37 fd       	sbrc	r19, 7
     8e8:	20 c0       	rjmp	.+64     	; 0x92a <__fixsfsi+0x80>
     8ea:	6e 81       	ldd	r22, Y+6	; 0x06
     8ec:	2f 31       	cpi	r18, 0x1F	; 31
     8ee:	31 05       	cpc	r19, r1
     8f0:	1c f0       	brlt	.+6      	; 0x8f8 <__fixsfsi+0x4e>
     8f2:	66 23       	and	r22, r22
     8f4:	f9 f0       	breq	.+62     	; 0x934 <__fixsfsi+0x8a>
     8f6:	23 c0       	rjmp	.+70     	; 0x93e <__fixsfsi+0x94>
     8f8:	8e e1       	ldi	r24, 0x1E	; 30
     8fa:	90 e0       	ldi	r25, 0x00	; 0
     8fc:	82 1b       	sub	r24, r18
     8fe:	93 0b       	sbc	r25, r19
     900:	29 85       	ldd	r18, Y+9	; 0x09
     902:	3a 85       	ldd	r19, Y+10	; 0x0a
     904:	4b 85       	ldd	r20, Y+11	; 0x0b
     906:	5c 85       	ldd	r21, Y+12	; 0x0c
     908:	04 c0       	rjmp	.+8      	; 0x912 <__fixsfsi+0x68>
     90a:	56 95       	lsr	r21
     90c:	47 95       	ror	r20
     90e:	37 95       	ror	r19
     910:	27 95       	ror	r18
     912:	8a 95       	dec	r24
     914:	d2 f7       	brpl	.-12     	; 0x90a <__fixsfsi+0x60>
     916:	66 23       	and	r22, r22
     918:	b1 f0       	breq	.+44     	; 0x946 <__fixsfsi+0x9c>
     91a:	50 95       	com	r21
     91c:	40 95       	com	r20
     91e:	30 95       	com	r19
     920:	21 95       	neg	r18
     922:	3f 4f       	sbci	r19, 0xFF	; 255
     924:	4f 4f       	sbci	r20, 0xFF	; 255
     926:	5f 4f       	sbci	r21, 0xFF	; 255
     928:	0e c0       	rjmp	.+28     	; 0x946 <__fixsfsi+0x9c>
     92a:	20 e0       	ldi	r18, 0x00	; 0
     92c:	30 e0       	ldi	r19, 0x00	; 0
     92e:	40 e0       	ldi	r20, 0x00	; 0
     930:	50 e0       	ldi	r21, 0x00	; 0
     932:	09 c0       	rjmp	.+18     	; 0x946 <__fixsfsi+0x9c>
     934:	2f ef       	ldi	r18, 0xFF	; 255
     936:	3f ef       	ldi	r19, 0xFF	; 255
     938:	4f ef       	ldi	r20, 0xFF	; 255
     93a:	5f e7       	ldi	r21, 0x7F	; 127
     93c:	04 c0       	rjmp	.+8      	; 0x946 <__fixsfsi+0x9c>
     93e:	20 e0       	ldi	r18, 0x00	; 0
     940:	30 e0       	ldi	r19, 0x00	; 0
     942:	40 e0       	ldi	r20, 0x00	; 0
     944:	50 e8       	ldi	r21, 0x80	; 128
     946:	b9 01       	movw	r22, r18
     948:	ca 01       	movw	r24, r20
     94a:	2c 96       	adiw	r28, 0x0c	; 12
     94c:	e2 e0       	ldi	r30, 0x02	; 2
     94e:	0c 94 84 3d 	jmp	0x7b08	; 0x7b08 <__epilogue_restores__+0x20>

00000952 <__floatunsisf>:
     952:	a8 e0       	ldi	r26, 0x08	; 8
     954:	b0 e0       	ldi	r27, 0x00	; 0
     956:	ef ea       	ldi	r30, 0xAF	; 175
     958:	f4 e0       	ldi	r31, 0x04	; 4
     95a:	0c 94 60 3d 	jmp	0x7ac0	; 0x7ac0 <__prologue_saves__+0x10>
     95e:	7b 01       	movw	r14, r22
     960:	8c 01       	movw	r16, r24
     962:	61 15       	cp	r22, r1
     964:	71 05       	cpc	r23, r1
     966:	81 05       	cpc	r24, r1
     968:	91 05       	cpc	r25, r1
     96a:	19 f4       	brne	.+6      	; 0x972 <__floatunsisf+0x20>
     96c:	82 e0       	ldi	r24, 0x02	; 2
     96e:	89 83       	std	Y+1, r24	; 0x01
     970:	60 c0       	rjmp	.+192    	; 0xa32 <__floatunsisf+0xe0>
     972:	83 e0       	ldi	r24, 0x03	; 3
     974:	89 83       	std	Y+1, r24	; 0x01
     976:	8e e1       	ldi	r24, 0x1E	; 30
     978:	c8 2e       	mov	r12, r24
     97a:	d1 2c       	mov	r13, r1
     97c:	dc 82       	std	Y+4, r13	; 0x04
     97e:	cb 82       	std	Y+3, r12	; 0x03
     980:	ed 82       	std	Y+5, r14	; 0x05
     982:	fe 82       	std	Y+6, r15	; 0x06
     984:	0f 83       	std	Y+7, r16	; 0x07
     986:	18 87       	std	Y+8, r17	; 0x08
     988:	c8 01       	movw	r24, r16
     98a:	b7 01       	movw	r22, r14
     98c:	0e 94 22 05 	call	0xa44	; 0xa44 <__clzsi2>
     990:	fc 01       	movw	r30, r24
     992:	31 97       	sbiw	r30, 0x01	; 1
     994:	f7 ff       	sbrs	r31, 7
     996:	3b c0       	rjmp	.+118    	; 0xa0e <__floatunsisf+0xbc>
     998:	22 27       	eor	r18, r18
     99a:	33 27       	eor	r19, r19
     99c:	2e 1b       	sub	r18, r30
     99e:	3f 0b       	sbc	r19, r31
     9a0:	57 01       	movw	r10, r14
     9a2:	68 01       	movw	r12, r16
     9a4:	02 2e       	mov	r0, r18
     9a6:	04 c0       	rjmp	.+8      	; 0x9b0 <__floatunsisf+0x5e>
     9a8:	d6 94       	lsr	r13
     9aa:	c7 94       	ror	r12
     9ac:	b7 94       	ror	r11
     9ae:	a7 94       	ror	r10
     9b0:	0a 94       	dec	r0
     9b2:	d2 f7       	brpl	.-12     	; 0x9a8 <__floatunsisf+0x56>
     9b4:	40 e0       	ldi	r20, 0x00	; 0
     9b6:	50 e0       	ldi	r21, 0x00	; 0
     9b8:	60 e0       	ldi	r22, 0x00	; 0
     9ba:	70 e0       	ldi	r23, 0x00	; 0
     9bc:	81 e0       	ldi	r24, 0x01	; 1
     9be:	90 e0       	ldi	r25, 0x00	; 0
     9c0:	a0 e0       	ldi	r26, 0x00	; 0
     9c2:	b0 e0       	ldi	r27, 0x00	; 0
     9c4:	04 c0       	rjmp	.+8      	; 0x9ce <__floatunsisf+0x7c>
     9c6:	88 0f       	add	r24, r24
     9c8:	99 1f       	adc	r25, r25
     9ca:	aa 1f       	adc	r26, r26
     9cc:	bb 1f       	adc	r27, r27
     9ce:	2a 95       	dec	r18
     9d0:	d2 f7       	brpl	.-12     	; 0x9c6 <__floatunsisf+0x74>
     9d2:	01 97       	sbiw	r24, 0x01	; 1
     9d4:	a1 09       	sbc	r26, r1
     9d6:	b1 09       	sbc	r27, r1
     9d8:	8e 21       	and	r24, r14
     9da:	9f 21       	and	r25, r15
     9dc:	a0 23       	and	r26, r16
     9de:	b1 23       	and	r27, r17
     9e0:	00 97       	sbiw	r24, 0x00	; 0
     9e2:	a1 05       	cpc	r26, r1
     9e4:	b1 05       	cpc	r27, r1
     9e6:	21 f0       	breq	.+8      	; 0x9f0 <__floatunsisf+0x9e>
     9e8:	41 e0       	ldi	r20, 0x01	; 1
     9ea:	50 e0       	ldi	r21, 0x00	; 0
     9ec:	60 e0       	ldi	r22, 0x00	; 0
     9ee:	70 e0       	ldi	r23, 0x00	; 0
     9f0:	4a 29       	or	r20, r10
     9f2:	5b 29       	or	r21, r11
     9f4:	6c 29       	or	r22, r12
     9f6:	7d 29       	or	r23, r13
     9f8:	4d 83       	std	Y+5, r20	; 0x05
     9fa:	5e 83       	std	Y+6, r21	; 0x06
     9fc:	6f 83       	std	Y+7, r22	; 0x07
     9fe:	78 87       	std	Y+8, r23	; 0x08
     a00:	8e e1       	ldi	r24, 0x1E	; 30
     a02:	90 e0       	ldi	r25, 0x00	; 0
     a04:	8e 1b       	sub	r24, r30
     a06:	9f 0b       	sbc	r25, r31
     a08:	9c 83       	std	Y+4, r25	; 0x04
     a0a:	8b 83       	std	Y+3, r24	; 0x03
     a0c:	12 c0       	rjmp	.+36     	; 0xa32 <__floatunsisf+0xe0>
     a0e:	30 97       	sbiw	r30, 0x00	; 0
     a10:	81 f0       	breq	.+32     	; 0xa32 <__floatunsisf+0xe0>
     a12:	0e 2e       	mov	r0, r30
     a14:	04 c0       	rjmp	.+8      	; 0xa1e <__floatunsisf+0xcc>
     a16:	ee 0c       	add	r14, r14
     a18:	ff 1c       	adc	r15, r15
     a1a:	00 1f       	adc	r16, r16
     a1c:	11 1f       	adc	r17, r17
     a1e:	0a 94       	dec	r0
     a20:	d2 f7       	brpl	.-12     	; 0xa16 <__floatunsisf+0xc4>
     a22:	ed 82       	std	Y+5, r14	; 0x05
     a24:	fe 82       	std	Y+6, r15	; 0x06
     a26:	0f 83       	std	Y+7, r16	; 0x07
     a28:	18 87       	std	Y+8, r17	; 0x08
     a2a:	ce 1a       	sub	r12, r30
     a2c:	df 0a       	sbc	r13, r31
     a2e:	dc 82       	std	Y+4, r13	; 0x04
     a30:	cb 82       	std	Y+3, r12	; 0x03
     a32:	1a 82       	std	Y+2, r1	; 0x02
     a34:	ce 01       	movw	r24, r28
     a36:	01 96       	adiw	r24, 0x01	; 1
     a38:	0e 94 71 05 	call	0xae2	; 0xae2 <__pack_f>
     a3c:	28 96       	adiw	r28, 0x08	; 8
     a3e:	ea e0       	ldi	r30, 0x0A	; 10
     a40:	0c 94 7c 3d 	jmp	0x7af8	; 0x7af8 <__epilogue_restores__+0x10>

00000a44 <__clzsi2>:
     a44:	ef 92       	push	r14
     a46:	ff 92       	push	r15
     a48:	0f 93       	push	r16
     a4a:	1f 93       	push	r17
     a4c:	7b 01       	movw	r14, r22
     a4e:	8c 01       	movw	r16, r24
     a50:	80 e0       	ldi	r24, 0x00	; 0
     a52:	e8 16       	cp	r14, r24
     a54:	80 e0       	ldi	r24, 0x00	; 0
     a56:	f8 06       	cpc	r15, r24
     a58:	81 e0       	ldi	r24, 0x01	; 1
     a5a:	08 07       	cpc	r16, r24
     a5c:	80 e0       	ldi	r24, 0x00	; 0
     a5e:	18 07       	cpc	r17, r24
     a60:	88 f4       	brcc	.+34     	; 0xa84 <__clzsi2+0x40>
     a62:	8f ef       	ldi	r24, 0xFF	; 255
     a64:	e8 16       	cp	r14, r24
     a66:	f1 04       	cpc	r15, r1
     a68:	01 05       	cpc	r16, r1
     a6a:	11 05       	cpc	r17, r1
     a6c:	31 f0       	breq	.+12     	; 0xa7a <__clzsi2+0x36>
     a6e:	28 f0       	brcs	.+10     	; 0xa7a <__clzsi2+0x36>
     a70:	88 e0       	ldi	r24, 0x08	; 8
     a72:	90 e0       	ldi	r25, 0x00	; 0
     a74:	a0 e0       	ldi	r26, 0x00	; 0
     a76:	b0 e0       	ldi	r27, 0x00	; 0
     a78:	17 c0       	rjmp	.+46     	; 0xaa8 <__clzsi2+0x64>
     a7a:	80 e0       	ldi	r24, 0x00	; 0
     a7c:	90 e0       	ldi	r25, 0x00	; 0
     a7e:	a0 e0       	ldi	r26, 0x00	; 0
     a80:	b0 e0       	ldi	r27, 0x00	; 0
     a82:	12 c0       	rjmp	.+36     	; 0xaa8 <__clzsi2+0x64>
     a84:	80 e0       	ldi	r24, 0x00	; 0
     a86:	e8 16       	cp	r14, r24
     a88:	80 e0       	ldi	r24, 0x00	; 0
     a8a:	f8 06       	cpc	r15, r24
     a8c:	80 e0       	ldi	r24, 0x00	; 0
     a8e:	08 07       	cpc	r16, r24
     a90:	81 e0       	ldi	r24, 0x01	; 1
     a92:	18 07       	cpc	r17, r24
     a94:	28 f0       	brcs	.+10     	; 0xaa0 <__clzsi2+0x5c>
     a96:	88 e1       	ldi	r24, 0x18	; 24
     a98:	90 e0       	ldi	r25, 0x00	; 0
     a9a:	a0 e0       	ldi	r26, 0x00	; 0
     a9c:	b0 e0       	ldi	r27, 0x00	; 0
     a9e:	04 c0       	rjmp	.+8      	; 0xaa8 <__clzsi2+0x64>
     aa0:	80 e1       	ldi	r24, 0x10	; 16
     aa2:	90 e0       	ldi	r25, 0x00	; 0
     aa4:	a0 e0       	ldi	r26, 0x00	; 0
     aa6:	b0 e0       	ldi	r27, 0x00	; 0
     aa8:	20 e2       	ldi	r18, 0x20	; 32
     aaa:	30 e0       	ldi	r19, 0x00	; 0
     aac:	40 e0       	ldi	r20, 0x00	; 0
     aae:	50 e0       	ldi	r21, 0x00	; 0
     ab0:	28 1b       	sub	r18, r24
     ab2:	39 0b       	sbc	r19, r25
     ab4:	4a 0b       	sbc	r20, r26
     ab6:	5b 0b       	sbc	r21, r27
     ab8:	04 c0       	rjmp	.+8      	; 0xac2 <__clzsi2+0x7e>
     aba:	16 95       	lsr	r17
     abc:	07 95       	ror	r16
     abe:	f7 94       	ror	r15
     ac0:	e7 94       	ror	r14
     ac2:	8a 95       	dec	r24
     ac4:	d2 f7       	brpl	.-12     	; 0xaba <__clzsi2+0x76>
     ac6:	f7 01       	movw	r30, r14
     ac8:	e4 52       	subi	r30, 0x24	; 36
     aca:	fe 4f       	sbci	r31, 0xFE	; 254
     acc:	80 81       	ld	r24, Z
     ace:	28 1b       	sub	r18, r24
     ad0:	31 09       	sbc	r19, r1
     ad2:	41 09       	sbc	r20, r1
     ad4:	51 09       	sbc	r21, r1
     ad6:	c9 01       	movw	r24, r18
     ad8:	1f 91       	pop	r17
     ada:	0f 91       	pop	r16
     adc:	ff 90       	pop	r15
     ade:	ef 90       	pop	r14
     ae0:	08 95       	ret

00000ae2 <__pack_f>:
     ae2:	df 92       	push	r13
     ae4:	ef 92       	push	r14
     ae6:	ff 92       	push	r15
     ae8:	0f 93       	push	r16
     aea:	1f 93       	push	r17
     aec:	fc 01       	movw	r30, r24
     aee:	e4 80       	ldd	r14, Z+4	; 0x04
     af0:	f5 80       	ldd	r15, Z+5	; 0x05
     af2:	06 81       	ldd	r16, Z+6	; 0x06
     af4:	17 81       	ldd	r17, Z+7	; 0x07
     af6:	d1 80       	ldd	r13, Z+1	; 0x01
     af8:	80 81       	ld	r24, Z
     afa:	82 30       	cpi	r24, 0x02	; 2
     afc:	48 f4       	brcc	.+18     	; 0xb10 <__pack_f+0x2e>
     afe:	80 e0       	ldi	r24, 0x00	; 0
     b00:	90 e0       	ldi	r25, 0x00	; 0
     b02:	a0 e1       	ldi	r26, 0x10	; 16
     b04:	b0 e0       	ldi	r27, 0x00	; 0
     b06:	e8 2a       	or	r14, r24
     b08:	f9 2a       	or	r15, r25
     b0a:	0a 2b       	or	r16, r26
     b0c:	1b 2b       	or	r17, r27
     b0e:	a5 c0       	rjmp	.+330    	; 0xc5a <__pack_f+0x178>
     b10:	84 30       	cpi	r24, 0x04	; 4
     b12:	09 f4       	brne	.+2      	; 0xb16 <__pack_f+0x34>
     b14:	9f c0       	rjmp	.+318    	; 0xc54 <__pack_f+0x172>
     b16:	82 30       	cpi	r24, 0x02	; 2
     b18:	21 f4       	brne	.+8      	; 0xb22 <__pack_f+0x40>
     b1a:	ee 24       	eor	r14, r14
     b1c:	ff 24       	eor	r15, r15
     b1e:	87 01       	movw	r16, r14
     b20:	05 c0       	rjmp	.+10     	; 0xb2c <__pack_f+0x4a>
     b22:	e1 14       	cp	r14, r1
     b24:	f1 04       	cpc	r15, r1
     b26:	01 05       	cpc	r16, r1
     b28:	11 05       	cpc	r17, r1
     b2a:	19 f4       	brne	.+6      	; 0xb32 <__pack_f+0x50>
     b2c:	e0 e0       	ldi	r30, 0x00	; 0
     b2e:	f0 e0       	ldi	r31, 0x00	; 0
     b30:	96 c0       	rjmp	.+300    	; 0xc5e <__pack_f+0x17c>
     b32:	62 81       	ldd	r22, Z+2	; 0x02
     b34:	73 81       	ldd	r23, Z+3	; 0x03
     b36:	9f ef       	ldi	r25, 0xFF	; 255
     b38:	62 38       	cpi	r22, 0x82	; 130
     b3a:	79 07       	cpc	r23, r25
     b3c:	0c f0       	brlt	.+2      	; 0xb40 <__pack_f+0x5e>
     b3e:	5b c0       	rjmp	.+182    	; 0xbf6 <__pack_f+0x114>
     b40:	22 e8       	ldi	r18, 0x82	; 130
     b42:	3f ef       	ldi	r19, 0xFF	; 255
     b44:	26 1b       	sub	r18, r22
     b46:	37 0b       	sbc	r19, r23
     b48:	2a 31       	cpi	r18, 0x1A	; 26
     b4a:	31 05       	cpc	r19, r1
     b4c:	2c f0       	brlt	.+10     	; 0xb58 <__pack_f+0x76>
     b4e:	20 e0       	ldi	r18, 0x00	; 0
     b50:	30 e0       	ldi	r19, 0x00	; 0
     b52:	40 e0       	ldi	r20, 0x00	; 0
     b54:	50 e0       	ldi	r21, 0x00	; 0
     b56:	2a c0       	rjmp	.+84     	; 0xbac <__pack_f+0xca>
     b58:	b8 01       	movw	r22, r16
     b5a:	a7 01       	movw	r20, r14
     b5c:	02 2e       	mov	r0, r18
     b5e:	04 c0       	rjmp	.+8      	; 0xb68 <__pack_f+0x86>
     b60:	76 95       	lsr	r23
     b62:	67 95       	ror	r22
     b64:	57 95       	ror	r21
     b66:	47 95       	ror	r20
     b68:	0a 94       	dec	r0
     b6a:	d2 f7       	brpl	.-12     	; 0xb60 <__pack_f+0x7e>
     b6c:	81 e0       	ldi	r24, 0x01	; 1
     b6e:	90 e0       	ldi	r25, 0x00	; 0
     b70:	a0 e0       	ldi	r26, 0x00	; 0
     b72:	b0 e0       	ldi	r27, 0x00	; 0
     b74:	04 c0       	rjmp	.+8      	; 0xb7e <__pack_f+0x9c>
     b76:	88 0f       	add	r24, r24
     b78:	99 1f       	adc	r25, r25
     b7a:	aa 1f       	adc	r26, r26
     b7c:	bb 1f       	adc	r27, r27
     b7e:	2a 95       	dec	r18
     b80:	d2 f7       	brpl	.-12     	; 0xb76 <__pack_f+0x94>
     b82:	01 97       	sbiw	r24, 0x01	; 1
     b84:	a1 09       	sbc	r26, r1
     b86:	b1 09       	sbc	r27, r1
     b88:	8e 21       	and	r24, r14
     b8a:	9f 21       	and	r25, r15
     b8c:	a0 23       	and	r26, r16
     b8e:	b1 23       	and	r27, r17
     b90:	00 97       	sbiw	r24, 0x00	; 0
     b92:	a1 05       	cpc	r26, r1
     b94:	b1 05       	cpc	r27, r1
     b96:	21 f0       	breq	.+8      	; 0xba0 <__pack_f+0xbe>
     b98:	81 e0       	ldi	r24, 0x01	; 1
     b9a:	90 e0       	ldi	r25, 0x00	; 0
     b9c:	a0 e0       	ldi	r26, 0x00	; 0
     b9e:	b0 e0       	ldi	r27, 0x00	; 0
     ba0:	9a 01       	movw	r18, r20
     ba2:	ab 01       	movw	r20, r22
     ba4:	28 2b       	or	r18, r24
     ba6:	39 2b       	or	r19, r25
     ba8:	4a 2b       	or	r20, r26
     baa:	5b 2b       	or	r21, r27
     bac:	da 01       	movw	r26, r20
     bae:	c9 01       	movw	r24, r18
     bb0:	8f 77       	andi	r24, 0x7F	; 127
     bb2:	90 70       	andi	r25, 0x00	; 0
     bb4:	a0 70       	andi	r26, 0x00	; 0
     bb6:	b0 70       	andi	r27, 0x00	; 0
     bb8:	80 34       	cpi	r24, 0x40	; 64
     bba:	91 05       	cpc	r25, r1
     bbc:	a1 05       	cpc	r26, r1
     bbe:	b1 05       	cpc	r27, r1
     bc0:	39 f4       	brne	.+14     	; 0xbd0 <__pack_f+0xee>
     bc2:	27 ff       	sbrs	r18, 7
     bc4:	09 c0       	rjmp	.+18     	; 0xbd8 <__pack_f+0xf6>
     bc6:	20 5c       	subi	r18, 0xC0	; 192
     bc8:	3f 4f       	sbci	r19, 0xFF	; 255
     bca:	4f 4f       	sbci	r20, 0xFF	; 255
     bcc:	5f 4f       	sbci	r21, 0xFF	; 255
     bce:	04 c0       	rjmp	.+8      	; 0xbd8 <__pack_f+0xf6>
     bd0:	21 5c       	subi	r18, 0xC1	; 193
     bd2:	3f 4f       	sbci	r19, 0xFF	; 255
     bd4:	4f 4f       	sbci	r20, 0xFF	; 255
     bd6:	5f 4f       	sbci	r21, 0xFF	; 255
     bd8:	e0 e0       	ldi	r30, 0x00	; 0
     bda:	f0 e0       	ldi	r31, 0x00	; 0
     bdc:	20 30       	cpi	r18, 0x00	; 0
     bde:	a0 e0       	ldi	r26, 0x00	; 0
     be0:	3a 07       	cpc	r19, r26
     be2:	a0 e0       	ldi	r26, 0x00	; 0
     be4:	4a 07       	cpc	r20, r26
     be6:	a0 e4       	ldi	r26, 0x40	; 64
     be8:	5a 07       	cpc	r21, r26
     bea:	10 f0       	brcs	.+4      	; 0xbf0 <__pack_f+0x10e>
     bec:	e1 e0       	ldi	r30, 0x01	; 1
     bee:	f0 e0       	ldi	r31, 0x00	; 0
     bf0:	79 01       	movw	r14, r18
     bf2:	8a 01       	movw	r16, r20
     bf4:	27 c0       	rjmp	.+78     	; 0xc44 <__pack_f+0x162>
     bf6:	60 38       	cpi	r22, 0x80	; 128
     bf8:	71 05       	cpc	r23, r1
     bfa:	64 f5       	brge	.+88     	; 0xc54 <__pack_f+0x172>
     bfc:	fb 01       	movw	r30, r22
     bfe:	e1 58       	subi	r30, 0x81	; 129
     c00:	ff 4f       	sbci	r31, 0xFF	; 255
     c02:	d8 01       	movw	r26, r16
     c04:	c7 01       	movw	r24, r14
     c06:	8f 77       	andi	r24, 0x7F	; 127
     c08:	90 70       	andi	r25, 0x00	; 0
     c0a:	a0 70       	andi	r26, 0x00	; 0
     c0c:	b0 70       	andi	r27, 0x00	; 0
     c0e:	80 34       	cpi	r24, 0x40	; 64
     c10:	91 05       	cpc	r25, r1
     c12:	a1 05       	cpc	r26, r1
     c14:	b1 05       	cpc	r27, r1
     c16:	39 f4       	brne	.+14     	; 0xc26 <__pack_f+0x144>
     c18:	e7 fe       	sbrs	r14, 7
     c1a:	0d c0       	rjmp	.+26     	; 0xc36 <__pack_f+0x154>
     c1c:	80 e4       	ldi	r24, 0x40	; 64
     c1e:	90 e0       	ldi	r25, 0x00	; 0
     c20:	a0 e0       	ldi	r26, 0x00	; 0
     c22:	b0 e0       	ldi	r27, 0x00	; 0
     c24:	04 c0       	rjmp	.+8      	; 0xc2e <__pack_f+0x14c>
     c26:	8f e3       	ldi	r24, 0x3F	; 63
     c28:	90 e0       	ldi	r25, 0x00	; 0
     c2a:	a0 e0       	ldi	r26, 0x00	; 0
     c2c:	b0 e0       	ldi	r27, 0x00	; 0
     c2e:	e8 0e       	add	r14, r24
     c30:	f9 1e       	adc	r15, r25
     c32:	0a 1f       	adc	r16, r26
     c34:	1b 1f       	adc	r17, r27
     c36:	17 ff       	sbrs	r17, 7
     c38:	05 c0       	rjmp	.+10     	; 0xc44 <__pack_f+0x162>
     c3a:	16 95       	lsr	r17
     c3c:	07 95       	ror	r16
     c3e:	f7 94       	ror	r15
     c40:	e7 94       	ror	r14
     c42:	31 96       	adiw	r30, 0x01	; 1
     c44:	87 e0       	ldi	r24, 0x07	; 7
     c46:	16 95       	lsr	r17
     c48:	07 95       	ror	r16
     c4a:	f7 94       	ror	r15
     c4c:	e7 94       	ror	r14
     c4e:	8a 95       	dec	r24
     c50:	d1 f7       	brne	.-12     	; 0xc46 <__pack_f+0x164>
     c52:	05 c0       	rjmp	.+10     	; 0xc5e <__pack_f+0x17c>
     c54:	ee 24       	eor	r14, r14
     c56:	ff 24       	eor	r15, r15
     c58:	87 01       	movw	r16, r14
     c5a:	ef ef       	ldi	r30, 0xFF	; 255
     c5c:	f0 e0       	ldi	r31, 0x00	; 0
     c5e:	6e 2f       	mov	r22, r30
     c60:	67 95       	ror	r22
     c62:	66 27       	eor	r22, r22
     c64:	67 95       	ror	r22
     c66:	90 2f       	mov	r25, r16
     c68:	9f 77       	andi	r25, 0x7F	; 127
     c6a:	d7 94       	ror	r13
     c6c:	dd 24       	eor	r13, r13
     c6e:	d7 94       	ror	r13
     c70:	8e 2f       	mov	r24, r30
     c72:	86 95       	lsr	r24
     c74:	49 2f       	mov	r20, r25
     c76:	46 2b       	or	r20, r22
     c78:	58 2f       	mov	r21, r24
     c7a:	5d 29       	or	r21, r13
     c7c:	b7 01       	movw	r22, r14
     c7e:	ca 01       	movw	r24, r20
     c80:	1f 91       	pop	r17
     c82:	0f 91       	pop	r16
     c84:	ff 90       	pop	r15
     c86:	ef 90       	pop	r14
     c88:	df 90       	pop	r13
     c8a:	08 95       	ret

00000c8c <__unpack_f>:
     c8c:	fc 01       	movw	r30, r24
     c8e:	db 01       	movw	r26, r22
     c90:	40 81       	ld	r20, Z
     c92:	51 81       	ldd	r21, Z+1	; 0x01
     c94:	22 81       	ldd	r18, Z+2	; 0x02
     c96:	62 2f       	mov	r22, r18
     c98:	6f 77       	andi	r22, 0x7F	; 127
     c9a:	70 e0       	ldi	r23, 0x00	; 0
     c9c:	22 1f       	adc	r18, r18
     c9e:	22 27       	eor	r18, r18
     ca0:	22 1f       	adc	r18, r18
     ca2:	93 81       	ldd	r25, Z+3	; 0x03
     ca4:	89 2f       	mov	r24, r25
     ca6:	88 0f       	add	r24, r24
     ca8:	82 2b       	or	r24, r18
     caa:	28 2f       	mov	r18, r24
     cac:	30 e0       	ldi	r19, 0x00	; 0
     cae:	99 1f       	adc	r25, r25
     cb0:	99 27       	eor	r25, r25
     cb2:	99 1f       	adc	r25, r25
     cb4:	11 96       	adiw	r26, 0x01	; 1
     cb6:	9c 93       	st	X, r25
     cb8:	11 97       	sbiw	r26, 0x01	; 1
     cba:	21 15       	cp	r18, r1
     cbc:	31 05       	cpc	r19, r1
     cbe:	a9 f5       	brne	.+106    	; 0xd2a <__unpack_f+0x9e>
     cc0:	41 15       	cp	r20, r1
     cc2:	51 05       	cpc	r21, r1
     cc4:	61 05       	cpc	r22, r1
     cc6:	71 05       	cpc	r23, r1
     cc8:	11 f4       	brne	.+4      	; 0xcce <__unpack_f+0x42>
     cca:	82 e0       	ldi	r24, 0x02	; 2
     ccc:	37 c0       	rjmp	.+110    	; 0xd3c <__unpack_f+0xb0>
     cce:	82 e8       	ldi	r24, 0x82	; 130
     cd0:	9f ef       	ldi	r25, 0xFF	; 255
     cd2:	13 96       	adiw	r26, 0x03	; 3
     cd4:	9c 93       	st	X, r25
     cd6:	8e 93       	st	-X, r24
     cd8:	12 97       	sbiw	r26, 0x02	; 2
     cda:	9a 01       	movw	r18, r20
     cdc:	ab 01       	movw	r20, r22
     cde:	67 e0       	ldi	r22, 0x07	; 7
     ce0:	22 0f       	add	r18, r18
     ce2:	33 1f       	adc	r19, r19
     ce4:	44 1f       	adc	r20, r20
     ce6:	55 1f       	adc	r21, r21
     ce8:	6a 95       	dec	r22
     cea:	d1 f7       	brne	.-12     	; 0xce0 <__unpack_f+0x54>
     cec:	83 e0       	ldi	r24, 0x03	; 3
     cee:	8c 93       	st	X, r24
     cf0:	0d c0       	rjmp	.+26     	; 0xd0c <__unpack_f+0x80>
     cf2:	22 0f       	add	r18, r18
     cf4:	33 1f       	adc	r19, r19
     cf6:	44 1f       	adc	r20, r20
     cf8:	55 1f       	adc	r21, r21
     cfa:	12 96       	adiw	r26, 0x02	; 2
     cfc:	8d 91       	ld	r24, X+
     cfe:	9c 91       	ld	r25, X
     d00:	13 97       	sbiw	r26, 0x03	; 3
     d02:	01 97       	sbiw	r24, 0x01	; 1
     d04:	13 96       	adiw	r26, 0x03	; 3
     d06:	9c 93       	st	X, r25
     d08:	8e 93       	st	-X, r24
     d0a:	12 97       	sbiw	r26, 0x02	; 2
     d0c:	20 30       	cpi	r18, 0x00	; 0
     d0e:	80 e0       	ldi	r24, 0x00	; 0
     d10:	38 07       	cpc	r19, r24
     d12:	80 e0       	ldi	r24, 0x00	; 0
     d14:	48 07       	cpc	r20, r24
     d16:	80 e4       	ldi	r24, 0x40	; 64
     d18:	58 07       	cpc	r21, r24
     d1a:	58 f3       	brcs	.-42     	; 0xcf2 <__unpack_f+0x66>
     d1c:	14 96       	adiw	r26, 0x04	; 4
     d1e:	2d 93       	st	X+, r18
     d20:	3d 93       	st	X+, r19
     d22:	4d 93       	st	X+, r20
     d24:	5c 93       	st	X, r21
     d26:	17 97       	sbiw	r26, 0x07	; 7
     d28:	08 95       	ret
     d2a:	2f 3f       	cpi	r18, 0xFF	; 255
     d2c:	31 05       	cpc	r19, r1
     d2e:	79 f4       	brne	.+30     	; 0xd4e <__unpack_f+0xc2>
     d30:	41 15       	cp	r20, r1
     d32:	51 05       	cpc	r21, r1
     d34:	61 05       	cpc	r22, r1
     d36:	71 05       	cpc	r23, r1
     d38:	19 f4       	brne	.+6      	; 0xd40 <__unpack_f+0xb4>
     d3a:	84 e0       	ldi	r24, 0x04	; 4
     d3c:	8c 93       	st	X, r24
     d3e:	08 95       	ret
     d40:	64 ff       	sbrs	r22, 4
     d42:	03 c0       	rjmp	.+6      	; 0xd4a <__unpack_f+0xbe>
     d44:	81 e0       	ldi	r24, 0x01	; 1
     d46:	8c 93       	st	X, r24
     d48:	12 c0       	rjmp	.+36     	; 0xd6e <__unpack_f+0xe2>
     d4a:	1c 92       	st	X, r1
     d4c:	10 c0       	rjmp	.+32     	; 0xd6e <__unpack_f+0xe2>
     d4e:	2f 57       	subi	r18, 0x7F	; 127
     d50:	30 40       	sbci	r19, 0x00	; 0
     d52:	13 96       	adiw	r26, 0x03	; 3
     d54:	3c 93       	st	X, r19
     d56:	2e 93       	st	-X, r18
     d58:	12 97       	sbiw	r26, 0x02	; 2
     d5a:	83 e0       	ldi	r24, 0x03	; 3
     d5c:	8c 93       	st	X, r24
     d5e:	87 e0       	ldi	r24, 0x07	; 7
     d60:	44 0f       	add	r20, r20
     d62:	55 1f       	adc	r21, r21
     d64:	66 1f       	adc	r22, r22
     d66:	77 1f       	adc	r23, r23
     d68:	8a 95       	dec	r24
     d6a:	d1 f7       	brne	.-12     	; 0xd60 <__unpack_f+0xd4>
     d6c:	70 64       	ori	r23, 0x40	; 64
     d6e:	14 96       	adiw	r26, 0x04	; 4
     d70:	4d 93       	st	X+, r20
     d72:	5d 93       	st	X+, r21
     d74:	6d 93       	st	X+, r22
     d76:	7c 93       	st	X, r23
     d78:	17 97       	sbiw	r26, 0x07	; 7
     d7a:	08 95       	ret

00000d7c <__fpcmp_parts_f>:
     d7c:	1f 93       	push	r17
     d7e:	dc 01       	movw	r26, r24
     d80:	fb 01       	movw	r30, r22
     d82:	9c 91       	ld	r25, X
     d84:	92 30       	cpi	r25, 0x02	; 2
     d86:	08 f4       	brcc	.+2      	; 0xd8a <__fpcmp_parts_f+0xe>
     d88:	47 c0       	rjmp	.+142    	; 0xe18 <__fpcmp_parts_f+0x9c>
     d8a:	80 81       	ld	r24, Z
     d8c:	82 30       	cpi	r24, 0x02	; 2
     d8e:	08 f4       	brcc	.+2      	; 0xd92 <__fpcmp_parts_f+0x16>
     d90:	43 c0       	rjmp	.+134    	; 0xe18 <__fpcmp_parts_f+0x9c>
     d92:	94 30       	cpi	r25, 0x04	; 4
     d94:	51 f4       	brne	.+20     	; 0xdaa <__fpcmp_parts_f+0x2e>
     d96:	11 96       	adiw	r26, 0x01	; 1
     d98:	1c 91       	ld	r17, X
     d9a:	84 30       	cpi	r24, 0x04	; 4
     d9c:	99 f5       	brne	.+102    	; 0xe04 <__fpcmp_parts_f+0x88>
     d9e:	81 81       	ldd	r24, Z+1	; 0x01
     da0:	68 2f       	mov	r22, r24
     da2:	70 e0       	ldi	r23, 0x00	; 0
     da4:	61 1b       	sub	r22, r17
     da6:	71 09       	sbc	r23, r1
     da8:	3f c0       	rjmp	.+126    	; 0xe28 <__fpcmp_parts_f+0xac>
     daa:	84 30       	cpi	r24, 0x04	; 4
     dac:	21 f0       	breq	.+8      	; 0xdb6 <__fpcmp_parts_f+0x3a>
     dae:	92 30       	cpi	r25, 0x02	; 2
     db0:	31 f4       	brne	.+12     	; 0xdbe <__fpcmp_parts_f+0x42>
     db2:	82 30       	cpi	r24, 0x02	; 2
     db4:	b9 f1       	breq	.+110    	; 0xe24 <__fpcmp_parts_f+0xa8>
     db6:	81 81       	ldd	r24, Z+1	; 0x01
     db8:	88 23       	and	r24, r24
     dba:	89 f1       	breq	.+98     	; 0xe1e <__fpcmp_parts_f+0xa2>
     dbc:	2d c0       	rjmp	.+90     	; 0xe18 <__fpcmp_parts_f+0x9c>
     dbe:	11 96       	adiw	r26, 0x01	; 1
     dc0:	1c 91       	ld	r17, X
     dc2:	11 97       	sbiw	r26, 0x01	; 1
     dc4:	82 30       	cpi	r24, 0x02	; 2
     dc6:	f1 f0       	breq	.+60     	; 0xe04 <__fpcmp_parts_f+0x88>
     dc8:	81 81       	ldd	r24, Z+1	; 0x01
     dca:	18 17       	cp	r17, r24
     dcc:	d9 f4       	brne	.+54     	; 0xe04 <__fpcmp_parts_f+0x88>
     dce:	12 96       	adiw	r26, 0x02	; 2
     dd0:	2d 91       	ld	r18, X+
     dd2:	3c 91       	ld	r19, X
     dd4:	13 97       	sbiw	r26, 0x03	; 3
     dd6:	82 81       	ldd	r24, Z+2	; 0x02
     dd8:	93 81       	ldd	r25, Z+3	; 0x03
     dda:	82 17       	cp	r24, r18
     ddc:	93 07       	cpc	r25, r19
     dde:	94 f0       	brlt	.+36     	; 0xe04 <__fpcmp_parts_f+0x88>
     de0:	28 17       	cp	r18, r24
     de2:	39 07       	cpc	r19, r25
     de4:	bc f0       	brlt	.+46     	; 0xe14 <__fpcmp_parts_f+0x98>
     de6:	14 96       	adiw	r26, 0x04	; 4
     de8:	8d 91       	ld	r24, X+
     dea:	9d 91       	ld	r25, X+
     dec:	0d 90       	ld	r0, X+
     dee:	bc 91       	ld	r27, X
     df0:	a0 2d       	mov	r26, r0
     df2:	24 81       	ldd	r18, Z+4	; 0x04
     df4:	35 81       	ldd	r19, Z+5	; 0x05
     df6:	46 81       	ldd	r20, Z+6	; 0x06
     df8:	57 81       	ldd	r21, Z+7	; 0x07
     dfa:	28 17       	cp	r18, r24
     dfc:	39 07       	cpc	r19, r25
     dfe:	4a 07       	cpc	r20, r26
     e00:	5b 07       	cpc	r21, r27
     e02:	18 f4       	brcc	.+6      	; 0xe0a <__fpcmp_parts_f+0x8e>
     e04:	11 23       	and	r17, r17
     e06:	41 f0       	breq	.+16     	; 0xe18 <__fpcmp_parts_f+0x9c>
     e08:	0a c0       	rjmp	.+20     	; 0xe1e <__fpcmp_parts_f+0xa2>
     e0a:	82 17       	cp	r24, r18
     e0c:	93 07       	cpc	r25, r19
     e0e:	a4 07       	cpc	r26, r20
     e10:	b5 07       	cpc	r27, r21
     e12:	40 f4       	brcc	.+16     	; 0xe24 <__fpcmp_parts_f+0xa8>
     e14:	11 23       	and	r17, r17
     e16:	19 f0       	breq	.+6      	; 0xe1e <__fpcmp_parts_f+0xa2>
     e18:	61 e0       	ldi	r22, 0x01	; 1
     e1a:	70 e0       	ldi	r23, 0x00	; 0
     e1c:	05 c0       	rjmp	.+10     	; 0xe28 <__fpcmp_parts_f+0xac>
     e1e:	6f ef       	ldi	r22, 0xFF	; 255
     e20:	7f ef       	ldi	r23, 0xFF	; 255
     e22:	02 c0       	rjmp	.+4      	; 0xe28 <__fpcmp_parts_f+0xac>
     e24:	60 e0       	ldi	r22, 0x00	; 0
     e26:	70 e0       	ldi	r23, 0x00	; 0
     e28:	cb 01       	movw	r24, r22
     e2a:	1f 91       	pop	r17
     e2c:	08 95       	ret

00000e2e <ADC_voidInit>:
static u8 ADC_u8ConversionState;

/***************************************************************************/
/*Function to Initialize ADC*/
void ADC_voidInit(void)
{
     e2e:	df 93       	push	r29
     e30:	cf 93       	push	r28
     e32:	cd b7       	in	r28, 0x3d	; 61
     e34:	de b7       	in	r29, 0x3e	; 62
#if  REFERENCE_SELECTION==VREF_EXT
	CLR_BIT(ADMUX,ADMUX_REFS0);
	CLR_BIT(ADMUX,ADMUX_REFS1);

#elif REFERENCE_SELECTION==VREF_AVCC
	SET_BIT(ADMUX,ADMUX_REFS0);
     e36:	a7 e2       	ldi	r26, 0x27	; 39
     e38:	b0 e0       	ldi	r27, 0x00	; 0
     e3a:	e7 e2       	ldi	r30, 0x27	; 39
     e3c:	f0 e0       	ldi	r31, 0x00	; 0
     e3e:	80 81       	ld	r24, Z
     e40:	80 64       	ori	r24, 0x40	; 64
     e42:	8c 93       	st	X, r24
	CLR_BIT(ADMUX,ADMUX_REFS1);
     e44:	a7 e2       	ldi	r26, 0x27	; 39
     e46:	b0 e0       	ldi	r27, 0x00	; 0
     e48:	e7 e2       	ldi	r30, 0x27	; 39
     e4a:	f0 e0       	ldi	r31, 0x00	; 0
     e4c:	80 81       	ld	r24, Z
     e4e:	8f 77       	andi	r24, 0x7F	; 127
     e50:	8c 93       	st	X, r24
#endif
	/***************************************************************************/
	/*Check ADC Left Adjust Result*/
#if   ADC_RESOLUTION==8
	/*Activate ADLAR*/
	SET_BIT(ADMUX,ADMUX_ADLAR);
     e52:	a7 e2       	ldi	r26, 0x27	; 39
     e54:	b0 e0       	ldi	r27, 0x00	; 0
     e56:	e7 e2       	ldi	r30, 0x27	; 39
     e58:	f0 e0       	ldi	r31, 0x00	; 0
     e5a:	80 81       	ld	r24, Z
     e5c:	80 62       	ori	r24, 0x20	; 32
     e5e:	8c 93       	st	X, r24
#elif  ADC_PRESCALER==DIV_BY_64
	ADCSRA &=ADC_PRESCALER_MASK;
	ADCSRA |=ADC_PRESCALER;

#elif  ADC_PRESCALER==DIV_BY_128
	ADCSRA &=ADC_PRESCALER_MASK;
     e60:	a6 e2       	ldi	r26, 0x26	; 38
     e62:	b0 e0       	ldi	r27, 0x00	; 0
     e64:	e6 e2       	ldi	r30, 0x26	; 38
     e66:	f0 e0       	ldi	r31, 0x00	; 0
     e68:	80 81       	ld	r24, Z
     e6a:	88 7f       	andi	r24, 0xF8	; 248
     e6c:	8c 93       	st	X, r24
	ADCSRA |=ADC_PRESCALER;
     e6e:	a6 e2       	ldi	r26, 0x26	; 38
     e70:	b0 e0       	ldi	r27, 0x00	; 0
     e72:	e6 e2       	ldi	r30, 0x26	; 38
     e74:	f0 e0       	ldi	r31, 0x00	; 0
     e76:	80 81       	ld	r24, Z
     e78:	87 60       	ori	r24, 0x07	; 7
     e7a:	8c 93       	st	X, r24

#endif
	/***************************************************************************/
	/*Check ADC Interrupt */
#if ADC_INTERRUPT==Disabled
	CLR_BIT(ADCSRA,ADCSRA_ADIE);
     e7c:	a6 e2       	ldi	r26, 0x26	; 38
     e7e:	b0 e0       	ldi	r27, 0x00	; 0
     e80:	e6 e2       	ldi	r30, 0x26	; 38
     e82:	f0 e0       	ldi	r31, 0x00	; 0
     e84:	80 81       	ld	r24, Z
     e86:	87 7f       	andi	r24, 0xF7	; 247
     e88:	8c 93       	st	X, r24

#endif
	/***************************************************************************/
	/*Check ADC Auto Trigger */
#if ADC_AUTO_TRIGGER==Disabled
	CLR_BIT(ADCSRA,ADCSRA_ADTE);
     e8a:	a6 e2       	ldi	r26, 0x26	; 38
     e8c:	b0 e0       	ldi	r27, 0x00	; 0
     e8e:	e6 e2       	ldi	r30, 0x26	; 38
     e90:	f0 e0       	ldi	r31, 0x00	; 0
     e92:	80 81       	ld	r24, Z
     e94:	8f 7d       	andi	r24, 0xDF	; 223
     e96:	8c 93       	st	X, r24
	/*Check ADC Enable */
#if ADC_ENABLE==Disabled
	CLR_BIT(ADCSRA,ADCSRA_ADEN);

#elif 	ADC_ENABLE==Enabled
	SET_BIT(ADCSRA,ADCSRA_ADEN);
     e98:	a6 e2       	ldi	r26, 0x26	; 38
     e9a:	b0 e0       	ldi	r27, 0x00	; 0
     e9c:	e6 e2       	ldi	r30, 0x26	; 38
     e9e:	f0 e0       	ldi	r31, 0x00	; 0
     ea0:	80 81       	ld	r24, Z
     ea2:	80 68       	ori	r24, 0x80	; 128
     ea4:	8c 93       	st	X, r24
#else
#error "Wrong ADC_ENABLE Option!"

#endif

}
     ea6:	cf 91       	pop	r28
     ea8:	df 91       	pop	r29
     eaa:	08 95       	ret

00000eac <ADC_u8StartConversionSynch>:

/***************************************************************************/
/*Synchronous Function to Start Conversion */
/*Take care the TimeOut*/
u8 ADC_u8StartConversionSynch(u8 Copy_u8Channel, u16* Copy_pu16ADCReading)
{
     eac:	df 93       	push	r29
     eae:	cf 93       	push	r28
     eb0:	cd b7       	in	r28, 0x3d	; 61
     eb2:	de b7       	in	r29, 0x3e	; 62
     eb4:	28 97       	sbiw	r28, 0x08	; 8
     eb6:	0f b6       	in	r0, 0x3f	; 63
     eb8:	f8 94       	cli
     eba:	de bf       	out	0x3e, r29	; 62
     ebc:	0f be       	out	0x3f, r0	; 63
     ebe:	cd bf       	out	0x3d, r28	; 61
     ec0:	8e 83       	std	Y+6, r24	; 0x06
     ec2:	78 87       	std	Y+8, r23	; 0x08
     ec4:	6f 83       	std	Y+7, r22	; 0x07

	u32 Local_32Counter=0;
     ec6:	1a 82       	std	Y+2, r1	; 0x02
     ec8:	1b 82       	std	Y+3, r1	; 0x03
     eca:	1c 82       	std	Y+4, r1	; 0x04
     ecc:	1d 82       	std	Y+5, r1	; 0x05
	u8 Local_u8ErrorState=OK;
     ece:	19 82       	std	Y+1, r1	; 0x01

	/*This function will work if and only if the BusyState is IDLE*/
	if(ADC_u8BusyState==IDLE)
     ed0:	80 91 dc 02 	lds	r24, 0x02DC
     ed4:	81 30       	cpi	r24, 0x01	; 1
     ed6:	09 f0       	breq	.+2      	; 0xeda <ADC_u8StartConversionSynch+0x2e>
     ed8:	5f c0       	rjmp	.+190    	; 0xf98 <ADC_u8StartConversionSynch+0xec>
	{
		/*ADC is Busy Now!*/
		/*Make ADC Busy in order not to work until being IDLE*/
		ADC_u8BusyState=BUSY;
     eda:	82 e0       	ldi	r24, 0x02	; 2
     edc:	80 93 dc 02 	sts	0x02DC, r24

		/*Bit Masking*/
		/*Clear the MUX Bits in ADMUX register*/
		ADMUX &=ADC_CHANNEL_MUX_MASK;
     ee0:	a7 e2       	ldi	r26, 0x27	; 39
     ee2:	b0 e0       	ldi	r27, 0x00	; 0
     ee4:	e7 e2       	ldi	r30, 0x27	; 39
     ee6:	f0 e0       	ldi	r31, 0x00	; 0
     ee8:	80 81       	ld	r24, Z
     eea:	80 7e       	andi	r24, 0xE0	; 224
     eec:	8c 93       	st	X, r24

		/*Set the required Channel into MUX bits*/
		ADMUX |=Copy_u8Channel;
     eee:	a7 e2       	ldi	r26, 0x27	; 39
     ef0:	b0 e0       	ldi	r27, 0x00	; 0
     ef2:	e7 e2       	ldi	r30, 0x27	; 39
     ef4:	f0 e0       	ldi	r31, 0x00	; 0
     ef6:	90 81       	ld	r25, Z
     ef8:	8e 81       	ldd	r24, Y+6	; 0x06
     efa:	89 2b       	or	r24, r25
     efc:	8c 93       	st	X, r24

		/*Start Conversion*/
		SET_BIT(ADCSRA,ADCSRA_ADSC);
     efe:	a6 e2       	ldi	r26, 0x26	; 38
     f00:	b0 e0       	ldi	r27, 0x00	; 0
     f02:	e6 e2       	ldi	r30, 0x26	; 38
     f04:	f0 e0       	ldi	r31, 0x00	; 0
     f06:	80 81       	ld	r24, Z
     f08:	80 64       	ori	r24, 0x40	; 64
     f0a:	8c 93       	st	X, r24
     f0c:	0b c0       	rjmp	.+22     	; 0xf24 <ADC_u8StartConversionSynch+0x78>

		/*Polling Mode*/
		/*Busy Waiting until the Convrsion Complete Flag is Set or Counter reaching TIMEOUT*/
		while ((GET_BIT(ADCSRA,ADCSRA_ADIF) == 0) && (Local_32Counter != ADC_32TIMEOUT ))
		{
			Local_32Counter++;
     f0e:	8a 81       	ldd	r24, Y+2	; 0x02
     f10:	9b 81       	ldd	r25, Y+3	; 0x03
     f12:	ac 81       	ldd	r26, Y+4	; 0x04
     f14:	bd 81       	ldd	r27, Y+5	; 0x05
     f16:	01 96       	adiw	r24, 0x01	; 1
     f18:	a1 1d       	adc	r26, r1
     f1a:	b1 1d       	adc	r27, r1
     f1c:	8a 83       	std	Y+2, r24	; 0x02
     f1e:	9b 83       	std	Y+3, r25	; 0x03
     f20:	ac 83       	std	Y+4, r26	; 0x04
     f22:	bd 83       	std	Y+5, r27	; 0x05
		/*Start Conversion*/
		SET_BIT(ADCSRA,ADCSRA_ADSC);

		/*Polling Mode*/
		/*Busy Waiting until the Convrsion Complete Flag is Set or Counter reaching TIMEOUT*/
		while ((GET_BIT(ADCSRA,ADCSRA_ADIF) == 0) && (Local_32Counter != ADC_32TIMEOUT ))
     f24:	e6 e2       	ldi	r30, 0x26	; 38
     f26:	f0 e0       	ldi	r31, 0x00	; 0
     f28:	80 81       	ld	r24, Z
     f2a:	82 95       	swap	r24
     f2c:	8f 70       	andi	r24, 0x0F	; 15
     f2e:	88 2f       	mov	r24, r24
     f30:	90 e0       	ldi	r25, 0x00	; 0
     f32:	81 70       	andi	r24, 0x01	; 1
     f34:	90 70       	andi	r25, 0x00	; 0
     f36:	00 97       	sbiw	r24, 0x00	; 0
     f38:	61 f4       	brne	.+24     	; 0xf52 <ADC_u8StartConversionSynch+0xa6>
     f3a:	8a 81       	ldd	r24, Y+2	; 0x02
     f3c:	9b 81       	ldd	r25, Y+3	; 0x03
     f3e:	ac 81       	ldd	r26, Y+4	; 0x04
     f40:	bd 81       	ldd	r27, Y+5	; 0x05
     f42:	80 35       	cpi	r24, 0x50	; 80
     f44:	23 ec       	ldi	r18, 0xC3	; 195
     f46:	92 07       	cpc	r25, r18
     f48:	20 e0       	ldi	r18, 0x00	; 0
     f4a:	a2 07       	cpc	r26, r18
     f4c:	20 e0       	ldi	r18, 0x00	; 0
     f4e:	b2 07       	cpc	r27, r18
     f50:	f1 f6       	brne	.-68     	; 0xf0e <ADC_u8StartConversionSynch+0x62>
		{
			Local_32Counter++;
		}
		if(Local_32Counter == ADC_32TIMEOUT)
     f52:	8a 81       	ldd	r24, Y+2	; 0x02
     f54:	9b 81       	ldd	r25, Y+3	; 0x03
     f56:	ac 81       	ldd	r26, Y+4	; 0x04
     f58:	bd 81       	ldd	r27, Y+5	; 0x05
     f5a:	80 35       	cpi	r24, 0x50	; 80
     f5c:	23 ec       	ldi	r18, 0xC3	; 195
     f5e:	92 07       	cpc	r25, r18
     f60:	20 e0       	ldi	r18, 0x00	; 0
     f62:	a2 07       	cpc	r26, r18
     f64:	20 e0       	ldi	r18, 0x00	; 0
     f66:	b2 07       	cpc	r27, r18
     f68:	19 f4       	brne	.+6      	; 0xf70 <ADC_u8StartConversionSynch+0xc4>
		{
			//Loop is broken because the timeout is reached
			Local_u8ErrorState=NOK;
     f6a:	81 e0       	ldi	r24, 0x01	; 1
     f6c:	89 83       	std	Y+1, r24	; 0x01
     f6e:	16 c0       	rjmp	.+44     	; 0xf9c <ADC_u8StartConversionSynch+0xf0>
		else
		{
			//Loop is broken because flag is raised

			/*Flag Clearing in Polling Mode*/
			SET_BIT(ADCSRA,ADCSRA_ADIF);
     f70:	a6 e2       	ldi	r26, 0x26	; 38
     f72:	b0 e0       	ldi	r27, 0x00	; 0
     f74:	e6 e2       	ldi	r30, 0x26	; 38
     f76:	f0 e0       	ldi	r31, 0x00	; 0
     f78:	80 81       	ld	r24, Z
     f7a:	80 61       	ori	r24, 0x10	; 16
     f7c:	8c 93       	st	X, r24

			/*wanted code*/
			/*Return The Voltage in Digital Value*/
			*Copy_pu16ADCReading=ADCH;
     f7e:	e5 e2       	ldi	r30, 0x25	; 37
     f80:	f0 e0       	ldi	r31, 0x00	; 0
     f82:	80 81       	ld	r24, Z
     f84:	88 2f       	mov	r24, r24
     f86:	90 e0       	ldi	r25, 0x00	; 0
     f88:	ef 81       	ldd	r30, Y+7	; 0x07
     f8a:	f8 85       	ldd	r31, Y+8	; 0x08
     f8c:	91 83       	std	Z+1, r25	; 0x01
     f8e:	80 83       	st	Z, r24
			/*Make ADC is IDLE again*/
			ADC_u8BusyState=IDLE;
     f90:	81 e0       	ldi	r24, 0x01	; 1
     f92:	80 93 dc 02 	sts	0x02DC, r24
     f96:	02 c0       	rjmp	.+4      	; 0xf9c <ADC_u8StartConversionSynch+0xf0>


	}
	else
	{
		Local_u8ErrorState=BUSY_FUNC;
     f98:	83 e0       	ldi	r24, 0x03	; 3
     f9a:	89 83       	std	Y+1, r24	; 0x01
	}
	return Local_u8ErrorState;
     f9c:	89 81       	ldd	r24, Y+1	; 0x01
}
     f9e:	28 96       	adiw	r28, 0x08	; 8
     fa0:	0f b6       	in	r0, 0x3f	; 63
     fa2:	f8 94       	cli
     fa4:	de bf       	out	0x3e, r29	; 62
     fa6:	0f be       	out	0x3f, r0	; 63
     fa8:	cd bf       	out	0x3d, r28	; 61
     faa:	cf 91       	pop	r28
     fac:	df 91       	pop	r29
     fae:	08 95       	ret

00000fb0 <ADC_u8StartChainConversionSynch>:
/***************************************************************************/
/*Synchronous Function to Start Chain of Conversions */
u8 ADC_u8StartChainConversionSynch(Chain_t* Copy_psADCChain)
{
     fb0:	df 93       	push	r29
     fb2:	cf 93       	push	r28
     fb4:	00 d0       	rcall	.+0      	; 0xfb6 <ADC_u8StartChainConversionSynch+0x6>
     fb6:	00 d0       	rcall	.+0      	; 0xfb8 <ADC_u8StartChainConversionSynch+0x8>
     fb8:	cd b7       	in	r28, 0x3d	; 61
     fba:	de b7       	in	r29, 0x3e	; 62
     fbc:	9c 83       	std	Y+4, r25	; 0x04
     fbe:	8b 83       	std	Y+3, r24	; 0x03
	u8 Local_u8ErrorState=OK;
     fc0:	1a 82       	std	Y+2, r1	; 0x02

	/*This function will work if and only if the BusyState is IDLE*/
	if(ADC_u8BusyState==IDLE)
     fc2:	80 91 dc 02 	lds	r24, 0x02DC
     fc6:	81 30       	cpi	r24, 0x01	; 1
     fc8:	89 f5       	brne	.+98     	; 0x102c <ADC_u8StartChainConversionSynch+0x7c>
	{
		u8 Local_32Counter;
		if (Copy_psADCChain != NULL)
     fca:	8b 81       	ldd	r24, Y+3	; 0x03
     fcc:	9c 81       	ldd	r25, Y+4	; 0x04
     fce:	00 97       	sbiw	r24, 0x00	; 0
     fd0:	51 f1       	breq	.+84     	; 0x1026 <ADC_u8StartChainConversionSynch+0x76>
		{
			for(Local_32Counter=0;Local_32Counter<Copy_psADCChain->Size ;Local_32Counter++)
     fd2:	19 82       	std	Y+1, r1	; 0x01
     fd4:	21 c0       	rjmp	.+66     	; 0x1018 <ADC_u8StartChainConversionSynch+0x68>
			{
				ADC_u8StartConversionSynch(Copy_psADCChain->ChannelArr[Local_32Counter] , Copy_psADCChain->ResultArr[Local_32Counter]);
     fd6:	eb 81       	ldd	r30, Y+3	; 0x03
     fd8:	fc 81       	ldd	r31, Y+4	; 0x04
     fda:	20 81       	ld	r18, Z
     fdc:	31 81       	ldd	r19, Z+1	; 0x01
     fde:	89 81       	ldd	r24, Y+1	; 0x01
     fe0:	88 2f       	mov	r24, r24
     fe2:	90 e0       	ldi	r25, 0x00	; 0
     fe4:	f9 01       	movw	r30, r18
     fe6:	e8 0f       	add	r30, r24
     fe8:	f9 1f       	adc	r31, r25
     fea:	40 81       	ld	r20, Z
     fec:	eb 81       	ldd	r30, Y+3	; 0x03
     fee:	fc 81       	ldd	r31, Y+4	; 0x04
     ff0:	22 81       	ldd	r18, Z+2	; 0x02
     ff2:	33 81       	ldd	r19, Z+3	; 0x03
     ff4:	89 81       	ldd	r24, Y+1	; 0x01
     ff6:	88 2f       	mov	r24, r24
     ff8:	90 e0       	ldi	r25, 0x00	; 0
     ffa:	88 0f       	add	r24, r24
     ffc:	99 1f       	adc	r25, r25
     ffe:	f9 01       	movw	r30, r18
    1000:	e8 0f       	add	r30, r24
    1002:	f9 1f       	adc	r31, r25
    1004:	80 81       	ld	r24, Z
    1006:	91 81       	ldd	r25, Z+1	; 0x01
    1008:	9c 01       	movw	r18, r24
    100a:	84 2f       	mov	r24, r20
    100c:	b9 01       	movw	r22, r18
    100e:	0e 94 56 07 	call	0xeac	; 0xeac <ADC_u8StartConversionSynch>
	if(ADC_u8BusyState==IDLE)
	{
		u8 Local_32Counter;
		if (Copy_psADCChain != NULL)
		{
			for(Local_32Counter=0;Local_32Counter<Copy_psADCChain->Size ;Local_32Counter++)
    1012:	89 81       	ldd	r24, Y+1	; 0x01
    1014:	8f 5f       	subi	r24, 0xFF	; 255
    1016:	89 83       	std	Y+1, r24	; 0x01
    1018:	eb 81       	ldd	r30, Y+3	; 0x03
    101a:	fc 81       	ldd	r31, Y+4	; 0x04
    101c:	94 81       	ldd	r25, Z+4	; 0x04
    101e:	89 81       	ldd	r24, Y+1	; 0x01
    1020:	89 17       	cp	r24, r25
    1022:	c8 f2       	brcs	.-78     	; 0xfd6 <ADC_u8StartChainConversionSynch+0x26>
    1024:	05 c0       	rjmp	.+10     	; 0x1030 <ADC_u8StartChainConversionSynch+0x80>
				ADC_u8StartConversionSynch(Copy_psADCChain->ChannelArr[Local_32Counter] , Copy_psADCChain->ResultArr[Local_32Counter]);
			}
		}
		else
		{
			Local_u8ErrorState=NULL_POINTER;
    1026:	82 e0       	ldi	r24, 0x02	; 2
    1028:	8a 83       	std	Y+2, r24	; 0x02
    102a:	02 c0       	rjmp	.+4      	; 0x1030 <ADC_u8StartChainConversionSynch+0x80>
		}

	}
	else
	{
		Local_u8ErrorState=BUSY_FUNC;
    102c:	83 e0       	ldi	r24, 0x03	; 3
    102e:	8a 83       	std	Y+2, r24	; 0x02
	}
	return Local_u8ErrorState;
    1030:	8a 81       	ldd	r24, Y+2	; 0x02
}
    1032:	0f 90       	pop	r0
    1034:	0f 90       	pop	r0
    1036:	0f 90       	pop	r0
    1038:	0f 90       	pop	r0
    103a:	cf 91       	pop	r28
    103c:	df 91       	pop	r29
    103e:	08 95       	ret

00001040 <ADC_u8StartConversionAsynch>:
/***************************************************************************/
/*Asynchronous Function to Start Conversion */
/*Take care of End of Job Notification */
u8 ADC_u8StartConversionAsynch(u8 Copy_u8Channel, u16* Copy_pu16ADCReading, void (*Copy_pvNotificationFunc)(void))
{
    1040:	df 93       	push	r29
    1042:	cf 93       	push	r28
    1044:	cd b7       	in	r28, 0x3d	; 61
    1046:	de b7       	in	r29, 0x3e	; 62
    1048:	27 97       	sbiw	r28, 0x07	; 7
    104a:	0f b6       	in	r0, 0x3f	; 63
    104c:	f8 94       	cli
    104e:	de bf       	out	0x3e, r29	; 62
    1050:	0f be       	out	0x3f, r0	; 63
    1052:	cd bf       	out	0x3d, r28	; 61
    1054:	8a 83       	std	Y+2, r24	; 0x02
    1056:	7c 83       	std	Y+4, r23	; 0x04
    1058:	6b 83       	std	Y+3, r22	; 0x03
    105a:	5e 83       	std	Y+6, r21	; 0x06
    105c:	4d 83       	std	Y+5, r20	; 0x05
	u8 Local_u8ErrorState=OK;
    105e:	19 82       	std	Y+1, r1	; 0x01

	/*This function will work if and only if the BusyState is IDLE*/
	if(ADC_u8BusyState==IDLE)
    1060:	80 91 dc 02 	lds	r24, 0x02DC
    1064:	81 30       	cpi	r24, 0x01	; 1
    1066:	09 f0       	breq	.+2      	; 0x106a <ADC_u8StartConversionAsynch+0x2a>
    1068:	3e c0       	rjmp	.+124    	; 0x10e6 <ADC_u8StartConversionAsynch+0xa6>
	{
		if((Copy_pu16ADCReading != NULL)&&(Copy_pvNotificationFunc!=NULL))
    106a:	8b 81       	ldd	r24, Y+3	; 0x03
    106c:	9c 81       	ldd	r25, Y+4	; 0x04
    106e:	00 97       	sbiw	r24, 0x00	; 0
    1070:	a1 f1       	breq	.+104    	; 0x10da <ADC_u8StartConversionAsynch+0x9a>
    1072:	8d 81       	ldd	r24, Y+5	; 0x05
    1074:	9e 81       	ldd	r25, Y+6	; 0x06
    1076:	00 97       	sbiw	r24, 0x00	; 0
    1078:	81 f1       	breq	.+96     	; 0x10da <ADC_u8StartConversionAsynch+0x9a>
		{
			/*ADC is Busy Now!*/
			/*Make ADC Busy in order not to work until being IDLE*/
			ADC_u8BusyState=BUSY;
    107a:	82 e0       	ldi	r24, 0x02	; 2
    107c:	80 93 dc 02 	sts	0x02DC, r24

			/*Change ADC Conversion State For ISR Function*/
			ADC_u8ConversionState=SINGLE_CONVERSION;
    1080:	81 e0       	ldi	r24, 0x01	; 1
    1082:	80 93 5b 03 	sts	0x035B, r24

			//For ISR Function
			/*ADC Reading in Global Variable now*/
			ADC_pu16Reading=Copy_pu16ADCReading;
    1086:	8b 81       	ldd	r24, Y+3	; 0x03
    1088:	9c 81       	ldd	r25, Y+4	; 0x04
    108a:	90 93 55 03 	sts	0x0355, r25
    108e:	80 93 54 03 	sts	0x0354, r24
			/*ADC Notification Function in Global Variable now*/
			ADC_pvCallBackNotificationFunc=Copy_pvNotificationFunc;
    1092:	8d 81       	ldd	r24, Y+5	; 0x05
    1094:	9e 81       	ldd	r25, Y+6	; 0x06
    1096:	90 93 57 03 	sts	0x0357, r25
    109a:	80 93 56 03 	sts	0x0356, r24

			//Set Channel
			/*Bit Masking*/
			/*Clear the MUX Bits in ADMUX register*/
			ADMUX &=ADC_CHANNEL_MUX_MASK;
    109e:	a7 e2       	ldi	r26, 0x27	; 39
    10a0:	b0 e0       	ldi	r27, 0x00	; 0
    10a2:	e7 e2       	ldi	r30, 0x27	; 39
    10a4:	f0 e0       	ldi	r31, 0x00	; 0
    10a6:	80 81       	ld	r24, Z
    10a8:	80 7e       	andi	r24, 0xE0	; 224
    10aa:	8c 93       	st	X, r24

			/*Set the required Channel into MUX bits*/
			ADMUX |=Copy_u8Channel;
    10ac:	a7 e2       	ldi	r26, 0x27	; 39
    10ae:	b0 e0       	ldi	r27, 0x00	; 0
    10b0:	e7 e2       	ldi	r30, 0x27	; 39
    10b2:	f0 e0       	ldi	r31, 0x00	; 0
    10b4:	90 81       	ld	r25, Z
    10b6:	8a 81       	ldd	r24, Y+2	; 0x02
    10b8:	89 2b       	or	r24, r25
    10ba:	8c 93       	st	X, r24

			/*Start Conversion*/
			SET_BIT(ADCSRA,ADCSRA_ADSC);
    10bc:	a6 e2       	ldi	r26, 0x26	; 38
    10be:	b0 e0       	ldi	r27, 0x00	; 0
    10c0:	e6 e2       	ldi	r30, 0x26	; 38
    10c2:	f0 e0       	ldi	r31, 0x00	; 0
    10c4:	80 81       	ld	r24, Z
    10c6:	80 64       	ori	r24, 0x40	; 64
    10c8:	8c 93       	st	X, r24

			/*Enable ADC Conversion Complete Interrupt*/
			SET_BIT(ADCSRA,ADCSRA_ADIE);
    10ca:	a6 e2       	ldi	r26, 0x26	; 38
    10cc:	b0 e0       	ldi	r27, 0x00	; 0
    10ce:	e6 e2       	ldi	r30, 0x26	; 38
    10d0:	f0 e0       	ldi	r31, 0x00	; 0
    10d2:	80 81       	ld	r24, Z
    10d4:	88 60       	ori	r24, 0x08	; 8
    10d6:	8c 93       	st	X, r24
    10d8:	02 c0       	rjmp	.+4      	; 0x10de <ADC_u8StartConversionAsynch+0x9e>
		}
		else
		{
			//do nothing!
			Local_u8ErrorState=NULL_POINTER;
    10da:	82 e0       	ldi	r24, 0x02	; 2
    10dc:	89 83       	std	Y+1, r24	; 0x01
		}

		return Local_u8ErrorState;
    10de:	89 81       	ldd	r24, Y+1	; 0x01
    10e0:	8f 83       	std	Y+7, r24	; 0x07
	else
	{
		//do nothing
		Local_u8ErrorState=BUSY_FUNC;
	}
}
    10e2:	8f 81       	ldd	r24, Y+7	; 0x07
    10e4:	02 c0       	rjmp	.+4      	; 0x10ea <ADC_u8StartConversionAsynch+0xaa>
		return Local_u8ErrorState;
	}
	else
	{
		//do nothing
		Local_u8ErrorState=BUSY_FUNC;
    10e6:	83 e0       	ldi	r24, 0x03	; 3
    10e8:	89 83       	std	Y+1, r24	; 0x01
	}
}
    10ea:	27 96       	adiw	r28, 0x07	; 7
    10ec:	0f b6       	in	r0, 0x3f	; 63
    10ee:	f8 94       	cli
    10f0:	de bf       	out	0x3e, r29	; 62
    10f2:	0f be       	out	0x3f, r0	; 63
    10f4:	cd bf       	out	0x3d, r28	; 61
    10f6:	cf 91       	pop	r28
    10f8:	df 91       	pop	r29
    10fa:	08 95       	ret

000010fc <ADC_u8StartChainConversionAsynch>:
/***************************************************************************/
/*Asynchronous Function to Start Chain of Conversions*/
u8 ADC_u8StartChainConversionAsynch(Chain_t* Copy_psADCChain)
{
    10fc:	df 93       	push	r29
    10fe:	cf 93       	push	r28
    1100:	00 d0       	rcall	.+0      	; 0x1102 <ADC_u8StartChainConversionAsynch+0x6>
    1102:	0f 92       	push	r0
    1104:	cd b7       	in	r28, 0x3d	; 61
    1106:	de b7       	in	r29, 0x3e	; 62
    1108:	9b 83       	std	Y+3, r25	; 0x03
    110a:	8a 83       	std	Y+2, r24	; 0x02
	u8 Local_u8ErrorState=OK;
    110c:	19 82       	std	Y+1, r1	; 0x01

	if(ADC_u8BusyState==IDLE)
    110e:	80 91 dc 02 	lds	r24, 0x02DC
    1112:	81 30       	cpi	r24, 0x01	; 1
    1114:	e9 f5       	brne	.+122    	; 0x1190 <ADC_u8StartChainConversionAsynch+0x94>
	{
		if(Copy_psADCChain != NULL)
    1116:	8a 81       	ldd	r24, Y+2	; 0x02
    1118:	9b 81       	ldd	r25, Y+3	; 0x03
    111a:	00 97       	sbiw	r24, 0x00	; 0
    111c:	b1 f1       	breq	.+108    	; 0x118a <ADC_u8StartChainConversionAsynch+0x8e>
		{
			/*Change ADC Conversion State For ISR Function*/
			ADC_u8ConversionState=CHAIN_CONVERSION;
    111e:	81 e0       	ldi	r24, 0x01	; 1
    1120:	80 93 5b 03 	sts	0x035B, r24

			//Required Data For ISR Function
			/*Assignment the Global Variables*/
			ADC_psChain=Copy_psADCChain;
    1124:	8a 81       	ldd	r24, Y+2	; 0x02
    1126:	9b 81       	ldd	r25, Y+3	; 0x03
    1128:	90 93 59 03 	sts	0x0359, r25
    112c:	80 93 58 03 	sts	0x0358, r24

			/*Set the first Channel*/
			ADC_u8ChainIndex=0;
    1130:	10 92 5a 03 	sts	0x035A, r1
			ADMUX &=ADC_CHANNEL_MUX_MASK;
    1134:	a7 e2       	ldi	r26, 0x27	; 39
    1136:	b0 e0       	ldi	r27, 0x00	; 0
    1138:	e7 e2       	ldi	r30, 0x27	; 39
    113a:	f0 e0       	ldi	r31, 0x00	; 0
    113c:	80 81       	ld	r24, Z
    113e:	80 7e       	andi	r24, 0xE0	; 224
    1140:	8c 93       	st	X, r24
			ADMUX |=ADC_psChain->ChannelArr[ADC_u8ChainIndex];
    1142:	a7 e2       	ldi	r26, 0x27	; 39
    1144:	b0 e0       	ldi	r27, 0x00	; 0
    1146:	e7 e2       	ldi	r30, 0x27	; 39
    1148:	f0 e0       	ldi	r31, 0x00	; 0
    114a:	40 81       	ld	r20, Z
    114c:	e0 91 58 03 	lds	r30, 0x0358
    1150:	f0 91 59 03 	lds	r31, 0x0359
    1154:	20 81       	ld	r18, Z
    1156:	31 81       	ldd	r19, Z+1	; 0x01
    1158:	80 91 5a 03 	lds	r24, 0x035A
    115c:	88 2f       	mov	r24, r24
    115e:	90 e0       	ldi	r25, 0x00	; 0
    1160:	f9 01       	movw	r30, r18
    1162:	e8 0f       	add	r30, r24
    1164:	f9 1f       	adc	r31, r25
    1166:	80 81       	ld	r24, Z
    1168:	84 2b       	or	r24, r20
    116a:	8c 93       	st	X, r24

			/*Start Conversion of first Channel*/
			SET_BIT(ADCSRA,ADCSRA_ADSC);
    116c:	a6 e2       	ldi	r26, 0x26	; 38
    116e:	b0 e0       	ldi	r27, 0x00	; 0
    1170:	e6 e2       	ldi	r30, 0x26	; 38
    1172:	f0 e0       	ldi	r31, 0x00	; 0
    1174:	80 81       	ld	r24, Z
    1176:	80 64       	ori	r24, 0x40	; 64
    1178:	8c 93       	st	X, r24

			/*Enable ADC Conversion Complete Interrupt*/
			SET_BIT(ADCSRA,ADCSRA_ADIE);
    117a:	a6 e2       	ldi	r26, 0x26	; 38
    117c:	b0 e0       	ldi	r27, 0x00	; 0
    117e:	e6 e2       	ldi	r30, 0x26	; 38
    1180:	f0 e0       	ldi	r31, 0x00	; 0
    1182:	80 81       	ld	r24, Z
    1184:	88 60       	ori	r24, 0x08	; 8
    1186:	8c 93       	st	X, r24
    1188:	05 c0       	rjmp	.+10     	; 0x1194 <ADC_u8StartChainConversionAsynch+0x98>
		}
		else
		{
			Local_u8ErrorState=NULL_POINTER;
    118a:	82 e0       	ldi	r24, 0x02	; 2
    118c:	89 83       	std	Y+1, r24	; 0x01
    118e:	02 c0       	rjmp	.+4      	; 0x1194 <ADC_u8StartChainConversionAsynch+0x98>
		}
	}
	else
	{
		Local_u8ErrorState=BUSY_FUNC;
    1190:	83 e0       	ldi	r24, 0x03	; 3
    1192:	89 83       	std	Y+1, r24	; 0x01
	}
	return Local_u8ErrorState;
    1194:	89 81       	ldd	r24, Y+1	; 0x01

}
    1196:	0f 90       	pop	r0
    1198:	0f 90       	pop	r0
    119a:	0f 90       	pop	r0
    119c:	cf 91       	pop	r28
    119e:	df 91       	pop	r29
    11a0:	08 95       	ret

000011a2 <__vector_16>:
/*ISR Function*/
void __vector_16 (void) __attribute__((signal));
void __vector_16 (void)
{
    11a2:	1f 92       	push	r1
    11a4:	0f 92       	push	r0
    11a6:	0f b6       	in	r0, 0x3f	; 63
    11a8:	0f 92       	push	r0
    11aa:	11 24       	eor	r1, r1
    11ac:	2f 93       	push	r18
    11ae:	3f 93       	push	r19
    11b0:	4f 93       	push	r20
    11b2:	5f 93       	push	r21
    11b4:	6f 93       	push	r22
    11b6:	7f 93       	push	r23
    11b8:	8f 93       	push	r24
    11ba:	9f 93       	push	r25
    11bc:	af 93       	push	r26
    11be:	bf 93       	push	r27
    11c0:	ef 93       	push	r30
    11c2:	ff 93       	push	r31
    11c4:	df 93       	push	r29
    11c6:	cf 93       	push	r28
    11c8:	cd b7       	in	r28, 0x3d	; 61
    11ca:	de b7       	in	r29, 0x3e	; 62
	if(ADC_u8ConversionState==SINGLE_CONVERSION)
    11cc:	80 91 5b 03 	lds	r24, 0x035B
    11d0:	81 30       	cpi	r24, 0x01	; 1
    11d2:	d9 f4       	brne	.+54     	; 0x120a <__vector_16+0x68>
	{
		/*Check the Resolution &
		 *Read the ADC Current Result */
#if ADC_RESOLUTION==8
		*ADC_pu16Reading=ADCH;
    11d4:	a0 91 54 03 	lds	r26, 0x0354
    11d8:	b0 91 55 03 	lds	r27, 0x0355
    11dc:	e5 e2       	ldi	r30, 0x25	; 37
    11de:	f0 e0       	ldi	r31, 0x00	; 0
    11e0:	80 81       	ld	r24, Z
    11e2:	88 2f       	mov	r24, r24
    11e4:	90 e0       	ldi	r25, 0x00	; 0
    11e6:	8d 93       	st	X+, r24
    11e8:	9c 93       	st	X, r25
#elif ADC_RESOLUTION==10
		*ADC_pu16Reading=ADC;
#endif

		/*Make ADC IDLE to make new calling for Asynchronous Function  */
		ADC_u8BusyState=IDLE;
    11ea:	81 e0       	ldi	r24, 0x01	; 1
    11ec:	80 93 dc 02 	sts	0x02DC, r24

		/*Invoke the Call Back Notification Function*/
		ADC_pvCallBackNotificationFunc();
    11f0:	e0 91 56 03 	lds	r30, 0x0356
    11f4:	f0 91 57 03 	lds	r31, 0x0357
    11f8:	09 95       	icall

		/*Disable ADC Conversion Complete Interrupt
		 *because the Conversion is Done */
		CLR_BIT(ADCSRA,ADCSRA_ADIE);
    11fa:	a6 e2       	ldi	r26, 0x26	; 38
    11fc:	b0 e0       	ldi	r27, 0x00	; 0
    11fe:	e6 e2       	ldi	r30, 0x26	; 38
    1200:	f0 e0       	ldi	r31, 0x00	; 0
    1202:	80 81       	ld	r24, Z
    1204:	87 7f       	andi	r24, 0xF7	; 247
    1206:	8c 93       	st	X, r24
    1208:	6b c0       	rjmp	.+214    	; 0x12e0 <__vector_16+0x13e>
	}
	/***************************************************************************/
	else if(ADC_u8ConversionState==CHAIN_CONVERSION)
    120a:	80 91 5b 03 	lds	r24, 0x035B
    120e:	81 30       	cpi	r24, 0x01	; 1
    1210:	09 f0       	breq	.+2      	; 0x1214 <__vector_16+0x72>
    1212:	66 c0       	rjmp	.+204    	; 0x12e0 <__vector_16+0x13e>
	{
		/*Check the Resolution &
		 *Read the ADC Current Result */
#if ADC_RESOLUTION==8
		ADC_psChain->ResultArr[ADC_u8ChainIndex]=ADCH;
    1214:	e0 91 58 03 	lds	r30, 0x0358
    1218:	f0 91 59 03 	lds	r31, 0x0359
    121c:	22 81       	ldd	r18, Z+2	; 0x02
    121e:	33 81       	ldd	r19, Z+3	; 0x03
    1220:	80 91 5a 03 	lds	r24, 0x035A
    1224:	88 2f       	mov	r24, r24
    1226:	90 e0       	ldi	r25, 0x00	; 0
    1228:	88 0f       	add	r24, r24
    122a:	99 1f       	adc	r25, r25
    122c:	d9 01       	movw	r26, r18
    122e:	a8 0f       	add	r26, r24
    1230:	b9 1f       	adc	r27, r25
    1232:	e5 e2       	ldi	r30, 0x25	; 37
    1234:	f0 e0       	ldi	r31, 0x00	; 0
    1236:	80 81       	ld	r24, Z
    1238:	88 2f       	mov	r24, r24
    123a:	90 e0       	ldi	r25, 0x00	; 0
    123c:	11 96       	adiw	r26, 0x01	; 1
    123e:	9c 93       	st	X, r25
    1240:	8e 93       	st	-X, r24
#elif ADC_RESOLUTION==10
		ADC_psChain->ResultArr[ADC_u8ChainIndex]=ADC;
#endif

		//Increment the Channel Array Index
		ADC_u8ChainIndex++;
    1242:	80 91 5a 03 	lds	r24, 0x035A
    1246:	8f 5f       	subi	r24, 0xFF	; 255
    1248:	80 93 5a 03 	sts	0x035A, r24

		if(ADC_u8ChainIndex==ADC_psChain->Size)
    124c:	e0 91 58 03 	lds	r30, 0x0358
    1250:	f0 91 59 03 	lds	r31, 0x0359
    1254:	94 81       	ldd	r25, Z+4	; 0x04
    1256:	80 91 5a 03 	lds	r24, 0x035A
    125a:	98 17       	cp	r25, r24
    125c:	a9 f4       	brne	.+42     	; 0x1288 <__vector_16+0xe6>
		{
			/*Invoke the Call Back Notification Function*/
			ADC_psChain->NotiFunc();
    125e:	e0 91 58 03 	lds	r30, 0x0358
    1262:	f0 91 59 03 	lds	r31, 0x0359
    1266:	05 80       	ldd	r0, Z+5	; 0x05
    1268:	f6 81       	ldd	r31, Z+6	; 0x06
    126a:	e0 2d       	mov	r30, r0
    126c:	09 95       	icall
			//Clear Array Index
			ADC_u8ChainIndex=0;
    126e:	10 92 5a 03 	sts	0x035A, r1

			/*Disable ADC Conversion Complete Interrupt
			 *because the Conversion is Done */
			CLR_BIT(ADCSRA,ADCSRA_ADIE);
    1272:	a6 e2       	ldi	r26, 0x26	; 38
    1274:	b0 e0       	ldi	r27, 0x00	; 0
    1276:	e6 e2       	ldi	r30, 0x26	; 38
    1278:	f0 e0       	ldi	r31, 0x00	; 0
    127a:	80 81       	ld	r24, Z
    127c:	87 7f       	andi	r24, 0xF7	; 247
    127e:	8c 93       	st	X, r24

			/*Make ADC IDLE to make new calling for Asynchronous Function  */
			ADC_u8BusyState=IDLE;
    1280:	81 e0       	ldi	r24, 0x01	; 1
    1282:	80 93 dc 02 	sts	0x02DC, r24
    1286:	2c c0       	rjmp	.+88     	; 0x12e0 <__vector_16+0x13e>

		}
		else if(ADC_u8ChainIndex!=ADC_psChain->Size)
    1288:	e0 91 58 03 	lds	r30, 0x0358
    128c:	f0 91 59 03 	lds	r31, 0x0359
    1290:	94 81       	ldd	r25, Z+4	; 0x04
    1292:	80 91 5a 03 	lds	r24, 0x035A
    1296:	98 17       	cp	r25, r24
    1298:	19 f1       	breq	.+70     	; 0x12e0 <__vector_16+0x13e>
		{
			//Set the Next Channel
			ADMUX &=ADC_CHANNEL_MUX_MASK;
    129a:	a7 e2       	ldi	r26, 0x27	; 39
    129c:	b0 e0       	ldi	r27, 0x00	; 0
    129e:	e7 e2       	ldi	r30, 0x27	; 39
    12a0:	f0 e0       	ldi	r31, 0x00	; 0
    12a2:	80 81       	ld	r24, Z
    12a4:	80 7e       	andi	r24, 0xE0	; 224
    12a6:	8c 93       	st	X, r24
			ADMUX |=ADC_psChain->ChannelArr[ADC_u8ChainIndex];
    12a8:	a7 e2       	ldi	r26, 0x27	; 39
    12aa:	b0 e0       	ldi	r27, 0x00	; 0
    12ac:	e7 e2       	ldi	r30, 0x27	; 39
    12ae:	f0 e0       	ldi	r31, 0x00	; 0
    12b0:	40 81       	ld	r20, Z
    12b2:	e0 91 58 03 	lds	r30, 0x0358
    12b6:	f0 91 59 03 	lds	r31, 0x0359
    12ba:	20 81       	ld	r18, Z
    12bc:	31 81       	ldd	r19, Z+1	; 0x01
    12be:	80 91 5a 03 	lds	r24, 0x035A
    12c2:	88 2f       	mov	r24, r24
    12c4:	90 e0       	ldi	r25, 0x00	; 0
    12c6:	f9 01       	movw	r30, r18
    12c8:	e8 0f       	add	r30, r24
    12ca:	f9 1f       	adc	r31, r25
    12cc:	80 81       	ld	r24, Z
    12ce:	84 2b       	or	r24, r20
    12d0:	8c 93       	st	X, r24

			//Start Next Conversion
			SET_BIT(ADCSRA,ADCSRA_ADSC);
    12d2:	a6 e2       	ldi	r26, 0x26	; 38
    12d4:	b0 e0       	ldi	r27, 0x00	; 0
    12d6:	e6 e2       	ldi	r30, 0x26	; 38
    12d8:	f0 e0       	ldi	r31, 0x00	; 0
    12da:	80 81       	ld	r24, Z
    12dc:	80 64       	ori	r24, 0x40	; 64
    12de:	8c 93       	st	X, r24
		}

	}

}
    12e0:	cf 91       	pop	r28
    12e2:	df 91       	pop	r29
    12e4:	ff 91       	pop	r31
    12e6:	ef 91       	pop	r30
    12e8:	bf 91       	pop	r27
    12ea:	af 91       	pop	r26
    12ec:	9f 91       	pop	r25
    12ee:	8f 91       	pop	r24
    12f0:	7f 91       	pop	r23
    12f2:	6f 91       	pop	r22
    12f4:	5f 91       	pop	r21
    12f6:	4f 91       	pop	r20
    12f8:	3f 91       	pop	r19
    12fa:	2f 91       	pop	r18
    12fc:	0f 90       	pop	r0
    12fe:	0f be       	out	0x3f, r0	; 63
    1300:	0f 90       	pop	r0
    1302:	1f 90       	pop	r1
    1304:	18 95       	reti

00001306 <APP_voidInit>:
		INT_DISABLE,
};
/*************************************************************************************************************************/

void APP_voidInit()
{
    1306:	df 93       	push	r29
    1308:	cf 93       	push	r28
    130a:	cd b7       	in	r28, 0x3d	; 61
    130c:	de b7       	in	r29, 0x3e	; 62
	PORT_voidInit();
    130e:	0e 94 60 1e 	call	0x3cc0	; 0x3cc0 <PORT_voidInit>
	LCD_voidInit();
    1312:	0e 94 de 18 	call	0x31bc	; 0x31bc <LCD_voidInit>
	ADC_voidInit();
    1316:	0e 94 17 07 	call	0xe2e	; 0xe2e <ADC_voidInit>
	USART_voidInit();
    131a:	0e 94 90 30 	call	0x6120	; 0x6120 <USART_voidInit>
}
    131e:	cf 91       	pop	r28
    1320:	df 91       	pop	r29
    1322:	08 95       	ret

00001324 <APP_voidLoginSystem>:
/*************************************************************************************************************************/
/* Note!,
 *  any ID or Pass cosistes of 4 digits*/
void APP_voidLoginSystem()
{
    1324:	0f 93       	push	r16
    1326:	1f 93       	push	r17
    1328:	df 93       	push	r29
    132a:	cf 93       	push	r28
    132c:	cd b7       	in	r28, 0x3d	; 61
    132e:	de b7       	in	r29, 0x3e	; 62
    1330:	cb 55       	subi	r28, 0x5B	; 91
    1332:	d0 40       	sbci	r29, 0x00	; 0
    1334:	0f b6       	in	r0, 0x3f	; 63
    1336:	f8 94       	cli
    1338:	de bf       	out	0x3e, r29	; 62
    133a:	0f be       	out	0x3f, r0	; 63
    133c:	cd bf       	out	0x3d, r28	; 61

	u8 Local_u8KPDKey, Local_u8IDArrSize = 0, Local_u8PassArrSize = 0, Local_u8Counter, Local_u8Counter2, Local_u8CheckID = 0;
    133e:	fe 01       	movw	r30, r28
    1340:	ee 5a       	subi	r30, 0xAE	; 174
    1342:	ff 4f       	sbci	r31, 0xFF	; 255
    1344:	10 82       	st	Z, r1
    1346:	fe 01       	movw	r30, r28
    1348:	ef 5a       	subi	r30, 0xAF	; 175
    134a:	ff 4f       	sbci	r31, 0xFF	; 255
    134c:	10 82       	st	Z, r1
    134e:	fe 01       	movw	r30, r28
    1350:	e2 5b       	subi	r30, 0xB2	; 178
    1352:	ff 4f       	sbci	r31, 0xFF	; 255
    1354:	10 82       	st	Z, r1
	u16 Local_u16ID = NVALID, Local_u16Pass, Local_u8CheckPass = 0;
    1356:	fe 01       	movw	r30, r28
    1358:	e4 5b       	subi	r30, 0xB4	; 180
    135a:	ff 4f       	sbci	r31, 0xFF	; 255
    135c:	11 82       	std	Z+1, r1	; 0x01
    135e:	10 82       	st	Z, r1
    1360:	fe 01       	movw	r30, r28
    1362:	e8 5b       	subi	r30, 0xB8	; 184
    1364:	ff 4f       	sbci	r31, 0xFF	; 255
    1366:	11 82       	std	Z+1, r1	; 0x01
    1368:	10 82       	st	Z, r1
	u8 Local_u8IDArray[4], Local_u8PassArray[4], Local_u8FlagTrials = 0;
    136a:	fe 01       	movw	r30, r28
    136c:	e9 5b       	subi	r30, 0xB9	; 185
    136e:	ff 4f       	sbci	r31, 0xFF	; 255
    1370:	10 82       	st	Z, r1
			LCD_voidSendString2("**** HELLO ****");
			LCD_voidPositionSet(1,0);
			LCD_voidSendString2("Let's Start ^_^");
			_delay_ms(2000);*/

		LCD_voidClearDisplay();
    1372:	0e 94 72 1c 	call	0x38e4	; 0x38e4 <LCD_voidClearDisplay>
		LCD_voidSendString2("Enter ID: ");
    1376:	80 e6       	ldi	r24, 0x60	; 96
    1378:	90 e0       	ldi	r25, 0x00	; 0
    137a:	0e 94 7c 1c 	call	0x38f8	; 0x38f8 <LCD_voidSendString2>
		for (Local_u8Counter = 0; Local_u8Counter < 4; Local_u8Counter++)
    137e:	fe 01       	movw	r30, r28
    1380:	e0 5b       	subi	r30, 0xB0	; 176
    1382:	ff 4f       	sbci	r31, 0xFF	; 255
    1384:	10 82       	st	Z, r1
    1386:	94 c1       	rjmp	.+808    	; 0x16b0 <APP_voidLoginSystem+0x38c>
		{
			do
			{
				Local_u8KPDKey = KPD_u8GetPressedKey();
    1388:	0e 94 66 18 	call	0x30cc	; 0x30cc <KPD_u8GetPressedKey>
    138c:	fe 01       	movw	r30, r28
    138e:	ed 5a       	subi	r30, 0xAD	; 173
    1390:	ff 4f       	sbci	r31, 0xFF	; 255
    1392:	80 83       	st	Z, r24

			} while (Local_u8KPDKey == 0xff);
    1394:	fe 01       	movw	r30, r28
    1396:	ed 5a       	subi	r30, 0xAD	; 173
    1398:	ff 4f       	sbci	r31, 0xFF	; 255
    139a:	80 81       	ld	r24, Z
    139c:	8f 3f       	cpi	r24, 0xFF	; 255
    139e:	a1 f3       	breq	.-24     	; 0x1388 <APP_voidLoginSystem+0x64>

			if(Local_u8KPDKey==0||Local_u8KPDKey==1||Local_u8KPDKey==2||Local_u8KPDKey==3||Local_u8KPDKey==4||Local_u8KPDKey==5||Local_u8KPDKey==6||Local_u8KPDKey==7||Local_u8KPDKey==8||Local_u8KPDKey==9)
    13a0:	fe 01       	movw	r30, r28
    13a2:	ed 5a       	subi	r30, 0xAD	; 173
    13a4:	ff 4f       	sbci	r31, 0xFF	; 255
    13a6:	80 81       	ld	r24, Z
    13a8:	88 23       	and	r24, r24
    13aa:	b1 f1       	breq	.+108    	; 0x1418 <APP_voidLoginSystem+0xf4>
    13ac:	fe 01       	movw	r30, r28
    13ae:	ed 5a       	subi	r30, 0xAD	; 173
    13b0:	ff 4f       	sbci	r31, 0xFF	; 255
    13b2:	80 81       	ld	r24, Z
    13b4:	81 30       	cpi	r24, 0x01	; 1
    13b6:	81 f1       	breq	.+96     	; 0x1418 <APP_voidLoginSystem+0xf4>
    13b8:	fe 01       	movw	r30, r28
    13ba:	ed 5a       	subi	r30, 0xAD	; 173
    13bc:	ff 4f       	sbci	r31, 0xFF	; 255
    13be:	80 81       	ld	r24, Z
    13c0:	82 30       	cpi	r24, 0x02	; 2
    13c2:	51 f1       	breq	.+84     	; 0x1418 <APP_voidLoginSystem+0xf4>
    13c4:	fe 01       	movw	r30, r28
    13c6:	ed 5a       	subi	r30, 0xAD	; 173
    13c8:	ff 4f       	sbci	r31, 0xFF	; 255
    13ca:	80 81       	ld	r24, Z
    13cc:	83 30       	cpi	r24, 0x03	; 3
    13ce:	21 f1       	breq	.+72     	; 0x1418 <APP_voidLoginSystem+0xf4>
    13d0:	fe 01       	movw	r30, r28
    13d2:	ed 5a       	subi	r30, 0xAD	; 173
    13d4:	ff 4f       	sbci	r31, 0xFF	; 255
    13d6:	80 81       	ld	r24, Z
    13d8:	84 30       	cpi	r24, 0x04	; 4
    13da:	f1 f0       	breq	.+60     	; 0x1418 <APP_voidLoginSystem+0xf4>
    13dc:	fe 01       	movw	r30, r28
    13de:	ed 5a       	subi	r30, 0xAD	; 173
    13e0:	ff 4f       	sbci	r31, 0xFF	; 255
    13e2:	80 81       	ld	r24, Z
    13e4:	85 30       	cpi	r24, 0x05	; 5
    13e6:	c1 f0       	breq	.+48     	; 0x1418 <APP_voidLoginSystem+0xf4>
    13e8:	fe 01       	movw	r30, r28
    13ea:	ed 5a       	subi	r30, 0xAD	; 173
    13ec:	ff 4f       	sbci	r31, 0xFF	; 255
    13ee:	80 81       	ld	r24, Z
    13f0:	86 30       	cpi	r24, 0x06	; 6
    13f2:	91 f0       	breq	.+36     	; 0x1418 <APP_voidLoginSystem+0xf4>
    13f4:	fe 01       	movw	r30, r28
    13f6:	ed 5a       	subi	r30, 0xAD	; 173
    13f8:	ff 4f       	sbci	r31, 0xFF	; 255
    13fa:	80 81       	ld	r24, Z
    13fc:	87 30       	cpi	r24, 0x07	; 7
    13fe:	61 f0       	breq	.+24     	; 0x1418 <APP_voidLoginSystem+0xf4>
    1400:	fe 01       	movw	r30, r28
    1402:	ed 5a       	subi	r30, 0xAD	; 173
    1404:	ff 4f       	sbci	r31, 0xFF	; 255
    1406:	80 81       	ld	r24, Z
    1408:	88 30       	cpi	r24, 0x08	; 8
    140a:	31 f0       	breq	.+12     	; 0x1418 <APP_voidLoginSystem+0xf4>
    140c:	fe 01       	movw	r30, r28
    140e:	ed 5a       	subi	r30, 0xAD	; 173
    1410:	ff 4f       	sbci	r31, 0xFF	; 255
    1412:	80 81       	ld	r24, Z
    1414:	89 30       	cpi	r24, 0x09	; 9
    1416:	71 f5       	brne	.+92     	; 0x1474 <APP_voidLoginSystem+0x150>
			{
				LCD_voidPositionSet(1, Local_u8Counter);
    1418:	fe 01       	movw	r30, r28
    141a:	e0 5b       	subi	r30, 0xB0	; 176
    141c:	ff 4f       	sbci	r31, 0xFF	; 255
    141e:	81 e0       	ldi	r24, 0x01	; 1
    1420:	60 81       	ld	r22, Z
    1422:	0e 94 2b 1b 	call	0x3656	; 0x3656 <LCD_voidPositionSet>
				LCD_voidSendNumber(Local_u8KPDKey);
    1426:	fe 01       	movw	r30, r28
    1428:	ed 5a       	subi	r30, 0xAD	; 173
    142a:	ff 4f       	sbci	r31, 0xFF	; 255
    142c:	80 81       	ld	r24, Z
    142e:	88 2f       	mov	r24, r24
    1430:	90 e0       	ldi	r25, 0x00	; 0
    1432:	a0 e0       	ldi	r26, 0x00	; 0
    1434:	b0 e0       	ldi	r27, 0x00	; 0
    1436:	bc 01       	movw	r22, r24
    1438:	cd 01       	movw	r24, r26
    143a:	0e 94 89 1b 	call	0x3712	; 0x3712 <LCD_voidSendNumber>
				Local_u8IDArray[Local_u8IDArrSize++] = Local_u8KPDKey;
    143e:	fe 01       	movw	r30, r28
    1440:	ee 5a       	subi	r30, 0xAE	; 174
    1442:	ff 4f       	sbci	r31, 0xFF	; 255
    1444:	80 81       	ld	r24, Z
    1446:	28 2f       	mov	r18, r24
    1448:	30 e0       	ldi	r19, 0x00	; 0
    144a:	ce 01       	movw	r24, r28
    144c:	8c 5a       	subi	r24, 0xAC	; 172
    144e:	9f 4f       	sbci	r25, 0xFF	; 255
    1450:	dc 01       	movw	r26, r24
    1452:	a2 0f       	add	r26, r18
    1454:	b3 1f       	adc	r27, r19
    1456:	fe 01       	movw	r30, r28
    1458:	ed 5a       	subi	r30, 0xAD	; 173
    145a:	ff 4f       	sbci	r31, 0xFF	; 255
    145c:	80 81       	ld	r24, Z
    145e:	8c 93       	st	X, r24
    1460:	de 01       	movw	r26, r28
    1462:	ae 5a       	subi	r26, 0xAE	; 174
    1464:	bf 4f       	sbci	r27, 0xFF	; 255
    1466:	fe 01       	movw	r30, r28
    1468:	ee 5a       	subi	r30, 0xAE	; 174
    146a:	ff 4f       	sbci	r31, 0xFF	; 255
    146c:	80 81       	ld	r24, Z
    146e:	8f 5f       	subi	r24, 0xFF	; 255
    1470:	8c 93       	st	X, r24
    1472:	89 c0       	rjmp	.+274    	; 0x1586 <APP_voidLoginSystem+0x262>
			}
			else if (Local_u8KPDKey == 'C')
    1474:	fe 01       	movw	r30, r28
    1476:	ed 5a       	subi	r30, 0xAD	; 173
    1478:	ff 4f       	sbci	r31, 0xFF	; 255
    147a:	80 81       	ld	r24, Z
    147c:	83 34       	cpi	r24, 0x43	; 67
    147e:	61 f5       	brne	.+88     	; 0x14d8 <APP_voidLoginSystem+0x1b4>
			{
				LCD_voidClearDisplay();
    1480:	0e 94 72 1c 	call	0x38e4	; 0x38e4 <LCD_voidClearDisplay>
				for (Local_u8Counter2 = 0; Local_u8Counter2 < Local_u8IDArrSize; Local_u8Counter2++)
    1484:	fe 01       	movw	r30, r28
    1486:	e1 5b       	subi	r30, 0xB1	; 177
    1488:	ff 4f       	sbci	r31, 0xFF	; 255
    148a:	10 82       	st	Z, r1
    148c:	16 c0       	rjmp	.+44     	; 0x14ba <APP_voidLoginSystem+0x196>
				{
					Local_u8IDArray[Local_u8Counter2] = 0;
    148e:	fe 01       	movw	r30, r28
    1490:	e1 5b       	subi	r30, 0xB1	; 177
    1492:	ff 4f       	sbci	r31, 0xFF	; 255
    1494:	80 81       	ld	r24, Z
    1496:	28 2f       	mov	r18, r24
    1498:	30 e0       	ldi	r19, 0x00	; 0
    149a:	ce 01       	movw	r24, r28
    149c:	8c 5a       	subi	r24, 0xAC	; 172
    149e:	9f 4f       	sbci	r25, 0xFF	; 255
    14a0:	fc 01       	movw	r30, r24
    14a2:	e2 0f       	add	r30, r18
    14a4:	f3 1f       	adc	r31, r19
    14a6:	10 82       	st	Z, r1
				Local_u8IDArray[Local_u8IDArrSize++] = Local_u8KPDKey;
			}
			else if (Local_u8KPDKey == 'C')
			{
				LCD_voidClearDisplay();
				for (Local_u8Counter2 = 0; Local_u8Counter2 < Local_u8IDArrSize; Local_u8Counter2++)
    14a8:	de 01       	movw	r26, r28
    14aa:	a1 5b       	subi	r26, 0xB1	; 177
    14ac:	bf 4f       	sbci	r27, 0xFF	; 255
    14ae:	fe 01       	movw	r30, r28
    14b0:	e1 5b       	subi	r30, 0xB1	; 177
    14b2:	ff 4f       	sbci	r31, 0xFF	; 255
    14b4:	80 81       	ld	r24, Z
    14b6:	8f 5f       	subi	r24, 0xFF	; 255
    14b8:	8c 93       	st	X, r24
    14ba:	fe 01       	movw	r30, r28
    14bc:	e1 5b       	subi	r30, 0xB1	; 177
    14be:	ff 4f       	sbci	r31, 0xFF	; 255
    14c0:	de 01       	movw	r26, r28
    14c2:	ae 5a       	subi	r26, 0xAE	; 174
    14c4:	bf 4f       	sbci	r27, 0xFF	; 255
    14c6:	90 81       	ld	r25, Z
    14c8:	8c 91       	ld	r24, X
    14ca:	98 17       	cp	r25, r24
    14cc:	00 f3       	brcs	.-64     	; 0x148e <APP_voidLoginSystem+0x16a>
				{
					Local_u8IDArray[Local_u8Counter2] = 0;
				}
				Local_u8IDArrSize = 0;
    14ce:	fe 01       	movw	r30, r28
    14d0:	ee 5a       	subi	r30, 0xAE	; 174
    14d2:	ff 4f       	sbci	r31, 0xFF	; 255
    14d4:	10 82       	st	Z, r1
    14d6:	f3 c0       	rjmp	.+486    	; 0x16be <APP_voidLoginSystem+0x39a>
				break;
			}
			else if (Local_u8KPDKey == 'D')
    14d8:	fe 01       	movw	r30, r28
    14da:	ed 5a       	subi	r30, 0xAD	; 173
    14dc:	ff 4f       	sbci	r31, 0xFF	; 255
    14de:	80 81       	ld	r24, Z
    14e0:	84 34       	cpi	r24, 0x44	; 68
    14e2:	09 f0       	breq	.+2      	; 0x14e6 <APP_voidLoginSystem+0x1c2>
    14e4:	50 c0       	rjmp	.+160    	; 0x1586 <APP_voidLoginSystem+0x262>
			{
				Local_u8IDArrSize--;
    14e6:	de 01       	movw	r26, r28
    14e8:	ae 5a       	subi	r26, 0xAE	; 174
    14ea:	bf 4f       	sbci	r27, 0xFF	; 255
    14ec:	fe 01       	movw	r30, r28
    14ee:	ee 5a       	subi	r30, 0xAE	; 174
    14f0:	ff 4f       	sbci	r31, 0xFF	; 255
    14f2:	80 81       	ld	r24, Z
    14f4:	81 50       	subi	r24, 0x01	; 1
    14f6:	8c 93       	st	X, r24
				Local_u8Counter--;
    14f8:	de 01       	movw	r26, r28
    14fa:	a0 5b       	subi	r26, 0xB0	; 176
    14fc:	bf 4f       	sbci	r27, 0xFF	; 255
    14fe:	fe 01       	movw	r30, r28
    1500:	e0 5b       	subi	r30, 0xB0	; 176
    1502:	ff 4f       	sbci	r31, 0xFF	; 255
    1504:	80 81       	ld	r24, Z
    1506:	81 50       	subi	r24, 0x01	; 1
    1508:	8c 93       	st	X, r24
				LCD_voidClearDisplay();
    150a:	0e 94 72 1c 	call	0x38e4	; 0x38e4 <LCD_voidClearDisplay>
				LCD_voidSendString2("Enter ID: ");
    150e:	80 e6       	ldi	r24, 0x60	; 96
    1510:	90 e0       	ldi	r25, 0x00	; 0
    1512:	0e 94 7c 1c 	call	0x38f8	; 0x38f8 <LCD_voidSendString2>
				for (Local_u8Counter2 = 0; Local_u8Counter2 < Local_u8IDArrSize; Local_u8Counter2++)
    1516:	fe 01       	movw	r30, r28
    1518:	e1 5b       	subi	r30, 0xB1	; 177
    151a:	ff 4f       	sbci	r31, 0xFF	; 255
    151c:	10 82       	st	Z, r1
    151e:	25 c0       	rjmp	.+74     	; 0x156a <APP_voidLoginSystem+0x246>
				{
					LCD_voidPositionSet(1,Local_u8Counter2);
    1520:	fe 01       	movw	r30, r28
    1522:	e1 5b       	subi	r30, 0xB1	; 177
    1524:	ff 4f       	sbci	r31, 0xFF	; 255
    1526:	81 e0       	ldi	r24, 0x01	; 1
    1528:	60 81       	ld	r22, Z
    152a:	0e 94 2b 1b 	call	0x3656	; 0x3656 <LCD_voidPositionSet>
					LCD_voidSendNumber(Local_u8IDArray[Local_u8Counter2]);
    152e:	fe 01       	movw	r30, r28
    1530:	e1 5b       	subi	r30, 0xB1	; 177
    1532:	ff 4f       	sbci	r31, 0xFF	; 255
    1534:	80 81       	ld	r24, Z
    1536:	28 2f       	mov	r18, r24
    1538:	30 e0       	ldi	r19, 0x00	; 0
    153a:	ce 01       	movw	r24, r28
    153c:	8c 5a       	subi	r24, 0xAC	; 172
    153e:	9f 4f       	sbci	r25, 0xFF	; 255
    1540:	fc 01       	movw	r30, r24
    1542:	e2 0f       	add	r30, r18
    1544:	f3 1f       	adc	r31, r19
    1546:	80 81       	ld	r24, Z
    1548:	88 2f       	mov	r24, r24
    154a:	90 e0       	ldi	r25, 0x00	; 0
    154c:	a0 e0       	ldi	r26, 0x00	; 0
    154e:	b0 e0       	ldi	r27, 0x00	; 0
    1550:	bc 01       	movw	r22, r24
    1552:	cd 01       	movw	r24, r26
    1554:	0e 94 89 1b 	call	0x3712	; 0x3712 <LCD_voidSendNumber>
			{
				Local_u8IDArrSize--;
				Local_u8Counter--;
				LCD_voidClearDisplay();
				LCD_voidSendString2("Enter ID: ");
				for (Local_u8Counter2 = 0; Local_u8Counter2 < Local_u8IDArrSize; Local_u8Counter2++)
    1558:	de 01       	movw	r26, r28
    155a:	a1 5b       	subi	r26, 0xB1	; 177
    155c:	bf 4f       	sbci	r27, 0xFF	; 255
    155e:	fe 01       	movw	r30, r28
    1560:	e1 5b       	subi	r30, 0xB1	; 177
    1562:	ff 4f       	sbci	r31, 0xFF	; 255
    1564:	80 81       	ld	r24, Z
    1566:	8f 5f       	subi	r24, 0xFF	; 255
    1568:	8c 93       	st	X, r24
    156a:	fe 01       	movw	r30, r28
    156c:	e1 5b       	subi	r30, 0xB1	; 177
    156e:	ff 4f       	sbci	r31, 0xFF	; 255
    1570:	de 01       	movw	r26, r28
    1572:	ae 5a       	subi	r26, 0xAE	; 174
    1574:	bf 4f       	sbci	r27, 0xFF	; 255
    1576:	90 81       	ld	r25, Z
    1578:	8c 91       	ld	r24, X
    157a:	98 17       	cp	r25, r24
    157c:	88 f2       	brcs	.-94     	; 0x1520 <APP_voidLoginSystem+0x1fc>
				{
					LCD_voidPositionSet(1,Local_u8Counter2);
					LCD_voidSendNumber(Local_u8IDArray[Local_u8Counter2]);
				}
				Local_u8Counter=0;
    157e:	fe 01       	movw	r30, r28
    1580:	e0 5b       	subi	r30, 0xB0	; 176
    1582:	ff 4f       	sbci	r31, 0xFF	; 255
    1584:	10 82       	st	Z, r1
			}
			if (Local_u8Counter == 3)
    1586:	fe 01       	movw	r30, r28
    1588:	e0 5b       	subi	r30, 0xB0	; 176
    158a:	ff 4f       	sbci	r31, 0xFF	; 255
    158c:	80 81       	ld	r24, Z
    158e:	83 30       	cpi	r24, 0x03	; 3
    1590:	09 f0       	breq	.+2      	; 0x1594 <APP_voidLoginSystem+0x270>
    1592:	85 c0       	rjmp	.+266    	; 0x169e <APP_voidLoginSystem+0x37a>
    1594:	fe 01       	movw	r30, r28
    1596:	ed 5b       	subi	r30, 0xBD	; 189
    1598:	ff 4f       	sbci	r31, 0xFF	; 255
    159a:	80 e0       	ldi	r24, 0x00	; 0
    159c:	90 e0       	ldi	r25, 0x00	; 0
    159e:	a8 e4       	ldi	r26, 0x48	; 72
    15a0:	b3 e4       	ldi	r27, 0x43	; 67
    15a2:	80 83       	st	Z, r24
    15a4:	91 83       	std	Z+1, r25	; 0x01
    15a6:	a2 83       	std	Z+2, r26	; 0x02
    15a8:	b3 83       	std	Z+3, r27	; 0x03
 */
void
_delay_ms(double __ms)
{
	uint16_t __ticks;
	double __tmp = ((F_CPU) / 4e3) * __ms;
    15aa:	8e 01       	movw	r16, r28
    15ac:	01 5c       	subi	r16, 0xC1	; 193
    15ae:	1f 4f       	sbci	r17, 0xFF	; 255
    15b0:	fe 01       	movw	r30, r28
    15b2:	ed 5b       	subi	r30, 0xBD	; 189
    15b4:	ff 4f       	sbci	r31, 0xFF	; 255
    15b6:	60 81       	ld	r22, Z
    15b8:	71 81       	ldd	r23, Z+1	; 0x01
    15ba:	82 81       	ldd	r24, Z+2	; 0x02
    15bc:	93 81       	ldd	r25, Z+3	; 0x03
    15be:	20 e0       	ldi	r18, 0x00	; 0
    15c0:	30 e0       	ldi	r19, 0x00	; 0
    15c2:	4a ef       	ldi	r20, 0xFA	; 250
    15c4:	54 e4       	ldi	r21, 0x44	; 68
    15c6:	0e 94 1f 02 	call	0x43e	; 0x43e <__mulsf3>
    15ca:	dc 01       	movw	r26, r24
    15cc:	cb 01       	movw	r24, r22
    15ce:	f8 01       	movw	r30, r16
    15d0:	80 83       	st	Z, r24
    15d2:	91 83       	std	Z+1, r25	; 0x01
    15d4:	a2 83       	std	Z+2, r26	; 0x02
    15d6:	b3 83       	std	Z+3, r27	; 0x03
	if (__tmp < 1.0)
    15d8:	fe 01       	movw	r30, r28
    15da:	ff 96       	adiw	r30, 0x3f	; 63
    15dc:	60 81       	ld	r22, Z
    15de:	71 81       	ldd	r23, Z+1	; 0x01
    15e0:	82 81       	ldd	r24, Z+2	; 0x02
    15e2:	93 81       	ldd	r25, Z+3	; 0x03
    15e4:	20 e0       	ldi	r18, 0x00	; 0
    15e6:	30 e0       	ldi	r19, 0x00	; 0
    15e8:	40 e8       	ldi	r20, 0x80	; 128
    15ea:	5f e3       	ldi	r21, 0x3F	; 63
    15ec:	0e 94 25 04 	call	0x84a	; 0x84a <__ltsf2>
    15f0:	88 23       	and	r24, r24
    15f2:	2c f4       	brge	.+10     	; 0x15fe <APP_voidLoginSystem+0x2da>
		__ticks = 1;
    15f4:	81 e0       	ldi	r24, 0x01	; 1
    15f6:	90 e0       	ldi	r25, 0x00	; 0
    15f8:	9e af       	std	Y+62, r25	; 0x3e
    15fa:	8d af       	std	Y+61, r24	; 0x3d
    15fc:	46 c0       	rjmp	.+140    	; 0x168a <APP_voidLoginSystem+0x366>
	else if (__tmp > 65535)
    15fe:	fe 01       	movw	r30, r28
    1600:	ff 96       	adiw	r30, 0x3f	; 63
    1602:	60 81       	ld	r22, Z
    1604:	71 81       	ldd	r23, Z+1	; 0x01
    1606:	82 81       	ldd	r24, Z+2	; 0x02
    1608:	93 81       	ldd	r25, Z+3	; 0x03
    160a:	20 e0       	ldi	r18, 0x00	; 0
    160c:	3f ef       	ldi	r19, 0xFF	; 255
    160e:	4f e7       	ldi	r20, 0x7F	; 127
    1610:	57 e4       	ldi	r21, 0x47	; 71
    1612:	0e 94 c5 03 	call	0x78a	; 0x78a <__gtsf2>
    1616:	18 16       	cp	r1, r24
    1618:	64 f5       	brge	.+88     	; 0x1672 <APP_voidLoginSystem+0x34e>
	{
		//	__ticks = requested delay in 1/10 ms
		__ticks = (uint16_t) (__ms * 10.0);
    161a:	fe 01       	movw	r30, r28
    161c:	ed 5b       	subi	r30, 0xBD	; 189
    161e:	ff 4f       	sbci	r31, 0xFF	; 255
    1620:	60 81       	ld	r22, Z
    1622:	71 81       	ldd	r23, Z+1	; 0x01
    1624:	82 81       	ldd	r24, Z+2	; 0x02
    1626:	93 81       	ldd	r25, Z+3	; 0x03
    1628:	20 e0       	ldi	r18, 0x00	; 0
    162a:	30 e0       	ldi	r19, 0x00	; 0
    162c:	40 e2       	ldi	r20, 0x20	; 32
    162e:	51 e4       	ldi	r21, 0x41	; 65
    1630:	0e 94 1f 02 	call	0x43e	; 0x43e <__mulsf3>
    1634:	dc 01       	movw	r26, r24
    1636:	cb 01       	movw	r24, r22
    1638:	bc 01       	movw	r22, r24
    163a:	cd 01       	movw	r24, r26
    163c:	0e 94 49 00 	call	0x92	; 0x92 <__fixunssfsi>
    1640:	dc 01       	movw	r26, r24
    1642:	cb 01       	movw	r24, r22
    1644:	9e af       	std	Y+62, r25	; 0x3e
    1646:	8d af       	std	Y+61, r24	; 0x3d
    1648:	0f c0       	rjmp	.+30     	; 0x1668 <APP_voidLoginSystem+0x344>
    164a:	88 ec       	ldi	r24, 0xC8	; 200
    164c:	90 e0       	ldi	r25, 0x00	; 0
    164e:	9c af       	std	Y+60, r25	; 0x3c
    1650:	8b af       	std	Y+59, r24	; 0x3b
    milliseconds can be achieved.
 */
void
_delay_loop_2(uint16_t __count)
{
	__asm__ volatile (
    1652:	8b ad       	ldd	r24, Y+59	; 0x3b
    1654:	9c ad       	ldd	r25, Y+60	; 0x3c
    1656:	01 97       	sbiw	r24, 0x01	; 1
    1658:	f1 f7       	brne	.-4      	; 0x1656 <APP_voidLoginSystem+0x332>
    165a:	9c af       	std	Y+60, r25	; 0x3c
    165c:	8b af       	std	Y+59, r24	; 0x3b
		while(__ticks)
		{
			// wait 1/10 ms
			_delay_loop_2(((F_CPU) / 4e3) / 10);
			__ticks --;
    165e:	8d ad       	ldd	r24, Y+61	; 0x3d
    1660:	9e ad       	ldd	r25, Y+62	; 0x3e
    1662:	01 97       	sbiw	r24, 0x01	; 1
    1664:	9e af       	std	Y+62, r25	; 0x3e
    1666:	8d af       	std	Y+61, r24	; 0x3d
		__ticks = 1;
	else if (__tmp > 65535)
	{
		//	__ticks = requested delay in 1/10 ms
		__ticks = (uint16_t) (__ms * 10.0);
		while(__ticks)
    1668:	8d ad       	ldd	r24, Y+61	; 0x3d
    166a:	9e ad       	ldd	r25, Y+62	; 0x3e
    166c:	00 97       	sbiw	r24, 0x00	; 0
    166e:	69 f7       	brne	.-38     	; 0x164a <APP_voidLoginSystem+0x326>
    1670:	16 c0       	rjmp	.+44     	; 0x169e <APP_voidLoginSystem+0x37a>
			__ticks --;
		}
		return;
	}
	else
		__ticks = (uint16_t)__tmp;
    1672:	fe 01       	movw	r30, r28
    1674:	ff 96       	adiw	r30, 0x3f	; 63
    1676:	60 81       	ld	r22, Z
    1678:	71 81       	ldd	r23, Z+1	; 0x01
    167a:	82 81       	ldd	r24, Z+2	; 0x02
    167c:	93 81       	ldd	r25, Z+3	; 0x03
    167e:	0e 94 49 00 	call	0x92	; 0x92 <__fixunssfsi>
    1682:	dc 01       	movw	r26, r24
    1684:	cb 01       	movw	r24, r22
    1686:	9e af       	std	Y+62, r25	; 0x3e
    1688:	8d af       	std	Y+61, r24	; 0x3d
    168a:	8d ad       	ldd	r24, Y+61	; 0x3d
    168c:	9e ad       	ldd	r25, Y+62	; 0x3e
    168e:	9a af       	std	Y+58, r25	; 0x3a
    1690:	89 af       	std	Y+57, r24	; 0x39
    1692:	89 ad       	ldd	r24, Y+57	; 0x39
    1694:	9a ad       	ldd	r25, Y+58	; 0x3a
    1696:	01 97       	sbiw	r24, 0x01	; 1
    1698:	f1 f7       	brne	.-4      	; 0x1696 <APP_voidLoginSystem+0x372>
    169a:	9a af       	std	Y+58, r25	; 0x3a
    169c:	89 af       	std	Y+57, r24	; 0x39
			LCD_voidSendString2("Let's Start ^_^");
			_delay_ms(2000);*/

		LCD_voidClearDisplay();
		LCD_voidSendString2("Enter ID: ");
		for (Local_u8Counter = 0; Local_u8Counter < 4; Local_u8Counter++)
    169e:	de 01       	movw	r26, r28
    16a0:	a0 5b       	subi	r26, 0xB0	; 176
    16a2:	bf 4f       	sbci	r27, 0xFF	; 255
    16a4:	fe 01       	movw	r30, r28
    16a6:	e0 5b       	subi	r30, 0xB0	; 176
    16a8:	ff 4f       	sbci	r31, 0xFF	; 255
    16aa:	80 81       	ld	r24, Z
    16ac:	8f 5f       	subi	r24, 0xFF	; 255
    16ae:	8c 93       	st	X, r24
    16b0:	fe 01       	movw	r30, r28
    16b2:	e0 5b       	subi	r30, 0xB0	; 176
    16b4:	ff 4f       	sbci	r31, 0xFF	; 255
    16b6:	80 81       	ld	r24, Z
    16b8:	84 30       	cpi	r24, 0x04	; 4
    16ba:	08 f4       	brcc	.+2      	; 0x16be <APP_voidLoginSystem+0x39a>
    16bc:	65 ce       	rjmp	.-822    	; 0x1388 <APP_voidLoginSystem+0x64>
			if (Local_u8Counter == 3)
			{
				_delay_ms(200);
			}
		}
		LCD_voidClearDisplay();
    16be:	0e 94 72 1c 	call	0x38e4	; 0x38e4 <LCD_voidClearDisplay>

		if (Local_u8IDArrSize != 0)
    16c2:	fe 01       	movw	r30, r28
    16c4:	ee 5a       	subi	r30, 0xAE	; 174
    16c6:	ff 4f       	sbci	r31, 0xFF	; 255
    16c8:	80 81       	ld	r24, Z
    16ca:	88 23       	and	r24, r24
    16cc:	b1 f0       	breq	.+44     	; 0x16fa <APP_voidLoginSystem+0x3d6>
		{
			Local_u16ID = APP_u16StringtoNumber(Local_u8IDArray, 4);
    16ce:	ce 01       	movw	r24, r28
    16d0:	8c 5a       	subi	r24, 0xAC	; 172
    16d2:	9f 4f       	sbci	r25, 0xFF	; 255
    16d4:	64 e0       	ldi	r22, 0x04	; 4
    16d6:	0e 94 d6 0e 	call	0x1dac	; 0x1dac <APP_u16StringtoNumber>
    16da:	fe 01       	movw	r30, r28
    16dc:	e4 5b       	subi	r30, 0xB4	; 180
    16de:	ff 4f       	sbci	r31, 0xFF	; 255
    16e0:	91 83       	std	Z+1, r25	; 0x01
    16e2:	80 83       	st	Z, r24
			Local_u8CheckID = APP_u8CheckUserID(Local_u16ID);
    16e4:	fe 01       	movw	r30, r28
    16e6:	e4 5b       	subi	r30, 0xB4	; 180
    16e8:	ff 4f       	sbci	r31, 0xFF	; 255
    16ea:	80 81       	ld	r24, Z
    16ec:	91 81       	ldd	r25, Z+1	; 0x01
    16ee:	0e 94 49 0f 	call	0x1e92	; 0x1e92 <APP_u8CheckUserID>
    16f2:	fe 01       	movw	r30, r28
    16f4:	e2 5b       	subi	r30, 0xB2	; 178
    16f6:	ff 4f       	sbci	r31, 0xFF	; 255
    16f8:	80 83       	st	Z, r24
		}
		if (Local_u8CheckID == 1)
    16fa:	fe 01       	movw	r30, r28
    16fc:	e2 5b       	subi	r30, 0xB2	; 178
    16fe:	ff 4f       	sbci	r31, 0xFF	; 255
    1700:	80 81       	ld	r24, Z
    1702:	81 30       	cpi	r24, 0x01	; 1
    1704:	09 f0       	breq	.+2      	; 0x1708 <APP_voidLoginSystem+0x3e4>
    1706:	a3 c2       	rjmp	.+1350   	; 0x1c4e <APP_voidLoginSystem+0x92a>
    1708:	7e c2       	rjmp	.+1276   	; 0x1c06 <APP_voidLoginSystem+0x8e2>
		{
			while (Local_u8FlagTrials < 3)
			{
				LCD_voidSendString2("Enter Password: ");
    170a:	8b e6       	ldi	r24, 0x6B	; 107
    170c:	90 e0       	ldi	r25, 0x00	; 0
    170e:	0e 94 7c 1c 	call	0x38f8	; 0x38f8 <LCD_voidSendString2>
				for (Local_u8Counter2 = 0; Local_u8Counter2 < 4; Local_u8Counter2++)
    1712:	fe 01       	movw	r30, r28
    1714:	e1 5b       	subi	r30, 0xB1	; 177
    1716:	ff 4f       	sbci	r31, 0xFF	; 255
    1718:	10 82       	st	Z, r1
    171a:	ae c1       	rjmp	.+860    	; 0x1a78 <APP_voidLoginSystem+0x754>
				{
					do
					{
						Local_u8KPDKey = KPD_u8GetPressedKey();
    171c:	0e 94 66 18 	call	0x30cc	; 0x30cc <KPD_u8GetPressedKey>
    1720:	fe 01       	movw	r30, r28
    1722:	ed 5a       	subi	r30, 0xAD	; 173
    1724:	ff 4f       	sbci	r31, 0xFF	; 255
    1726:	80 83       	st	Z, r24

					} while (Local_u8KPDKey == 0xff);
    1728:	fe 01       	movw	r30, r28
    172a:	ed 5a       	subi	r30, 0xAD	; 173
    172c:	ff 4f       	sbci	r31, 0xFF	; 255
    172e:	80 81       	ld	r24, Z
    1730:	8f 3f       	cpi	r24, 0xFF	; 255
    1732:	a1 f3       	breq	.-24     	; 0x171c <APP_voidLoginSystem+0x3f8>
					if(Local_u8KPDKey==0||Local_u8KPDKey==1||Local_u8KPDKey==2||Local_u8KPDKey==3||Local_u8KPDKey==4||Local_u8KPDKey==5||Local_u8KPDKey==6||Local_u8KPDKey==7||Local_u8KPDKey==8||Local_u8KPDKey==9)
    1734:	fe 01       	movw	r30, r28
    1736:	ed 5a       	subi	r30, 0xAD	; 173
    1738:	ff 4f       	sbci	r31, 0xFF	; 255
    173a:	80 81       	ld	r24, Z
    173c:	88 23       	and	r24, r24
    173e:	b9 f1       	breq	.+110    	; 0x17ae <APP_voidLoginSystem+0x48a>
    1740:	fe 01       	movw	r30, r28
    1742:	ed 5a       	subi	r30, 0xAD	; 173
    1744:	ff 4f       	sbci	r31, 0xFF	; 255
    1746:	80 81       	ld	r24, Z
    1748:	81 30       	cpi	r24, 0x01	; 1
    174a:	89 f1       	breq	.+98     	; 0x17ae <APP_voidLoginSystem+0x48a>
    174c:	fe 01       	movw	r30, r28
    174e:	ed 5a       	subi	r30, 0xAD	; 173
    1750:	ff 4f       	sbci	r31, 0xFF	; 255
    1752:	80 81       	ld	r24, Z
    1754:	82 30       	cpi	r24, 0x02	; 2
    1756:	59 f1       	breq	.+86     	; 0x17ae <APP_voidLoginSystem+0x48a>
    1758:	fe 01       	movw	r30, r28
    175a:	ed 5a       	subi	r30, 0xAD	; 173
    175c:	ff 4f       	sbci	r31, 0xFF	; 255
    175e:	80 81       	ld	r24, Z
    1760:	83 30       	cpi	r24, 0x03	; 3
    1762:	29 f1       	breq	.+74     	; 0x17ae <APP_voidLoginSystem+0x48a>
    1764:	fe 01       	movw	r30, r28
    1766:	ed 5a       	subi	r30, 0xAD	; 173
    1768:	ff 4f       	sbci	r31, 0xFF	; 255
    176a:	80 81       	ld	r24, Z
    176c:	84 30       	cpi	r24, 0x04	; 4
    176e:	f9 f0       	breq	.+62     	; 0x17ae <APP_voidLoginSystem+0x48a>
    1770:	fe 01       	movw	r30, r28
    1772:	ed 5a       	subi	r30, 0xAD	; 173
    1774:	ff 4f       	sbci	r31, 0xFF	; 255
    1776:	80 81       	ld	r24, Z
    1778:	85 30       	cpi	r24, 0x05	; 5
    177a:	c9 f0       	breq	.+50     	; 0x17ae <APP_voidLoginSystem+0x48a>
    177c:	fe 01       	movw	r30, r28
    177e:	ed 5a       	subi	r30, 0xAD	; 173
    1780:	ff 4f       	sbci	r31, 0xFF	; 255
    1782:	80 81       	ld	r24, Z
    1784:	86 30       	cpi	r24, 0x06	; 6
    1786:	99 f0       	breq	.+38     	; 0x17ae <APP_voidLoginSystem+0x48a>
    1788:	fe 01       	movw	r30, r28
    178a:	ed 5a       	subi	r30, 0xAD	; 173
    178c:	ff 4f       	sbci	r31, 0xFF	; 255
    178e:	80 81       	ld	r24, Z
    1790:	87 30       	cpi	r24, 0x07	; 7
    1792:	69 f0       	breq	.+26     	; 0x17ae <APP_voidLoginSystem+0x48a>
    1794:	fe 01       	movw	r30, r28
    1796:	ed 5a       	subi	r30, 0xAD	; 173
    1798:	ff 4f       	sbci	r31, 0xFF	; 255
    179a:	80 81       	ld	r24, Z
    179c:	88 30       	cpi	r24, 0x08	; 8
    179e:	39 f0       	breq	.+14     	; 0x17ae <APP_voidLoginSystem+0x48a>
    17a0:	fe 01       	movw	r30, r28
    17a2:	ed 5a       	subi	r30, 0xAD	; 173
    17a4:	ff 4f       	sbci	r31, 0xFF	; 255
    17a6:	80 81       	ld	r24, Z
    17a8:	89 30       	cpi	r24, 0x09	; 9
    17aa:	09 f0       	breq	.+2      	; 0x17ae <APP_voidLoginSystem+0x48a>
    17ac:	aa c0       	rjmp	.+340    	; 0x1902 <APP_voidLoginSystem+0x5de>
					{
						Local_u8PassArray[Local_u8PassArrSize++] = Local_u8KPDKey;
    17ae:	fe 01       	movw	r30, r28
    17b0:	ef 5a       	subi	r30, 0xAF	; 175
    17b2:	ff 4f       	sbci	r31, 0xFF	; 255
    17b4:	80 81       	ld	r24, Z
    17b6:	28 2f       	mov	r18, r24
    17b8:	30 e0       	ldi	r19, 0x00	; 0
    17ba:	ce 01       	movw	r24, r28
    17bc:	88 5a       	subi	r24, 0xA8	; 168
    17be:	9f 4f       	sbci	r25, 0xFF	; 255
    17c0:	dc 01       	movw	r26, r24
    17c2:	a2 0f       	add	r26, r18
    17c4:	b3 1f       	adc	r27, r19
    17c6:	fe 01       	movw	r30, r28
    17c8:	ed 5a       	subi	r30, 0xAD	; 173
    17ca:	ff 4f       	sbci	r31, 0xFF	; 255
    17cc:	80 81       	ld	r24, Z
    17ce:	8c 93       	st	X, r24
    17d0:	de 01       	movw	r26, r28
    17d2:	af 5a       	subi	r26, 0xAF	; 175
    17d4:	bf 4f       	sbci	r27, 0xFF	; 255
    17d6:	fe 01       	movw	r30, r28
    17d8:	ef 5a       	subi	r30, 0xAF	; 175
    17da:	ff 4f       	sbci	r31, 0xFF	; 255
    17dc:	80 81       	ld	r24, Z
    17de:	8f 5f       	subi	r24, 0xFF	; 255
    17e0:	8c 93       	st	X, r24
						LCD_voidPositionSet(1, Local_u8Counter2);
    17e2:	fe 01       	movw	r30, r28
    17e4:	e1 5b       	subi	r30, 0xB1	; 177
    17e6:	ff 4f       	sbci	r31, 0xFF	; 255
    17e8:	81 e0       	ldi	r24, 0x01	; 1
    17ea:	60 81       	ld	r22, Z
    17ec:	0e 94 2b 1b 	call	0x3656	; 0x3656 <LCD_voidPositionSet>
						LCD_voidSendNumber(Local_u8KPDKey);
    17f0:	fe 01       	movw	r30, r28
    17f2:	ed 5a       	subi	r30, 0xAD	; 173
    17f4:	ff 4f       	sbci	r31, 0xFF	; 255
    17f6:	80 81       	ld	r24, Z
    17f8:	88 2f       	mov	r24, r24
    17fa:	90 e0       	ldi	r25, 0x00	; 0
    17fc:	a0 e0       	ldi	r26, 0x00	; 0
    17fe:	b0 e0       	ldi	r27, 0x00	; 0
    1800:	bc 01       	movw	r22, r24
    1802:	cd 01       	movw	r24, r26
    1804:	0e 94 89 1b 	call	0x3712	; 0x3712 <LCD_voidSendNumber>
    1808:	80 e0       	ldi	r24, 0x00	; 0
    180a:	90 e0       	ldi	r25, 0x00	; 0
    180c:	a8 ec       	ldi	r26, 0xC8	; 200
    180e:	b2 e4       	ldi	r27, 0x42	; 66
    1810:	8d ab       	std	Y+53, r24	; 0x35
    1812:	9e ab       	std	Y+54, r25	; 0x36
    1814:	af ab       	std	Y+55, r26	; 0x37
    1816:	b8 af       	std	Y+56, r27	; 0x38
 */
void
_delay_ms(double __ms)
{
	uint16_t __ticks;
	double __tmp = ((F_CPU) / 4e3) * __ms;
    1818:	6d a9       	ldd	r22, Y+53	; 0x35
    181a:	7e a9       	ldd	r23, Y+54	; 0x36
    181c:	8f a9       	ldd	r24, Y+55	; 0x37
    181e:	98 ad       	ldd	r25, Y+56	; 0x38
    1820:	20 e0       	ldi	r18, 0x00	; 0
    1822:	30 e0       	ldi	r19, 0x00	; 0
    1824:	4a ef       	ldi	r20, 0xFA	; 250
    1826:	54 e4       	ldi	r21, 0x44	; 68
    1828:	0e 94 1f 02 	call	0x43e	; 0x43e <__mulsf3>
    182c:	dc 01       	movw	r26, r24
    182e:	cb 01       	movw	r24, r22
    1830:	89 ab       	std	Y+49, r24	; 0x31
    1832:	9a ab       	std	Y+50, r25	; 0x32
    1834:	ab ab       	std	Y+51, r26	; 0x33
    1836:	bc ab       	std	Y+52, r27	; 0x34
	if (__tmp < 1.0)
    1838:	69 a9       	ldd	r22, Y+49	; 0x31
    183a:	7a a9       	ldd	r23, Y+50	; 0x32
    183c:	8b a9       	ldd	r24, Y+51	; 0x33
    183e:	9c a9       	ldd	r25, Y+52	; 0x34
    1840:	20 e0       	ldi	r18, 0x00	; 0
    1842:	30 e0       	ldi	r19, 0x00	; 0
    1844:	40 e8       	ldi	r20, 0x80	; 128
    1846:	5f e3       	ldi	r21, 0x3F	; 63
    1848:	0e 94 25 04 	call	0x84a	; 0x84a <__ltsf2>
    184c:	88 23       	and	r24, r24
    184e:	2c f4       	brge	.+10     	; 0x185a <APP_voidLoginSystem+0x536>
		__ticks = 1;
    1850:	81 e0       	ldi	r24, 0x01	; 1
    1852:	90 e0       	ldi	r25, 0x00	; 0
    1854:	98 ab       	std	Y+48, r25	; 0x30
    1856:	8f a7       	std	Y+47, r24	; 0x2f
    1858:	3f c0       	rjmp	.+126    	; 0x18d8 <APP_voidLoginSystem+0x5b4>
	else if (__tmp > 65535)
    185a:	69 a9       	ldd	r22, Y+49	; 0x31
    185c:	7a a9       	ldd	r23, Y+50	; 0x32
    185e:	8b a9       	ldd	r24, Y+51	; 0x33
    1860:	9c a9       	ldd	r25, Y+52	; 0x34
    1862:	20 e0       	ldi	r18, 0x00	; 0
    1864:	3f ef       	ldi	r19, 0xFF	; 255
    1866:	4f e7       	ldi	r20, 0x7F	; 127
    1868:	57 e4       	ldi	r21, 0x47	; 71
    186a:	0e 94 c5 03 	call	0x78a	; 0x78a <__gtsf2>
    186e:	18 16       	cp	r1, r24
    1870:	4c f5       	brge	.+82     	; 0x18c4 <APP_voidLoginSystem+0x5a0>
	{
		//	__ticks = requested delay in 1/10 ms
		__ticks = (uint16_t) (__ms * 10.0);
    1872:	6d a9       	ldd	r22, Y+53	; 0x35
    1874:	7e a9       	ldd	r23, Y+54	; 0x36
    1876:	8f a9       	ldd	r24, Y+55	; 0x37
    1878:	98 ad       	ldd	r25, Y+56	; 0x38
    187a:	20 e0       	ldi	r18, 0x00	; 0
    187c:	30 e0       	ldi	r19, 0x00	; 0
    187e:	40 e2       	ldi	r20, 0x20	; 32
    1880:	51 e4       	ldi	r21, 0x41	; 65
    1882:	0e 94 1f 02 	call	0x43e	; 0x43e <__mulsf3>
    1886:	dc 01       	movw	r26, r24
    1888:	cb 01       	movw	r24, r22
    188a:	bc 01       	movw	r22, r24
    188c:	cd 01       	movw	r24, r26
    188e:	0e 94 49 00 	call	0x92	; 0x92 <__fixunssfsi>
    1892:	dc 01       	movw	r26, r24
    1894:	cb 01       	movw	r24, r22
    1896:	98 ab       	std	Y+48, r25	; 0x30
    1898:	8f a7       	std	Y+47, r24	; 0x2f
    189a:	0f c0       	rjmp	.+30     	; 0x18ba <APP_voidLoginSystem+0x596>
    189c:	88 ec       	ldi	r24, 0xC8	; 200
    189e:	90 e0       	ldi	r25, 0x00	; 0
    18a0:	9e a7       	std	Y+46, r25	; 0x2e
    18a2:	8d a7       	std	Y+45, r24	; 0x2d
    18a4:	8d a5       	ldd	r24, Y+45	; 0x2d
    18a6:	9e a5       	ldd	r25, Y+46	; 0x2e
    18a8:	01 97       	sbiw	r24, 0x01	; 1
    18aa:	f1 f7       	brne	.-4      	; 0x18a8 <APP_voidLoginSystem+0x584>
    18ac:	9e a7       	std	Y+46, r25	; 0x2e
    18ae:	8d a7       	std	Y+45, r24	; 0x2d
		while(__ticks)
		{
			// wait 1/10 ms
			_delay_loop_2(((F_CPU) / 4e3) / 10);
			__ticks --;
    18b0:	8f a5       	ldd	r24, Y+47	; 0x2f
    18b2:	98 a9       	ldd	r25, Y+48	; 0x30
    18b4:	01 97       	sbiw	r24, 0x01	; 1
    18b6:	98 ab       	std	Y+48, r25	; 0x30
    18b8:	8f a7       	std	Y+47, r24	; 0x2f
		__ticks = 1;
	else if (__tmp > 65535)
	{
		//	__ticks = requested delay in 1/10 ms
		__ticks = (uint16_t) (__ms * 10.0);
		while(__ticks)
    18ba:	8f a5       	ldd	r24, Y+47	; 0x2f
    18bc:	98 a9       	ldd	r25, Y+48	; 0x30
    18be:	00 97       	sbiw	r24, 0x00	; 0
    18c0:	69 f7       	brne	.-38     	; 0x189c <APP_voidLoginSystem+0x578>
    18c2:	14 c0       	rjmp	.+40     	; 0x18ec <APP_voidLoginSystem+0x5c8>
			__ticks --;
		}
		return;
	}
	else
		__ticks = (uint16_t)__tmp;
    18c4:	69 a9       	ldd	r22, Y+49	; 0x31
    18c6:	7a a9       	ldd	r23, Y+50	; 0x32
    18c8:	8b a9       	ldd	r24, Y+51	; 0x33
    18ca:	9c a9       	ldd	r25, Y+52	; 0x34
    18cc:	0e 94 49 00 	call	0x92	; 0x92 <__fixunssfsi>
    18d0:	dc 01       	movw	r26, r24
    18d2:	cb 01       	movw	r24, r22
    18d4:	98 ab       	std	Y+48, r25	; 0x30
    18d6:	8f a7       	std	Y+47, r24	; 0x2f
    18d8:	8f a5       	ldd	r24, Y+47	; 0x2f
    18da:	98 a9       	ldd	r25, Y+48	; 0x30
    18dc:	9c a7       	std	Y+44, r25	; 0x2c
    18de:	8b a7       	std	Y+43, r24	; 0x2b
    18e0:	8b a5       	ldd	r24, Y+43	; 0x2b
    18e2:	9c a5       	ldd	r25, Y+44	; 0x2c
    18e4:	01 97       	sbiw	r24, 0x01	; 1
    18e6:	f1 f7       	brne	.-4      	; 0x18e4 <APP_voidLoginSystem+0x5c0>
    18e8:	9c a7       	std	Y+44, r25	; 0x2c
    18ea:	8b a7       	std	Y+43, r24	; 0x2b
						_delay_ms(100);
						LCD_voidPositionSet(1, Local_u8Counter2);
    18ec:	fe 01       	movw	r30, r28
    18ee:	e1 5b       	subi	r30, 0xB1	; 177
    18f0:	ff 4f       	sbci	r31, 0xFF	; 255
    18f2:	81 e0       	ldi	r24, 0x01	; 1
    18f4:	60 81       	ld	r22, Z
    18f6:	0e 94 2b 1b 	call	0x3656	; 0x3656 <LCD_voidPositionSet>
						LCD_voidSendData('*');
    18fa:	8a e2       	ldi	r24, 0x2A	; 42
    18fc:	0e 94 0a 1a 	call	0x3414	; 0x3414 <LCD_voidSendData>
    1900:	39 c0       	rjmp	.+114    	; 0x1974 <APP_voidLoginSystem+0x650>
					}
					else if (Local_u8KPDKey == 'C')
    1902:	fe 01       	movw	r30, r28
    1904:	ed 5a       	subi	r30, 0xAD	; 173
    1906:	ff 4f       	sbci	r31, 0xFF	; 255
    1908:	80 81       	ld	r24, Z
    190a:	83 34       	cpi	r24, 0x43	; 67
    190c:	99 f5       	brne	.+102    	; 0x1974 <APP_voidLoginSystem+0x650>
					{
						LCD_voidClearDisplay();
    190e:	0e 94 72 1c 	call	0x38e4	; 0x38e4 <LCD_voidClearDisplay>
						LCD_voidSendString2("Enter Password: ");
    1912:	8b e6       	ldi	r24, 0x6B	; 107
    1914:	90 e0       	ldi	r25, 0x00	; 0
    1916:	0e 94 7c 1c 	call	0x38f8	; 0x38f8 <LCD_voidSendString2>
						for (Local_u8Counter = 0; Local_u8Counter < Local_u8PassArrSize; Local_u8Counter++)
    191a:	fe 01       	movw	r30, r28
    191c:	e0 5b       	subi	r30, 0xB0	; 176
    191e:	ff 4f       	sbci	r31, 0xFF	; 255
    1920:	10 82       	st	Z, r1
    1922:	16 c0       	rjmp	.+44     	; 0x1950 <APP_voidLoginSystem+0x62c>
						{
							Local_u8PassArray[Local_u8Counter] = 0;
    1924:	fe 01       	movw	r30, r28
    1926:	e0 5b       	subi	r30, 0xB0	; 176
    1928:	ff 4f       	sbci	r31, 0xFF	; 255
    192a:	80 81       	ld	r24, Z
    192c:	28 2f       	mov	r18, r24
    192e:	30 e0       	ldi	r19, 0x00	; 0
    1930:	ce 01       	movw	r24, r28
    1932:	88 5a       	subi	r24, 0xA8	; 168
    1934:	9f 4f       	sbci	r25, 0xFF	; 255
    1936:	fc 01       	movw	r30, r24
    1938:	e2 0f       	add	r30, r18
    193a:	f3 1f       	adc	r31, r19
    193c:	10 82       	st	Z, r1
					}
					else if (Local_u8KPDKey == 'C')
					{
						LCD_voidClearDisplay();
						LCD_voidSendString2("Enter Password: ");
						for (Local_u8Counter = 0; Local_u8Counter < Local_u8PassArrSize; Local_u8Counter++)
    193e:	de 01       	movw	r26, r28
    1940:	a0 5b       	subi	r26, 0xB0	; 176
    1942:	bf 4f       	sbci	r27, 0xFF	; 255
    1944:	fe 01       	movw	r30, r28
    1946:	e0 5b       	subi	r30, 0xB0	; 176
    1948:	ff 4f       	sbci	r31, 0xFF	; 255
    194a:	80 81       	ld	r24, Z
    194c:	8f 5f       	subi	r24, 0xFF	; 255
    194e:	8c 93       	st	X, r24
    1950:	fe 01       	movw	r30, r28
    1952:	e0 5b       	subi	r30, 0xB0	; 176
    1954:	ff 4f       	sbci	r31, 0xFF	; 255
    1956:	de 01       	movw	r26, r28
    1958:	af 5a       	subi	r26, 0xAF	; 175
    195a:	bf 4f       	sbci	r27, 0xFF	; 255
    195c:	90 81       	ld	r25, Z
    195e:	8c 91       	ld	r24, X
    1960:	98 17       	cp	r25, r24
    1962:	00 f3       	brcs	.-64     	; 0x1924 <APP_voidLoginSystem+0x600>
						{
							Local_u8PassArray[Local_u8Counter] = 0;
						}
						Local_u8PassArrSize = 0;
    1964:	fe 01       	movw	r30, r28
    1966:	ef 5a       	subi	r30, 0xAF	; 175
    1968:	ff 4f       	sbci	r31, 0xFF	; 255
    196a:	10 82       	st	Z, r1
						Local_u8Counter2=0;
    196c:	fe 01       	movw	r30, r28
    196e:	e1 5b       	subi	r30, 0xB1	; 177
    1970:	ff 4f       	sbci	r31, 0xFF	; 255
    1972:	10 82       	st	Z, r1
					}
					if (Local_u8Counter2 == 3)
    1974:	fe 01       	movw	r30, r28
    1976:	e1 5b       	subi	r30, 0xB1	; 177
    1978:	ff 4f       	sbci	r31, 0xFF	; 255
    197a:	80 81       	ld	r24, Z
    197c:	83 30       	cpi	r24, 0x03	; 3
    197e:	09 f0       	breq	.+2      	; 0x1982 <APP_voidLoginSystem+0x65e>
    1980:	72 c0       	rjmp	.+228    	; 0x1a66 <APP_voidLoginSystem+0x742>
    1982:	80 e0       	ldi	r24, 0x00	; 0
    1984:	90 e0       	ldi	r25, 0x00	; 0
    1986:	a6 e1       	ldi	r26, 0x16	; 22
    1988:	b3 e4       	ldi	r27, 0x43	; 67
    198a:	8f a3       	std	Y+39, r24	; 0x27
    198c:	98 a7       	std	Y+40, r25	; 0x28
    198e:	a9 a7       	std	Y+41, r26	; 0x29
    1990:	ba a7       	std	Y+42, r27	; 0x2a
 */
void
_delay_ms(double __ms)
{
	uint16_t __ticks;
	double __tmp = ((F_CPU) / 4e3) * __ms;
    1992:	6f a1       	ldd	r22, Y+39	; 0x27
    1994:	78 a5       	ldd	r23, Y+40	; 0x28
    1996:	89 a5       	ldd	r24, Y+41	; 0x29
    1998:	9a a5       	ldd	r25, Y+42	; 0x2a
    199a:	20 e0       	ldi	r18, 0x00	; 0
    199c:	30 e0       	ldi	r19, 0x00	; 0
    199e:	4a ef       	ldi	r20, 0xFA	; 250
    19a0:	54 e4       	ldi	r21, 0x44	; 68
    19a2:	0e 94 1f 02 	call	0x43e	; 0x43e <__mulsf3>
    19a6:	dc 01       	movw	r26, r24
    19a8:	cb 01       	movw	r24, r22
    19aa:	8b a3       	std	Y+35, r24	; 0x23
    19ac:	9c a3       	std	Y+36, r25	; 0x24
    19ae:	ad a3       	std	Y+37, r26	; 0x25
    19b0:	be a3       	std	Y+38, r27	; 0x26
	if (__tmp < 1.0)
    19b2:	6b a1       	ldd	r22, Y+35	; 0x23
    19b4:	7c a1       	ldd	r23, Y+36	; 0x24
    19b6:	8d a1       	ldd	r24, Y+37	; 0x25
    19b8:	9e a1       	ldd	r25, Y+38	; 0x26
    19ba:	20 e0       	ldi	r18, 0x00	; 0
    19bc:	30 e0       	ldi	r19, 0x00	; 0
    19be:	40 e8       	ldi	r20, 0x80	; 128
    19c0:	5f e3       	ldi	r21, 0x3F	; 63
    19c2:	0e 94 25 04 	call	0x84a	; 0x84a <__ltsf2>
    19c6:	88 23       	and	r24, r24
    19c8:	2c f4       	brge	.+10     	; 0x19d4 <APP_voidLoginSystem+0x6b0>
		__ticks = 1;
    19ca:	81 e0       	ldi	r24, 0x01	; 1
    19cc:	90 e0       	ldi	r25, 0x00	; 0
    19ce:	9a a3       	std	Y+34, r25	; 0x22
    19d0:	89 a3       	std	Y+33, r24	; 0x21
    19d2:	3f c0       	rjmp	.+126    	; 0x1a52 <APP_voidLoginSystem+0x72e>
	else if (__tmp > 65535)
    19d4:	6b a1       	ldd	r22, Y+35	; 0x23
    19d6:	7c a1       	ldd	r23, Y+36	; 0x24
    19d8:	8d a1       	ldd	r24, Y+37	; 0x25
    19da:	9e a1       	ldd	r25, Y+38	; 0x26
    19dc:	20 e0       	ldi	r18, 0x00	; 0
    19de:	3f ef       	ldi	r19, 0xFF	; 255
    19e0:	4f e7       	ldi	r20, 0x7F	; 127
    19e2:	57 e4       	ldi	r21, 0x47	; 71
    19e4:	0e 94 c5 03 	call	0x78a	; 0x78a <__gtsf2>
    19e8:	18 16       	cp	r1, r24
    19ea:	4c f5       	brge	.+82     	; 0x1a3e <APP_voidLoginSystem+0x71a>
	{
		//	__ticks = requested delay in 1/10 ms
		__ticks = (uint16_t) (__ms * 10.0);
    19ec:	6f a1       	ldd	r22, Y+39	; 0x27
    19ee:	78 a5       	ldd	r23, Y+40	; 0x28
    19f0:	89 a5       	ldd	r24, Y+41	; 0x29
    19f2:	9a a5       	ldd	r25, Y+42	; 0x2a
    19f4:	20 e0       	ldi	r18, 0x00	; 0
    19f6:	30 e0       	ldi	r19, 0x00	; 0
    19f8:	40 e2       	ldi	r20, 0x20	; 32
    19fa:	51 e4       	ldi	r21, 0x41	; 65
    19fc:	0e 94 1f 02 	call	0x43e	; 0x43e <__mulsf3>
    1a00:	dc 01       	movw	r26, r24
    1a02:	cb 01       	movw	r24, r22
    1a04:	bc 01       	movw	r22, r24
    1a06:	cd 01       	movw	r24, r26
    1a08:	0e 94 49 00 	call	0x92	; 0x92 <__fixunssfsi>
    1a0c:	dc 01       	movw	r26, r24
    1a0e:	cb 01       	movw	r24, r22
    1a10:	9a a3       	std	Y+34, r25	; 0x22
    1a12:	89 a3       	std	Y+33, r24	; 0x21
    1a14:	0f c0       	rjmp	.+30     	; 0x1a34 <APP_voidLoginSystem+0x710>
    1a16:	88 ec       	ldi	r24, 0xC8	; 200
    1a18:	90 e0       	ldi	r25, 0x00	; 0
    1a1a:	98 a3       	std	Y+32, r25	; 0x20
    1a1c:	8f 8f       	std	Y+31, r24	; 0x1f
    1a1e:	8f 8d       	ldd	r24, Y+31	; 0x1f
    1a20:	98 a1       	ldd	r25, Y+32	; 0x20
    1a22:	01 97       	sbiw	r24, 0x01	; 1
    1a24:	f1 f7       	brne	.-4      	; 0x1a22 <APP_voidLoginSystem+0x6fe>
    1a26:	98 a3       	std	Y+32, r25	; 0x20
    1a28:	8f 8f       	std	Y+31, r24	; 0x1f
		while(__ticks)
		{
			// wait 1/10 ms
			_delay_loop_2(((F_CPU) / 4e3) / 10);
			__ticks --;
    1a2a:	89 a1       	ldd	r24, Y+33	; 0x21
    1a2c:	9a a1       	ldd	r25, Y+34	; 0x22
    1a2e:	01 97       	sbiw	r24, 0x01	; 1
    1a30:	9a a3       	std	Y+34, r25	; 0x22
    1a32:	89 a3       	std	Y+33, r24	; 0x21
		__ticks = 1;
	else if (__tmp > 65535)
	{
		//	__ticks = requested delay in 1/10 ms
		__ticks = (uint16_t) (__ms * 10.0);
		while(__ticks)
    1a34:	89 a1       	ldd	r24, Y+33	; 0x21
    1a36:	9a a1       	ldd	r25, Y+34	; 0x22
    1a38:	00 97       	sbiw	r24, 0x00	; 0
    1a3a:	69 f7       	brne	.-38     	; 0x1a16 <APP_voidLoginSystem+0x6f2>
    1a3c:	14 c0       	rjmp	.+40     	; 0x1a66 <APP_voidLoginSystem+0x742>
			__ticks --;
		}
		return;
	}
	else
		__ticks = (uint16_t)__tmp;
    1a3e:	6b a1       	ldd	r22, Y+35	; 0x23
    1a40:	7c a1       	ldd	r23, Y+36	; 0x24
    1a42:	8d a1       	ldd	r24, Y+37	; 0x25
    1a44:	9e a1       	ldd	r25, Y+38	; 0x26
    1a46:	0e 94 49 00 	call	0x92	; 0x92 <__fixunssfsi>
    1a4a:	dc 01       	movw	r26, r24
    1a4c:	cb 01       	movw	r24, r22
    1a4e:	9a a3       	std	Y+34, r25	; 0x22
    1a50:	89 a3       	std	Y+33, r24	; 0x21
    1a52:	89 a1       	ldd	r24, Y+33	; 0x21
    1a54:	9a a1       	ldd	r25, Y+34	; 0x22
    1a56:	9e 8f       	std	Y+30, r25	; 0x1e
    1a58:	8d 8f       	std	Y+29, r24	; 0x1d
    1a5a:	8d 8d       	ldd	r24, Y+29	; 0x1d
    1a5c:	9e 8d       	ldd	r25, Y+30	; 0x1e
    1a5e:	01 97       	sbiw	r24, 0x01	; 1
    1a60:	f1 f7       	brne	.-4      	; 0x1a5e <APP_voidLoginSystem+0x73a>
    1a62:	9e 8f       	std	Y+30, r25	; 0x1e
    1a64:	8d 8f       	std	Y+29, r24	; 0x1d
		if (Local_u8CheckID == 1)
		{
			while (Local_u8FlagTrials < 3)
			{
				LCD_voidSendString2("Enter Password: ");
				for (Local_u8Counter2 = 0; Local_u8Counter2 < 4; Local_u8Counter2++)
    1a66:	de 01       	movw	r26, r28
    1a68:	a1 5b       	subi	r26, 0xB1	; 177
    1a6a:	bf 4f       	sbci	r27, 0xFF	; 255
    1a6c:	fe 01       	movw	r30, r28
    1a6e:	e1 5b       	subi	r30, 0xB1	; 177
    1a70:	ff 4f       	sbci	r31, 0xFF	; 255
    1a72:	80 81       	ld	r24, Z
    1a74:	8f 5f       	subi	r24, 0xFF	; 255
    1a76:	8c 93       	st	X, r24
    1a78:	fe 01       	movw	r30, r28
    1a7a:	e1 5b       	subi	r30, 0xB1	; 177
    1a7c:	ff 4f       	sbci	r31, 0xFF	; 255
    1a7e:	80 81       	ld	r24, Z
    1a80:	84 30       	cpi	r24, 0x04	; 4
    1a82:	08 f4       	brcc	.+2      	; 0x1a86 <APP_voidLoginSystem+0x762>
    1a84:	4b ce       	rjmp	.-874    	; 0x171c <APP_voidLoginSystem+0x3f8>
					if (Local_u8Counter2 == 3)
					{
						_delay_ms(150);
					}
				}
				LCD_voidClearDisplay();
    1a86:	0e 94 72 1c 	call	0x38e4	; 0x38e4 <LCD_voidClearDisplay>
				Local_u16Pass = APP_u16StringtoNumber(Local_u8PassArray, 4);
    1a8a:	ce 01       	movw	r24, r28
    1a8c:	88 5a       	subi	r24, 0xA8	; 168
    1a8e:	9f 4f       	sbci	r25, 0xFF	; 255
    1a90:	64 e0       	ldi	r22, 0x04	; 4
    1a92:	0e 94 d6 0e 	call	0x1dac	; 0x1dac <APP_u16StringtoNumber>
    1a96:	fe 01       	movw	r30, r28
    1a98:	e6 5b       	subi	r30, 0xB6	; 182
    1a9a:	ff 4f       	sbci	r31, 0xFF	; 255
    1a9c:	91 83       	std	Z+1, r25	; 0x01
    1a9e:	80 83       	st	Z, r24
				Local_u8CheckPass = APP_u8CheckUserPassword(Local_u16Pass);
    1aa0:	fe 01       	movw	r30, r28
    1aa2:	e6 5b       	subi	r30, 0xB6	; 182
    1aa4:	ff 4f       	sbci	r31, 0xFF	; 255
    1aa6:	80 81       	ld	r24, Z
    1aa8:	91 81       	ldd	r25, Z+1	; 0x01
    1aaa:	0e 94 79 0f 	call	0x1ef2	; 0x1ef2 <APP_u8CheckUserPassword>
    1aae:	fe 01       	movw	r30, r28
    1ab0:	e8 5b       	subi	r30, 0xB8	; 184
    1ab2:	ff 4f       	sbci	r31, 0xFF	; 255
    1ab4:	88 2f       	mov	r24, r24
    1ab6:	90 e0       	ldi	r25, 0x00	; 0
    1ab8:	91 83       	std	Z+1, r25	; 0x01
    1aba:	80 83       	st	Z, r24
				if (Local_u8CheckPass == 1)
    1abc:	fe 01       	movw	r30, r28
    1abe:	e8 5b       	subi	r30, 0xB8	; 184
    1ac0:	ff 4f       	sbci	r31, 0xFF	; 255
    1ac2:	80 81       	ld	r24, Z
    1ac4:	91 81       	ldd	r25, Z+1	; 0x01
    1ac6:	81 30       	cpi	r24, 0x01	; 1
    1ac8:	91 05       	cpc	r25, r1
    1aca:	09 f4       	brne	.+2      	; 0x1ace <APP_voidLoginSystem+0x7aa>
    1acc:	a3 c0       	rjmp	.+326    	; 0x1c14 <APP_voidLoginSystem+0x8f0>
				{
					break;
				}
				else if (Local_u8CheckPass == 0 && Local_u8FlagTrials < 2)
    1ace:	fe 01       	movw	r30, r28
    1ad0:	e8 5b       	subi	r30, 0xB8	; 184
    1ad2:	ff 4f       	sbci	r31, 0xFF	; 255
    1ad4:	80 81       	ld	r24, Z
    1ad6:	91 81       	ldd	r25, Z+1	; 0x01
    1ad8:	00 97       	sbiw	r24, 0x00	; 0
    1ada:	09 f0       	breq	.+2      	; 0x1ade <APP_voidLoginSystem+0x7ba>
    1adc:	87 c0       	rjmp	.+270    	; 0x1bec <APP_voidLoginSystem+0x8c8>
    1ade:	fe 01       	movw	r30, r28
    1ae0:	e9 5b       	subi	r30, 0xB9	; 185
    1ae2:	ff 4f       	sbci	r31, 0xFF	; 255
    1ae4:	80 81       	ld	r24, Z
    1ae6:	82 30       	cpi	r24, 0x02	; 2
    1ae8:	08 f0       	brcs	.+2      	; 0x1aec <APP_voidLoginSystem+0x7c8>
    1aea:	80 c0       	rjmp	.+256    	; 0x1bec <APP_voidLoginSystem+0x8c8>
				{
					LCD_voidSendString2("Incorrect!");
    1aec:	8c e7       	ldi	r24, 0x7C	; 124
    1aee:	90 e0       	ldi	r25, 0x00	; 0
    1af0:	0e 94 7c 1c 	call	0x38f8	; 0x38f8 <LCD_voidSendString2>
					LCD_voidPositionSet(1, 0);
    1af4:	81 e0       	ldi	r24, 0x01	; 1
    1af6:	60 e0       	ldi	r22, 0x00	; 0
    1af8:	0e 94 2b 1b 	call	0x3656	; 0x3656 <LCD_voidPositionSet>
					LCD_voidSendString2("Try Again..");
    1afc:	87 e8       	ldi	r24, 0x87	; 135
    1afe:	90 e0       	ldi	r25, 0x00	; 0
    1b00:	0e 94 7c 1c 	call	0x38f8	; 0x38f8 <LCD_voidSendString2>
    1b04:	80 e0       	ldi	r24, 0x00	; 0
    1b06:	90 e0       	ldi	r25, 0x00	; 0
    1b08:	aa ef       	ldi	r26, 0xFA	; 250
    1b0a:	b3 e4       	ldi	r27, 0x43	; 67
    1b0c:	89 8f       	std	Y+25, r24	; 0x19
    1b0e:	9a 8f       	std	Y+26, r25	; 0x1a
    1b10:	ab 8f       	std	Y+27, r26	; 0x1b
    1b12:	bc 8f       	std	Y+28, r27	; 0x1c
 */
void
_delay_ms(double __ms)
{
	uint16_t __ticks;
	double __tmp = ((F_CPU) / 4e3) * __ms;
    1b14:	69 8d       	ldd	r22, Y+25	; 0x19
    1b16:	7a 8d       	ldd	r23, Y+26	; 0x1a
    1b18:	8b 8d       	ldd	r24, Y+27	; 0x1b
    1b1a:	9c 8d       	ldd	r25, Y+28	; 0x1c
    1b1c:	20 e0       	ldi	r18, 0x00	; 0
    1b1e:	30 e0       	ldi	r19, 0x00	; 0
    1b20:	4a ef       	ldi	r20, 0xFA	; 250
    1b22:	54 e4       	ldi	r21, 0x44	; 68
    1b24:	0e 94 1f 02 	call	0x43e	; 0x43e <__mulsf3>
    1b28:	dc 01       	movw	r26, r24
    1b2a:	cb 01       	movw	r24, r22
    1b2c:	8d 8b       	std	Y+21, r24	; 0x15
    1b2e:	9e 8b       	std	Y+22, r25	; 0x16
    1b30:	af 8b       	std	Y+23, r26	; 0x17
    1b32:	b8 8f       	std	Y+24, r27	; 0x18
	if (__tmp < 1.0)
    1b34:	6d 89       	ldd	r22, Y+21	; 0x15
    1b36:	7e 89       	ldd	r23, Y+22	; 0x16
    1b38:	8f 89       	ldd	r24, Y+23	; 0x17
    1b3a:	98 8d       	ldd	r25, Y+24	; 0x18
    1b3c:	20 e0       	ldi	r18, 0x00	; 0
    1b3e:	30 e0       	ldi	r19, 0x00	; 0
    1b40:	40 e8       	ldi	r20, 0x80	; 128
    1b42:	5f e3       	ldi	r21, 0x3F	; 63
    1b44:	0e 94 25 04 	call	0x84a	; 0x84a <__ltsf2>
    1b48:	88 23       	and	r24, r24
    1b4a:	2c f4       	brge	.+10     	; 0x1b56 <APP_voidLoginSystem+0x832>
		__ticks = 1;
    1b4c:	81 e0       	ldi	r24, 0x01	; 1
    1b4e:	90 e0       	ldi	r25, 0x00	; 0
    1b50:	9c 8b       	std	Y+20, r25	; 0x14
    1b52:	8b 8b       	std	Y+19, r24	; 0x13
    1b54:	3f c0       	rjmp	.+126    	; 0x1bd4 <APP_voidLoginSystem+0x8b0>
	else if (__tmp > 65535)
    1b56:	6d 89       	ldd	r22, Y+21	; 0x15
    1b58:	7e 89       	ldd	r23, Y+22	; 0x16
    1b5a:	8f 89       	ldd	r24, Y+23	; 0x17
    1b5c:	98 8d       	ldd	r25, Y+24	; 0x18
    1b5e:	20 e0       	ldi	r18, 0x00	; 0
    1b60:	3f ef       	ldi	r19, 0xFF	; 255
    1b62:	4f e7       	ldi	r20, 0x7F	; 127
    1b64:	57 e4       	ldi	r21, 0x47	; 71
    1b66:	0e 94 c5 03 	call	0x78a	; 0x78a <__gtsf2>
    1b6a:	18 16       	cp	r1, r24
    1b6c:	4c f5       	brge	.+82     	; 0x1bc0 <APP_voidLoginSystem+0x89c>
	{
		//	__ticks = requested delay in 1/10 ms
		__ticks = (uint16_t) (__ms * 10.0);
    1b6e:	69 8d       	ldd	r22, Y+25	; 0x19
    1b70:	7a 8d       	ldd	r23, Y+26	; 0x1a
    1b72:	8b 8d       	ldd	r24, Y+27	; 0x1b
    1b74:	9c 8d       	ldd	r25, Y+28	; 0x1c
    1b76:	20 e0       	ldi	r18, 0x00	; 0
    1b78:	30 e0       	ldi	r19, 0x00	; 0
    1b7a:	40 e2       	ldi	r20, 0x20	; 32
    1b7c:	51 e4       	ldi	r21, 0x41	; 65
    1b7e:	0e 94 1f 02 	call	0x43e	; 0x43e <__mulsf3>
    1b82:	dc 01       	movw	r26, r24
    1b84:	cb 01       	movw	r24, r22
    1b86:	bc 01       	movw	r22, r24
    1b88:	cd 01       	movw	r24, r26
    1b8a:	0e 94 49 00 	call	0x92	; 0x92 <__fixunssfsi>
    1b8e:	dc 01       	movw	r26, r24
    1b90:	cb 01       	movw	r24, r22
    1b92:	9c 8b       	std	Y+20, r25	; 0x14
    1b94:	8b 8b       	std	Y+19, r24	; 0x13
    1b96:	0f c0       	rjmp	.+30     	; 0x1bb6 <APP_voidLoginSystem+0x892>
    1b98:	88 ec       	ldi	r24, 0xC8	; 200
    1b9a:	90 e0       	ldi	r25, 0x00	; 0
    1b9c:	9a 8b       	std	Y+18, r25	; 0x12
    1b9e:	89 8b       	std	Y+17, r24	; 0x11
    1ba0:	89 89       	ldd	r24, Y+17	; 0x11
    1ba2:	9a 89       	ldd	r25, Y+18	; 0x12
    1ba4:	01 97       	sbiw	r24, 0x01	; 1
    1ba6:	f1 f7       	brne	.-4      	; 0x1ba4 <APP_voidLoginSystem+0x880>
    1ba8:	9a 8b       	std	Y+18, r25	; 0x12
    1baa:	89 8b       	std	Y+17, r24	; 0x11
		while(__ticks)
		{
			// wait 1/10 ms
			_delay_loop_2(((F_CPU) / 4e3) / 10);
			__ticks --;
    1bac:	8b 89       	ldd	r24, Y+19	; 0x13
    1bae:	9c 89       	ldd	r25, Y+20	; 0x14
    1bb0:	01 97       	sbiw	r24, 0x01	; 1
    1bb2:	9c 8b       	std	Y+20, r25	; 0x14
    1bb4:	8b 8b       	std	Y+19, r24	; 0x13
		__ticks = 1;
	else if (__tmp > 65535)
	{
		//	__ticks = requested delay in 1/10 ms
		__ticks = (uint16_t) (__ms * 10.0);
		while(__ticks)
    1bb6:	8b 89       	ldd	r24, Y+19	; 0x13
    1bb8:	9c 89       	ldd	r25, Y+20	; 0x14
    1bba:	00 97       	sbiw	r24, 0x00	; 0
    1bbc:	69 f7       	brne	.-38     	; 0x1b98 <APP_voidLoginSystem+0x874>
    1bbe:	14 c0       	rjmp	.+40     	; 0x1be8 <APP_voidLoginSystem+0x8c4>
			__ticks --;
		}
		return;
	}
	else
		__ticks = (uint16_t)__tmp;
    1bc0:	6d 89       	ldd	r22, Y+21	; 0x15
    1bc2:	7e 89       	ldd	r23, Y+22	; 0x16
    1bc4:	8f 89       	ldd	r24, Y+23	; 0x17
    1bc6:	98 8d       	ldd	r25, Y+24	; 0x18
    1bc8:	0e 94 49 00 	call	0x92	; 0x92 <__fixunssfsi>
    1bcc:	dc 01       	movw	r26, r24
    1bce:	cb 01       	movw	r24, r22
    1bd0:	9c 8b       	std	Y+20, r25	; 0x14
    1bd2:	8b 8b       	std	Y+19, r24	; 0x13
    1bd4:	8b 89       	ldd	r24, Y+19	; 0x13
    1bd6:	9c 89       	ldd	r25, Y+20	; 0x14
    1bd8:	98 8b       	std	Y+16, r25	; 0x10
    1bda:	8f 87       	std	Y+15, r24	; 0x0f
    1bdc:	8f 85       	ldd	r24, Y+15	; 0x0f
    1bde:	98 89       	ldd	r25, Y+16	; 0x10
    1be0:	01 97       	sbiw	r24, 0x01	; 1
    1be2:	f1 f7       	brne	.-4      	; 0x1be0 <APP_voidLoginSystem+0x8bc>
    1be4:	98 8b       	std	Y+16, r25	; 0x10
    1be6:	8f 87       	std	Y+15, r24	; 0x0f
					_delay_ms(500);
					LCD_voidClearDisplay();
    1be8:	0e 94 72 1c 	call	0x38e4	; 0x38e4 <LCD_voidClearDisplay>
				}
				Local_u8FlagTrials++;
    1bec:	de 01       	movw	r26, r28
    1bee:	a9 5b       	subi	r26, 0xB9	; 185
    1bf0:	bf 4f       	sbci	r27, 0xFF	; 255
    1bf2:	fe 01       	movw	r30, r28
    1bf4:	e9 5b       	subi	r30, 0xB9	; 185
    1bf6:	ff 4f       	sbci	r31, 0xFF	; 255
    1bf8:	80 81       	ld	r24, Z
    1bfa:	8f 5f       	subi	r24, 0xFF	; 255
    1bfc:	8c 93       	st	X, r24
				Local_u8PassArrSize = 0;
    1bfe:	fe 01       	movw	r30, r28
    1c00:	ef 5a       	subi	r30, 0xAF	; 175
    1c02:	ff 4f       	sbci	r31, 0xFF	; 255
    1c04:	10 82       	st	Z, r1
			Local_u16ID = APP_u16StringtoNumber(Local_u8IDArray, 4);
			Local_u8CheckID = APP_u8CheckUserID(Local_u16ID);
		}
		if (Local_u8CheckID == 1)
		{
			while (Local_u8FlagTrials < 3)
    1c06:	fe 01       	movw	r30, r28
    1c08:	e9 5b       	subi	r30, 0xB9	; 185
    1c0a:	ff 4f       	sbci	r31, 0xFF	; 255
    1c0c:	80 81       	ld	r24, Z
    1c0e:	83 30       	cpi	r24, 0x03	; 3
    1c10:	08 f4       	brcc	.+2      	; 0x1c14 <APP_voidLoginSystem+0x8f0>
    1c12:	7b cd       	rjmp	.-1290   	; 0x170a <APP_voidLoginSystem+0x3e6>
				}
				Local_u8FlagTrials++;
				Local_u8PassArrSize = 0;
			}

			Local_u8PassArrSize = 0;
    1c14:	fe 01       	movw	r30, r28
    1c16:	ef 5a       	subi	r30, 0xAF	; 175
    1c18:	ff 4f       	sbci	r31, 0xFF	; 255
    1c1a:	10 82       	st	Z, r1
			if (Local_u8FlagTrials == 3 && Local_u8CheckPass != 1)
    1c1c:	fe 01       	movw	r30, r28
    1c1e:	e9 5b       	subi	r30, 0xB9	; 185
    1c20:	ff 4f       	sbci	r31, 0xFF	; 255
    1c22:	80 81       	ld	r24, Z
    1c24:	83 30       	cpi	r24, 0x03	; 3
    1c26:	71 f4       	brne	.+28     	; 0x1c44 <APP_voidLoginSystem+0x920>
    1c28:	fe 01       	movw	r30, r28
    1c2a:	e8 5b       	subi	r30, 0xB8	; 184
    1c2c:	ff 4f       	sbci	r31, 0xFF	; 255
    1c2e:	80 81       	ld	r24, Z
    1c30:	91 81       	ldd	r25, Z+1	; 0x01
    1c32:	81 30       	cpi	r24, 0x01	; 1
    1c34:	91 05       	cpc	r25, r1
    1c36:	31 f0       	breq	.+12     	; 0x1c44 <APP_voidLoginSystem+0x920>
			{
				LCD_voidSendString2("Calling Police...");
    1c38:	83 e9       	ldi	r24, 0x93	; 147
    1c3a:	90 e0       	ldi	r25, 0x00	; 0
    1c3c:	0e 94 7c 1c 	call	0x38f8	; 0x38f8 <LCD_voidSendString2>
				APP_voidCallingPolice();
    1c40:	0e 94 e8 0f 	call	0x1fd0	; 0x1fd0 <APP_voidCallingPolice>
			}
			/*else
			{

			}*/
			Local_u8FlagTrials = 0;
    1c44:	fe 01       	movw	r30, r28
    1c46:	e9 5b       	subi	r30, 0xB9	; 185
    1c48:	ff 4f       	sbci	r31, 0xFF	; 255
    1c4a:	10 82       	st	Z, r1
    1c4c:	8e c0       	rjmp	.+284    	; 0x1d6a <APP_voidLoginSystem+0xa46>
		}
		else if (Local_u8CheckID == 0 && Local_u8IDArrSize != 0)
    1c4e:	fe 01       	movw	r30, r28
    1c50:	e2 5b       	subi	r30, 0xB2	; 178
    1c52:	ff 4f       	sbci	r31, 0xFF	; 255
    1c54:	80 81       	ld	r24, Z
    1c56:	88 23       	and	r24, r24
    1c58:	09 f0       	breq	.+2      	; 0x1c5c <APP_voidLoginSystem+0x938>
    1c5a:	87 c0       	rjmp	.+270    	; 0x1d6a <APP_voidLoginSystem+0xa46>
    1c5c:	fe 01       	movw	r30, r28
    1c5e:	ee 5a       	subi	r30, 0xAE	; 174
    1c60:	ff 4f       	sbci	r31, 0xFF	; 255
    1c62:	80 81       	ld	r24, Z
    1c64:	88 23       	and	r24, r24
    1c66:	09 f4       	brne	.+2      	; 0x1c6a <APP_voidLoginSystem+0x946>
    1c68:	80 c0       	rjmp	.+256    	; 0x1d6a <APP_voidLoginSystem+0xa46>
		{
			LCD_voidSendString2("Incorrect!");
    1c6a:	8c e7       	ldi	r24, 0x7C	; 124
    1c6c:	90 e0       	ldi	r25, 0x00	; 0
    1c6e:	0e 94 7c 1c 	call	0x38f8	; 0x38f8 <LCD_voidSendString2>
			LCD_voidPositionSet(1, 0);
    1c72:	81 e0       	ldi	r24, 0x01	; 1
    1c74:	60 e0       	ldi	r22, 0x00	; 0
    1c76:	0e 94 2b 1b 	call	0x3656	; 0x3656 <LCD_voidPositionSet>
			LCD_voidSendString2("Try Again..");
    1c7a:	87 e8       	ldi	r24, 0x87	; 135
    1c7c:	90 e0       	ldi	r25, 0x00	; 0
    1c7e:	0e 94 7c 1c 	call	0x38f8	; 0x38f8 <LCD_voidSendString2>
    1c82:	80 e0       	ldi	r24, 0x00	; 0
    1c84:	90 e0       	ldi	r25, 0x00	; 0
    1c86:	aa ef       	ldi	r26, 0xFA	; 250
    1c88:	b3 e4       	ldi	r27, 0x43	; 67
    1c8a:	8b 87       	std	Y+11, r24	; 0x0b
    1c8c:	9c 87       	std	Y+12, r25	; 0x0c
    1c8e:	ad 87       	std	Y+13, r26	; 0x0d
    1c90:	be 87       	std	Y+14, r27	; 0x0e
 */
void
_delay_ms(double __ms)
{
	uint16_t __ticks;
	double __tmp = ((F_CPU) / 4e3) * __ms;
    1c92:	6b 85       	ldd	r22, Y+11	; 0x0b
    1c94:	7c 85       	ldd	r23, Y+12	; 0x0c
    1c96:	8d 85       	ldd	r24, Y+13	; 0x0d
    1c98:	9e 85       	ldd	r25, Y+14	; 0x0e
    1c9a:	20 e0       	ldi	r18, 0x00	; 0
    1c9c:	30 e0       	ldi	r19, 0x00	; 0
    1c9e:	4a ef       	ldi	r20, 0xFA	; 250
    1ca0:	54 e4       	ldi	r21, 0x44	; 68
    1ca2:	0e 94 1f 02 	call	0x43e	; 0x43e <__mulsf3>
    1ca6:	dc 01       	movw	r26, r24
    1ca8:	cb 01       	movw	r24, r22
    1caa:	8f 83       	std	Y+7, r24	; 0x07
    1cac:	98 87       	std	Y+8, r25	; 0x08
    1cae:	a9 87       	std	Y+9, r26	; 0x09
    1cb0:	ba 87       	std	Y+10, r27	; 0x0a
	if (__tmp < 1.0)
    1cb2:	6f 81       	ldd	r22, Y+7	; 0x07
    1cb4:	78 85       	ldd	r23, Y+8	; 0x08
    1cb6:	89 85       	ldd	r24, Y+9	; 0x09
    1cb8:	9a 85       	ldd	r25, Y+10	; 0x0a
    1cba:	20 e0       	ldi	r18, 0x00	; 0
    1cbc:	30 e0       	ldi	r19, 0x00	; 0
    1cbe:	40 e8       	ldi	r20, 0x80	; 128
    1cc0:	5f e3       	ldi	r21, 0x3F	; 63
    1cc2:	0e 94 25 04 	call	0x84a	; 0x84a <__ltsf2>
    1cc6:	88 23       	and	r24, r24
    1cc8:	2c f4       	brge	.+10     	; 0x1cd4 <APP_voidLoginSystem+0x9b0>
		__ticks = 1;
    1cca:	81 e0       	ldi	r24, 0x01	; 1
    1ccc:	90 e0       	ldi	r25, 0x00	; 0
    1cce:	9e 83       	std	Y+6, r25	; 0x06
    1cd0:	8d 83       	std	Y+5, r24	; 0x05
    1cd2:	3f c0       	rjmp	.+126    	; 0x1d52 <APP_voidLoginSystem+0xa2e>
	else if (__tmp > 65535)
    1cd4:	6f 81       	ldd	r22, Y+7	; 0x07
    1cd6:	78 85       	ldd	r23, Y+8	; 0x08
    1cd8:	89 85       	ldd	r24, Y+9	; 0x09
    1cda:	9a 85       	ldd	r25, Y+10	; 0x0a
    1cdc:	20 e0       	ldi	r18, 0x00	; 0
    1cde:	3f ef       	ldi	r19, 0xFF	; 255
    1ce0:	4f e7       	ldi	r20, 0x7F	; 127
    1ce2:	57 e4       	ldi	r21, 0x47	; 71
    1ce4:	0e 94 c5 03 	call	0x78a	; 0x78a <__gtsf2>
    1ce8:	18 16       	cp	r1, r24
    1cea:	4c f5       	brge	.+82     	; 0x1d3e <APP_voidLoginSystem+0xa1a>
	{
		//	__ticks = requested delay in 1/10 ms
		__ticks = (uint16_t) (__ms * 10.0);
    1cec:	6b 85       	ldd	r22, Y+11	; 0x0b
    1cee:	7c 85       	ldd	r23, Y+12	; 0x0c
    1cf0:	8d 85       	ldd	r24, Y+13	; 0x0d
    1cf2:	9e 85       	ldd	r25, Y+14	; 0x0e
    1cf4:	20 e0       	ldi	r18, 0x00	; 0
    1cf6:	30 e0       	ldi	r19, 0x00	; 0
    1cf8:	40 e2       	ldi	r20, 0x20	; 32
    1cfa:	51 e4       	ldi	r21, 0x41	; 65
    1cfc:	0e 94 1f 02 	call	0x43e	; 0x43e <__mulsf3>
    1d00:	dc 01       	movw	r26, r24
    1d02:	cb 01       	movw	r24, r22
    1d04:	bc 01       	movw	r22, r24
    1d06:	cd 01       	movw	r24, r26
    1d08:	0e 94 49 00 	call	0x92	; 0x92 <__fixunssfsi>
    1d0c:	dc 01       	movw	r26, r24
    1d0e:	cb 01       	movw	r24, r22
    1d10:	9e 83       	std	Y+6, r25	; 0x06
    1d12:	8d 83       	std	Y+5, r24	; 0x05
    1d14:	0f c0       	rjmp	.+30     	; 0x1d34 <APP_voidLoginSystem+0xa10>
    1d16:	88 ec       	ldi	r24, 0xC8	; 200
    1d18:	90 e0       	ldi	r25, 0x00	; 0
    1d1a:	9c 83       	std	Y+4, r25	; 0x04
    1d1c:	8b 83       	std	Y+3, r24	; 0x03
    1d1e:	8b 81       	ldd	r24, Y+3	; 0x03
    1d20:	9c 81       	ldd	r25, Y+4	; 0x04
    1d22:	01 97       	sbiw	r24, 0x01	; 1
    1d24:	f1 f7       	brne	.-4      	; 0x1d22 <APP_voidLoginSystem+0x9fe>
    1d26:	9c 83       	std	Y+4, r25	; 0x04
    1d28:	8b 83       	std	Y+3, r24	; 0x03
		while(__ticks)
		{
			// wait 1/10 ms
			_delay_loop_2(((F_CPU) / 4e3) / 10);
			__ticks --;
    1d2a:	8d 81       	ldd	r24, Y+5	; 0x05
    1d2c:	9e 81       	ldd	r25, Y+6	; 0x06
    1d2e:	01 97       	sbiw	r24, 0x01	; 1
    1d30:	9e 83       	std	Y+6, r25	; 0x06
    1d32:	8d 83       	std	Y+5, r24	; 0x05
		__ticks = 1;
	else if (__tmp > 65535)
	{
		//	__ticks = requested delay in 1/10 ms
		__ticks = (uint16_t) (__ms * 10.0);
		while(__ticks)
    1d34:	8d 81       	ldd	r24, Y+5	; 0x05
    1d36:	9e 81       	ldd	r25, Y+6	; 0x06
    1d38:	00 97       	sbiw	r24, 0x00	; 0
    1d3a:	69 f7       	brne	.-38     	; 0x1d16 <APP_voidLoginSystem+0x9f2>
    1d3c:	14 c0       	rjmp	.+40     	; 0x1d66 <APP_voidLoginSystem+0xa42>
			__ticks --;
		}
		return;
	}
	else
		__ticks = (uint16_t)__tmp;
    1d3e:	6f 81       	ldd	r22, Y+7	; 0x07
    1d40:	78 85       	ldd	r23, Y+8	; 0x08
    1d42:	89 85       	ldd	r24, Y+9	; 0x09
    1d44:	9a 85       	ldd	r25, Y+10	; 0x0a
    1d46:	0e 94 49 00 	call	0x92	; 0x92 <__fixunssfsi>
    1d4a:	dc 01       	movw	r26, r24
    1d4c:	cb 01       	movw	r24, r22
    1d4e:	9e 83       	std	Y+6, r25	; 0x06
    1d50:	8d 83       	std	Y+5, r24	; 0x05
    1d52:	8d 81       	ldd	r24, Y+5	; 0x05
    1d54:	9e 81       	ldd	r25, Y+6	; 0x06
    1d56:	9a 83       	std	Y+2, r25	; 0x02
    1d58:	89 83       	std	Y+1, r24	; 0x01
    1d5a:	89 81       	ldd	r24, Y+1	; 0x01
    1d5c:	9a 81       	ldd	r25, Y+2	; 0x02
    1d5e:	01 97       	sbiw	r24, 0x01	; 1
    1d60:	f1 f7       	brne	.-4      	; 0x1d5e <APP_voidLoginSystem+0xa3a>
    1d62:	9a 83       	std	Y+2, r25	; 0x02
    1d64:	89 83       	std	Y+1, r24	; 0x01
			_delay_ms(500);
			LCD_voidClearDisplay();
    1d66:	0e 94 72 1c 	call	0x38e4	; 0x38e4 <LCD_voidClearDisplay>
		}
		Local_u8IDArrSize = 0;
    1d6a:	fe 01       	movw	r30, r28
    1d6c:	ee 5a       	subi	r30, 0xAE	; 174
    1d6e:	ff 4f       	sbci	r31, 0xFF	; 255
    1d70:	10 82       	st	Z, r1
		if (Local_u8CheckPass == 1 || Local_u8FlagTrials == 3)
    1d72:	fe 01       	movw	r30, r28
    1d74:	e8 5b       	subi	r30, 0xB8	; 184
    1d76:	ff 4f       	sbci	r31, 0xFF	; 255
    1d78:	80 81       	ld	r24, Z
    1d7a:	91 81       	ldd	r25, Z+1	; 0x01
    1d7c:	81 30       	cpi	r24, 0x01	; 1
    1d7e:	91 05       	cpc	r25, r1
    1d80:	49 f0       	breq	.+18     	; 0x1d94 <APP_voidLoginSystem+0xa70>
    1d82:	fe 01       	movw	r30, r28
    1d84:	e9 5b       	subi	r30, 0xB9	; 185
    1d86:	ff 4f       	sbci	r31, 0xFF	; 255
    1d88:	80 81       	ld	r24, Z
    1d8a:	83 30       	cpi	r24, 0x03	; 3
    1d8c:	19 f0       	breq	.+6      	; 0x1d94 <APP_voidLoginSystem+0xa70>
		{
			break;

		}
		LCD_voidClearDisplay();
    1d8e:	0e 94 72 1c 	call	0x38e4	; 0x38e4 <LCD_voidClearDisplay>
    1d92:	ef ca       	rjmp	.-2594   	; 0x1372 <APP_voidLoginSystem+0x4e>
		else
		{

		}*/
	}
}
    1d94:	c5 5a       	subi	r28, 0xA5	; 165
    1d96:	df 4f       	sbci	r29, 0xFF	; 255
    1d98:	0f b6       	in	r0, 0x3f	; 63
    1d9a:	f8 94       	cli
    1d9c:	de bf       	out	0x3e, r29	; 62
    1d9e:	0f be       	out	0x3f, r0	; 63
    1da0:	cd bf       	out	0x3d, r28	; 61
    1da2:	cf 91       	pop	r28
    1da4:	df 91       	pop	r29
    1da6:	1f 91       	pop	r17
    1da8:	0f 91       	pop	r16
    1daa:	08 95       	ret

00001dac <APP_u16StringtoNumber>:
/*************************************************************************************************************************/

u16 APP_u16StringtoNumber(u8 *Copy_u8String, u8 Copy_u8StringSize)
{
    1dac:	df 93       	push	r29
    1dae:	cf 93       	push	r28
    1db0:	cd b7       	in	r28, 0x3d	; 61
    1db2:	de b7       	in	r29, 0x3e	; 62
    1db4:	2a 97       	sbiw	r28, 0x0a	; 10
    1db6:	0f b6       	in	r0, 0x3f	; 63
    1db8:	f8 94       	cli
    1dba:	de bf       	out	0x3e, r29	; 62
    1dbc:	0f be       	out	0x3f, r0	; 63
    1dbe:	cd bf       	out	0x3d, r28	; 61
    1dc0:	99 87       	std	Y+9, r25	; 0x09
    1dc2:	88 87       	std	Y+8, r24	; 0x08
    1dc4:	6a 87       	std	Y+10, r22	; 0x0a
	u16 Local_u16Number = 0;
    1dc6:	1f 82       	std	Y+7, r1	; 0x07
    1dc8:	1e 82       	std	Y+6, r1	; 0x06
	u8 Local_u8Index = 0;
    1dca:	1d 82       	std	Y+5, r1	; 0x05
	u32 Local_u32Val = 0;
    1dcc:	19 82       	std	Y+1, r1	; 0x01
    1dce:	1a 82       	std	Y+2, r1	; 0x02
    1dd0:	1b 82       	std	Y+3, r1	; 0x03
    1dd2:	1c 82       	std	Y+4, r1	; 0x04
    1dd4:	4e c0       	rjmp	.+156    	; 0x1e72 <APP_u16StringtoNumber+0xc6>
	while (Local_u8Index < Copy_u8StringSize)
	{
		Local_u32Val = Copy_u8String[Local_u8Index];
    1dd6:	8d 81       	ldd	r24, Y+5	; 0x05
    1dd8:	28 2f       	mov	r18, r24
    1dda:	30 e0       	ldi	r19, 0x00	; 0
    1ddc:	88 85       	ldd	r24, Y+8	; 0x08
    1dde:	99 85       	ldd	r25, Y+9	; 0x09
    1de0:	fc 01       	movw	r30, r24
    1de2:	e2 0f       	add	r30, r18
    1de4:	f3 1f       	adc	r31, r19
    1de6:	80 81       	ld	r24, Z
    1de8:	88 2f       	mov	r24, r24
    1dea:	90 e0       	ldi	r25, 0x00	; 0
    1dec:	a0 e0       	ldi	r26, 0x00	; 0
    1dee:	b0 e0       	ldi	r27, 0x00	; 0
    1df0:	89 83       	std	Y+1, r24	; 0x01
    1df2:	9a 83       	std	Y+2, r25	; 0x02
    1df4:	ab 83       	std	Y+3, r26	; 0x03
    1df6:	bc 83       	std	Y+4, r27	; 0x04
    1df8:	20 c0       	rjmp	.+64     	; 0x1e3a <APP_u16StringtoNumber+0x8e>
		while (Local_u32Val != 0)
		{
			Local_u32Val = Local_u32Val / 10;
    1dfa:	89 81       	ldd	r24, Y+1	; 0x01
    1dfc:	9a 81       	ldd	r25, Y+2	; 0x02
    1dfe:	ab 81       	ldd	r26, Y+3	; 0x03
    1e00:	bc 81       	ldd	r27, Y+4	; 0x04
    1e02:	2a e0       	ldi	r18, 0x0A	; 10
    1e04:	30 e0       	ldi	r19, 0x00	; 0
    1e06:	40 e0       	ldi	r20, 0x00	; 0
    1e08:	50 e0       	ldi	r21, 0x00	; 0
    1e0a:	bc 01       	movw	r22, r24
    1e0c:	cd 01       	movw	r24, r26
    1e0e:	0e 94 1b 3d 	call	0x7a36	; 0x7a36 <__udivmodsi4>
    1e12:	da 01       	movw	r26, r20
    1e14:	c9 01       	movw	r24, r18
    1e16:	89 83       	std	Y+1, r24	; 0x01
    1e18:	9a 83       	std	Y+2, r25	; 0x02
    1e1a:	ab 83       	std	Y+3, r26	; 0x03
    1e1c:	bc 83       	std	Y+4, r27	; 0x04
			Local_u16Number = Local_u16Number * 10;
    1e1e:	8e 81       	ldd	r24, Y+6	; 0x06
    1e20:	9f 81       	ldd	r25, Y+7	; 0x07
    1e22:	9c 01       	movw	r18, r24
    1e24:	22 0f       	add	r18, r18
    1e26:	33 1f       	adc	r19, r19
    1e28:	c9 01       	movw	r24, r18
    1e2a:	88 0f       	add	r24, r24
    1e2c:	99 1f       	adc	r25, r25
    1e2e:	88 0f       	add	r24, r24
    1e30:	99 1f       	adc	r25, r25
    1e32:	82 0f       	add	r24, r18
    1e34:	93 1f       	adc	r25, r19
    1e36:	9f 83       	std	Y+7, r25	; 0x07
    1e38:	8e 83       	std	Y+6, r24	; 0x06
	u8 Local_u8Index = 0;
	u32 Local_u32Val = 0;
	while (Local_u8Index < Copy_u8StringSize)
	{
		Local_u32Val = Copy_u8String[Local_u8Index];
		while (Local_u32Val != 0)
    1e3a:	89 81       	ldd	r24, Y+1	; 0x01
    1e3c:	9a 81       	ldd	r25, Y+2	; 0x02
    1e3e:	ab 81       	ldd	r26, Y+3	; 0x03
    1e40:	bc 81       	ldd	r27, Y+4	; 0x04
    1e42:	00 97       	sbiw	r24, 0x00	; 0
    1e44:	a1 05       	cpc	r26, r1
    1e46:	b1 05       	cpc	r27, r1
    1e48:	c1 f6       	brne	.-80     	; 0x1dfa <APP_u16StringtoNumber+0x4e>
		{
			Local_u32Val = Local_u32Val / 10;
			Local_u16Number = Local_u16Number * 10;
		}
		Local_u16Number = Local_u16Number + Copy_u8String[Local_u8Index];
    1e4a:	8d 81       	ldd	r24, Y+5	; 0x05
    1e4c:	28 2f       	mov	r18, r24
    1e4e:	30 e0       	ldi	r19, 0x00	; 0
    1e50:	88 85       	ldd	r24, Y+8	; 0x08
    1e52:	99 85       	ldd	r25, Y+9	; 0x09
    1e54:	fc 01       	movw	r30, r24
    1e56:	e2 0f       	add	r30, r18
    1e58:	f3 1f       	adc	r31, r19
    1e5a:	80 81       	ld	r24, Z
    1e5c:	28 2f       	mov	r18, r24
    1e5e:	30 e0       	ldi	r19, 0x00	; 0
    1e60:	8e 81       	ldd	r24, Y+6	; 0x06
    1e62:	9f 81       	ldd	r25, Y+7	; 0x07
    1e64:	82 0f       	add	r24, r18
    1e66:	93 1f       	adc	r25, r19
    1e68:	9f 83       	std	Y+7, r25	; 0x07
    1e6a:	8e 83       	std	Y+6, r24	; 0x06
		Local_u8Index++;
    1e6c:	8d 81       	ldd	r24, Y+5	; 0x05
    1e6e:	8f 5f       	subi	r24, 0xFF	; 255
    1e70:	8d 83       	std	Y+5, r24	; 0x05
u16 APP_u16StringtoNumber(u8 *Copy_u8String, u8 Copy_u8StringSize)
{
	u16 Local_u16Number = 0;
	u8 Local_u8Index = 0;
	u32 Local_u32Val = 0;
	while (Local_u8Index < Copy_u8StringSize)
    1e72:	9d 81       	ldd	r25, Y+5	; 0x05
    1e74:	8a 85       	ldd	r24, Y+10	; 0x0a
    1e76:	98 17       	cp	r25, r24
    1e78:	08 f4       	brcc	.+2      	; 0x1e7c <APP_u16StringtoNumber+0xd0>
    1e7a:	ad cf       	rjmp	.-166    	; 0x1dd6 <APP_u16StringtoNumber+0x2a>
		}
		Local_u16Number = Local_u16Number + Copy_u8String[Local_u8Index];
		Local_u8Index++;
	}

	return Local_u16Number;
    1e7c:	8e 81       	ldd	r24, Y+6	; 0x06
    1e7e:	9f 81       	ldd	r25, Y+7	; 0x07
}
    1e80:	2a 96       	adiw	r28, 0x0a	; 10
    1e82:	0f b6       	in	r0, 0x3f	; 63
    1e84:	f8 94       	cli
    1e86:	de bf       	out	0x3e, r29	; 62
    1e88:	0f be       	out	0x3f, r0	; 63
    1e8a:	cd bf       	out	0x3d, r28	; 61
    1e8c:	cf 91       	pop	r28
    1e8e:	df 91       	pop	r29
    1e90:	08 95       	ret

00001e92 <APP_u8CheckUserID>:
/*************************************************************************************************************************/

u8 APP_u8CheckUserID(u16 Copy_u16EnteredData)
{
    1e92:	df 93       	push	r29
    1e94:	cf 93       	push	r28
    1e96:	00 d0       	rcall	.+0      	; 0x1e98 <APP_u8CheckUserID+0x6>
    1e98:	00 d0       	rcall	.+0      	; 0x1e9a <APP_u8CheckUserID+0x8>
    1e9a:	cd b7       	in	r28, 0x3d	; 61
    1e9c:	de b7       	in	r29, 0x3e	; 62
    1e9e:	9c 83       	std	Y+4, r25	; 0x04
    1ea0:	8b 83       	std	Y+3, r24	; 0x03
	u8 Local_u8Counter, Local_u8CheckID = NVALID;
    1ea2:	19 82       	std	Y+1, r1	; 0x01

	for (Local_u8Counter = 0; Local_u8Counter < 10; Local_u8Counter++)
    1ea4:	1a 82       	std	Y+2, r1	; 0x02
    1ea6:	1a c0       	rjmp	.+52     	; 0x1edc <APP_u8CheckUserID+0x4a>
	{
		if ((APP_Users[Local_u8Counter][0]) == Copy_u16EnteredData)
    1ea8:	8a 81       	ldd	r24, Y+2	; 0x02
    1eaa:	88 2f       	mov	r24, r24
    1eac:	90 e0       	ldi	r25, 0x00	; 0
    1eae:	88 0f       	add	r24, r24
    1eb0:	99 1f       	adc	r25, r25
    1eb2:	88 0f       	add	r24, r24
    1eb4:	99 1f       	adc	r25, r25
    1eb6:	fc 01       	movw	r30, r24
    1eb8:	e3 52       	subi	r30, 0x23	; 35
    1eba:	fd 4f       	sbci	r31, 0xFD	; 253
    1ebc:	20 81       	ld	r18, Z
    1ebe:	31 81       	ldd	r19, Z+1	; 0x01
    1ec0:	8b 81       	ldd	r24, Y+3	; 0x03
    1ec2:	9c 81       	ldd	r25, Y+4	; 0x04
    1ec4:	28 17       	cp	r18, r24
    1ec6:	39 07       	cpc	r19, r25
    1ec8:	31 f4       	brne	.+12     	; 0x1ed6 <APP_u8CheckUserID+0x44>
		{
			Local_u8CheckID = VALID;
    1eca:	81 e0       	ldi	r24, 0x01	; 1
    1ecc:	89 83       	std	Y+1, r24	; 0x01
			APP_UserIDInx = Local_u8Counter;
    1ece:	8a 81       	ldd	r24, Y+2	; 0x02
    1ed0:	80 93 05 03 	sts	0x0305, r24
    1ed4:	06 c0       	rjmp	.+12     	; 0x1ee2 <APP_u8CheckUserID+0x50>

u8 APP_u8CheckUserID(u16 Copy_u16EnteredData)
{
	u8 Local_u8Counter, Local_u8CheckID = NVALID;

	for (Local_u8Counter = 0; Local_u8Counter < 10; Local_u8Counter++)
    1ed6:	8a 81       	ldd	r24, Y+2	; 0x02
    1ed8:	8f 5f       	subi	r24, 0xFF	; 255
    1eda:	8a 83       	std	Y+2, r24	; 0x02
    1edc:	8a 81       	ldd	r24, Y+2	; 0x02
    1ede:	8a 30       	cpi	r24, 0x0A	; 10
    1ee0:	18 f3       	brcs	.-58     	; 0x1ea8 <APP_u8CheckUserID+0x16>
			Local_u8CheckID = VALID;
			APP_UserIDInx = Local_u8Counter;
			break;
		}
	}
	return Local_u8CheckID;
    1ee2:	89 81       	ldd	r24, Y+1	; 0x01
}
    1ee4:	0f 90       	pop	r0
    1ee6:	0f 90       	pop	r0
    1ee8:	0f 90       	pop	r0
    1eea:	0f 90       	pop	r0
    1eec:	cf 91       	pop	r28
    1eee:	df 91       	pop	r29
    1ef0:	08 95       	ret

00001ef2 <APP_u8CheckUserPassword>:
/*************************************************************************************************************************/

u8 APP_u8CheckUserPassword(u16 Copy_u16EnteredData)
{
    1ef2:	df 93       	push	r29
    1ef4:	cf 93       	push	r28
    1ef6:	00 d0       	rcall	.+0      	; 0x1ef8 <APP_u8CheckUserPassword+0x6>
    1ef8:	0f 92       	push	r0
    1efa:	cd b7       	in	r28, 0x3d	; 61
    1efc:	de b7       	in	r29, 0x3e	; 62
    1efe:	9b 83       	std	Y+3, r25	; 0x03
    1f00:	8a 83       	std	Y+2, r24	; 0x02
	u8 Local_u8CheckID = NVALID;
    1f02:	19 82       	std	Y+1, r1	; 0x01

	if (APP_UserIDInx >= 0)
    1f04:	80 91 05 03 	lds	r24, 0x0305
    1f08:	88 23       	and	r24, r24
    1f0a:	cc f0       	brlt	.+50     	; 0x1f3e <APP_u8CheckUserPassword+0x4c>
	{
		if ((APP_Users[APP_UserIDInx][1]) == Copy_u16EnteredData)
    1f0c:	80 91 05 03 	lds	r24, 0x0305
    1f10:	99 27       	eor	r25, r25
    1f12:	87 fd       	sbrc	r24, 7
    1f14:	90 95       	com	r25
    1f16:	88 0f       	add	r24, r24
    1f18:	99 1f       	adc	r25, r25
    1f1a:	01 96       	adiw	r24, 0x01	; 1
    1f1c:	88 0f       	add	r24, r24
    1f1e:	99 1f       	adc	r25, r25
    1f20:	fc 01       	movw	r30, r24
    1f22:	e3 52       	subi	r30, 0x23	; 35
    1f24:	fd 4f       	sbci	r31, 0xFD	; 253
    1f26:	20 81       	ld	r18, Z
    1f28:	31 81       	ldd	r19, Z+1	; 0x01
    1f2a:	8a 81       	ldd	r24, Y+2	; 0x02
    1f2c:	9b 81       	ldd	r25, Y+3	; 0x03
    1f2e:	28 17       	cp	r18, r24
    1f30:	39 07       	cpc	r19, r25
    1f32:	29 f4       	brne	.+10     	; 0x1f3e <APP_u8CheckUserPassword+0x4c>
		{
			Local_u8CheckID = VALID;
    1f34:	81 e0       	ldi	r24, 0x01	; 1
    1f36:	89 83       	std	Y+1, r24	; 0x01
			APP_UserIDInx = -1;
    1f38:	8f ef       	ldi	r24, 0xFF	; 255
    1f3a:	80 93 05 03 	sts	0x0305, r24
		}
	}
	return Local_u8CheckID;
    1f3e:	89 81       	ldd	r24, Y+1	; 0x01
}
    1f40:	0f 90       	pop	r0
    1f42:	0f 90       	pop	r0
    1f44:	0f 90       	pop	r0
    1f46:	cf 91       	pop	r28
    1f48:	df 91       	pop	r29
    1f4a:	08 95       	ret

00001f4c <APP_voidLight_ON>:
/*************************************************************************************************************************/

/*************************************************************************************************************************/
void APP_voidLight_ON()
{
    1f4c:	df 93       	push	r29
    1f4e:	cf 93       	push	r28
    1f50:	cd b7       	in	r28, 0x3d	; 61
    1f52:	de b7       	in	r29, 0x3e	; 62
	LCD_voidClearDisplay();
    1f54:	0e 94 72 1c 	call	0x38e4	; 0x38e4 <LCD_voidClearDisplay>
	LCD_voidSendString2("___Light is ON___");
    1f58:	85 ea       	ldi	r24, 0xA5	; 165
    1f5a:	90 e0       	ldi	r25, 0x00	; 0
    1f5c:	0e 94 7c 1c 	call	0x38f8	; 0x38f8 <LCD_voidSendString2>

	DIO_u8SetPinValue(LIGHT_PORT, LIGHT_PIN1, DIO_u8PIN_HIGH);
    1f60:	80 e0       	ldi	r24, 0x00	; 0
    1f62:	60 e0       	ldi	r22, 0x00	; 0
    1f64:	41 e0       	ldi	r20, 0x01	; 1
    1f66:	0e 94 b2 13 	call	0x2764	; 0x2764 <DIO_u8SetPinValue>
	DIO_u8SetPinValue(LIGHT_PORT, LIGHT_PIN2, DIO_u8PIN_HIGH);
    1f6a:	80 e0       	ldi	r24, 0x00	; 0
    1f6c:	61 e0       	ldi	r22, 0x01	; 1
    1f6e:	41 e0       	ldi	r20, 0x01	; 1
    1f70:	0e 94 b2 13 	call	0x2764	; 0x2764 <DIO_u8SetPinValue>
	DIO_u8SetPinValue(LIGHT_PORT, LIGHT_PIN3, DIO_u8PIN_HIGH);
    1f74:	80 e0       	ldi	r24, 0x00	; 0
    1f76:	62 e0       	ldi	r22, 0x02	; 2
    1f78:	41 e0       	ldi	r20, 0x01	; 1
    1f7a:	0e 94 b2 13 	call	0x2764	; 0x2764 <DIO_u8SetPinValue>
	DIO_u8SetPinValue(LIGHT_PORT, LIGHT_PIN4, DIO_u8PIN_HIGH);
    1f7e:	80 e0       	ldi	r24, 0x00	; 0
    1f80:	63 e0       	ldi	r22, 0x03	; 3
    1f82:	41 e0       	ldi	r20, 0x01	; 1
    1f84:	0e 94 b2 13 	call	0x2764	; 0x2764 <DIO_u8SetPinValue>
}
    1f88:	cf 91       	pop	r28
    1f8a:	df 91       	pop	r29
    1f8c:	08 95       	ret

00001f8e <APP_voidLight_OFF>:
/*************************************************************************************************************************/

void APP_voidLight_OFF()
{
    1f8e:	df 93       	push	r29
    1f90:	cf 93       	push	r28
    1f92:	cd b7       	in	r28, 0x3d	; 61
    1f94:	de b7       	in	r29, 0x3e	; 62
	LCD_voidClearDisplay();
    1f96:	0e 94 72 1c 	call	0x38e4	; 0x38e4 <LCD_voidClearDisplay>
	LCD_voidSendString2("__Light is OFF__");
    1f9a:	87 eb       	ldi	r24, 0xB7	; 183
    1f9c:	90 e0       	ldi	r25, 0x00	; 0
    1f9e:	0e 94 7c 1c 	call	0x38f8	; 0x38f8 <LCD_voidSendString2>

	DIO_u8SetPinValue(LIGHT_PORT, LIGHT_PIN1, DIO_u8PIN_LOW);
    1fa2:	80 e0       	ldi	r24, 0x00	; 0
    1fa4:	60 e0       	ldi	r22, 0x00	; 0
    1fa6:	40 e0       	ldi	r20, 0x00	; 0
    1fa8:	0e 94 b2 13 	call	0x2764	; 0x2764 <DIO_u8SetPinValue>
	DIO_u8SetPinValue(LIGHT_PORT, LIGHT_PIN2, DIO_u8PIN_LOW);
    1fac:	80 e0       	ldi	r24, 0x00	; 0
    1fae:	61 e0       	ldi	r22, 0x01	; 1
    1fb0:	40 e0       	ldi	r20, 0x00	; 0
    1fb2:	0e 94 b2 13 	call	0x2764	; 0x2764 <DIO_u8SetPinValue>
	DIO_u8SetPinValue(LIGHT_PORT, LIGHT_PIN3, DIO_u8PIN_LOW);
    1fb6:	80 e0       	ldi	r24, 0x00	; 0
    1fb8:	62 e0       	ldi	r22, 0x02	; 2
    1fba:	40 e0       	ldi	r20, 0x00	; 0
    1fbc:	0e 94 b2 13 	call	0x2764	; 0x2764 <DIO_u8SetPinValue>
	DIO_u8SetPinValue(LIGHT_PORT, LIGHT_PIN4, DIO_u8PIN_LOW);
    1fc0:	80 e0       	ldi	r24, 0x00	; 0
    1fc2:	63 e0       	ldi	r22, 0x03	; 3
    1fc4:	40 e0       	ldi	r20, 0x00	; 0
    1fc6:	0e 94 b2 13 	call	0x2764	; 0x2764 <DIO_u8SetPinValue>
}
    1fca:	cf 91       	pop	r28
    1fcc:	df 91       	pop	r29
    1fce:	08 95       	ret

00001fd0 <APP_voidCallingPolice>:
/*************************************************************************************************************************/
void APP_voidCallingPolice()
{
    1fd0:	df 93       	push	r29
    1fd2:	cf 93       	push	r28
    1fd4:	cd b7       	in	r28, 0x3d	; 61
    1fd6:	de b7       	in	r29, 0x3e	; 62
    1fd8:	6c 97       	sbiw	r28, 0x1c	; 28
    1fda:	0f b6       	in	r0, 0x3f	; 63
    1fdc:	f8 94       	cli
    1fde:	de bf       	out	0x3e, r29	; 62
    1fe0:	0f be       	out	0x3f, r0	; 63
    1fe2:	cd bf       	out	0x3d, r28	; 61
	GIE_voidDisable();
    1fe4:	0e 94 58 18 	call	0x30b0	; 0x30b0 <GIE_voidDisable>
	while (1)
	{
		DIO_u8SetPinValue(RED_LIGHT_PORT,RED_LIGHT_PIN, DIO_u8PIN_HIGH);
    1fe8:	80 e0       	ldi	r24, 0x00	; 0
    1fea:	60 e0       	ldi	r22, 0x00	; 0
    1fec:	41 e0       	ldi	r20, 0x01	; 1
    1fee:	0e 94 b2 13 	call	0x2764	; 0x2764 <DIO_u8SetPinValue>
		DIO_u8SetPinValue(BUZZER_PORT, BUZZER_PIN, DIO_u8PIN_HIGH);
    1ff2:	80 e0       	ldi	r24, 0x00	; 0
    1ff4:	65 e0       	ldi	r22, 0x05	; 5
    1ff6:	41 e0       	ldi	r20, 0x01	; 1
    1ff8:	0e 94 b2 13 	call	0x2764	; 0x2764 <DIO_u8SetPinValue>
    1ffc:	80 e0       	ldi	r24, 0x00	; 0
    1ffe:	90 e0       	ldi	r25, 0x00	; 0
    2000:	aa e7       	ldi	r26, 0x7A	; 122
    2002:	b3 e4       	ldi	r27, 0x43	; 67
    2004:	89 8f       	std	Y+25, r24	; 0x19
    2006:	9a 8f       	std	Y+26, r25	; 0x1a
    2008:	ab 8f       	std	Y+27, r26	; 0x1b
    200a:	bc 8f       	std	Y+28, r27	; 0x1c
 */
void
_delay_ms(double __ms)
{
	uint16_t __ticks;
	double __tmp = ((F_CPU) / 4e3) * __ms;
    200c:	69 8d       	ldd	r22, Y+25	; 0x19
    200e:	7a 8d       	ldd	r23, Y+26	; 0x1a
    2010:	8b 8d       	ldd	r24, Y+27	; 0x1b
    2012:	9c 8d       	ldd	r25, Y+28	; 0x1c
    2014:	20 e0       	ldi	r18, 0x00	; 0
    2016:	30 e0       	ldi	r19, 0x00	; 0
    2018:	4a ef       	ldi	r20, 0xFA	; 250
    201a:	54 e4       	ldi	r21, 0x44	; 68
    201c:	0e 94 1f 02 	call	0x43e	; 0x43e <__mulsf3>
    2020:	dc 01       	movw	r26, r24
    2022:	cb 01       	movw	r24, r22
    2024:	8d 8b       	std	Y+21, r24	; 0x15
    2026:	9e 8b       	std	Y+22, r25	; 0x16
    2028:	af 8b       	std	Y+23, r26	; 0x17
    202a:	b8 8f       	std	Y+24, r27	; 0x18
	if (__tmp < 1.0)
    202c:	6d 89       	ldd	r22, Y+21	; 0x15
    202e:	7e 89       	ldd	r23, Y+22	; 0x16
    2030:	8f 89       	ldd	r24, Y+23	; 0x17
    2032:	98 8d       	ldd	r25, Y+24	; 0x18
    2034:	20 e0       	ldi	r18, 0x00	; 0
    2036:	30 e0       	ldi	r19, 0x00	; 0
    2038:	40 e8       	ldi	r20, 0x80	; 128
    203a:	5f e3       	ldi	r21, 0x3F	; 63
    203c:	0e 94 25 04 	call	0x84a	; 0x84a <__ltsf2>
    2040:	88 23       	and	r24, r24
    2042:	2c f4       	brge	.+10     	; 0x204e <APP_voidCallingPolice+0x7e>
		__ticks = 1;
    2044:	81 e0       	ldi	r24, 0x01	; 1
    2046:	90 e0       	ldi	r25, 0x00	; 0
    2048:	9c 8b       	std	Y+20, r25	; 0x14
    204a:	8b 8b       	std	Y+19, r24	; 0x13
    204c:	3f c0       	rjmp	.+126    	; 0x20cc <APP_voidCallingPolice+0xfc>
	else if (__tmp > 65535)
    204e:	6d 89       	ldd	r22, Y+21	; 0x15
    2050:	7e 89       	ldd	r23, Y+22	; 0x16
    2052:	8f 89       	ldd	r24, Y+23	; 0x17
    2054:	98 8d       	ldd	r25, Y+24	; 0x18
    2056:	20 e0       	ldi	r18, 0x00	; 0
    2058:	3f ef       	ldi	r19, 0xFF	; 255
    205a:	4f e7       	ldi	r20, 0x7F	; 127
    205c:	57 e4       	ldi	r21, 0x47	; 71
    205e:	0e 94 c5 03 	call	0x78a	; 0x78a <__gtsf2>
    2062:	18 16       	cp	r1, r24
    2064:	4c f5       	brge	.+82     	; 0x20b8 <APP_voidCallingPolice+0xe8>
	{
		//	__ticks = requested delay in 1/10 ms
		__ticks = (uint16_t) (__ms * 10.0);
    2066:	69 8d       	ldd	r22, Y+25	; 0x19
    2068:	7a 8d       	ldd	r23, Y+26	; 0x1a
    206a:	8b 8d       	ldd	r24, Y+27	; 0x1b
    206c:	9c 8d       	ldd	r25, Y+28	; 0x1c
    206e:	20 e0       	ldi	r18, 0x00	; 0
    2070:	30 e0       	ldi	r19, 0x00	; 0
    2072:	40 e2       	ldi	r20, 0x20	; 32
    2074:	51 e4       	ldi	r21, 0x41	; 65
    2076:	0e 94 1f 02 	call	0x43e	; 0x43e <__mulsf3>
    207a:	dc 01       	movw	r26, r24
    207c:	cb 01       	movw	r24, r22
    207e:	bc 01       	movw	r22, r24
    2080:	cd 01       	movw	r24, r26
    2082:	0e 94 49 00 	call	0x92	; 0x92 <__fixunssfsi>
    2086:	dc 01       	movw	r26, r24
    2088:	cb 01       	movw	r24, r22
    208a:	9c 8b       	std	Y+20, r25	; 0x14
    208c:	8b 8b       	std	Y+19, r24	; 0x13
    208e:	0f c0       	rjmp	.+30     	; 0x20ae <APP_voidCallingPolice+0xde>
    2090:	88 ec       	ldi	r24, 0xC8	; 200
    2092:	90 e0       	ldi	r25, 0x00	; 0
    2094:	9a 8b       	std	Y+18, r25	; 0x12
    2096:	89 8b       	std	Y+17, r24	; 0x11
    2098:	89 89       	ldd	r24, Y+17	; 0x11
    209a:	9a 89       	ldd	r25, Y+18	; 0x12
    209c:	01 97       	sbiw	r24, 0x01	; 1
    209e:	f1 f7       	brne	.-4      	; 0x209c <APP_voidCallingPolice+0xcc>
    20a0:	9a 8b       	std	Y+18, r25	; 0x12
    20a2:	89 8b       	std	Y+17, r24	; 0x11
		while(__ticks)
		{
			// wait 1/10 ms
			_delay_loop_2(((F_CPU) / 4e3) / 10);
			__ticks --;
    20a4:	8b 89       	ldd	r24, Y+19	; 0x13
    20a6:	9c 89       	ldd	r25, Y+20	; 0x14
    20a8:	01 97       	sbiw	r24, 0x01	; 1
    20aa:	9c 8b       	std	Y+20, r25	; 0x14
    20ac:	8b 8b       	std	Y+19, r24	; 0x13
		__ticks = 1;
	else if (__tmp > 65535)
	{
		//	__ticks = requested delay in 1/10 ms
		__ticks = (uint16_t) (__ms * 10.0);
		while(__ticks)
    20ae:	8b 89       	ldd	r24, Y+19	; 0x13
    20b0:	9c 89       	ldd	r25, Y+20	; 0x14
    20b2:	00 97       	sbiw	r24, 0x00	; 0
    20b4:	69 f7       	brne	.-38     	; 0x2090 <APP_voidCallingPolice+0xc0>
    20b6:	14 c0       	rjmp	.+40     	; 0x20e0 <APP_voidCallingPolice+0x110>
			__ticks --;
		}
		return;
	}
	else
		__ticks = (uint16_t)__tmp;
    20b8:	6d 89       	ldd	r22, Y+21	; 0x15
    20ba:	7e 89       	ldd	r23, Y+22	; 0x16
    20bc:	8f 89       	ldd	r24, Y+23	; 0x17
    20be:	98 8d       	ldd	r25, Y+24	; 0x18
    20c0:	0e 94 49 00 	call	0x92	; 0x92 <__fixunssfsi>
    20c4:	dc 01       	movw	r26, r24
    20c6:	cb 01       	movw	r24, r22
    20c8:	9c 8b       	std	Y+20, r25	; 0x14
    20ca:	8b 8b       	std	Y+19, r24	; 0x13
    20cc:	8b 89       	ldd	r24, Y+19	; 0x13
    20ce:	9c 89       	ldd	r25, Y+20	; 0x14
    20d0:	98 8b       	std	Y+16, r25	; 0x10
    20d2:	8f 87       	std	Y+15, r24	; 0x0f
    20d4:	8f 85       	ldd	r24, Y+15	; 0x0f
    20d6:	98 89       	ldd	r25, Y+16	; 0x10
    20d8:	01 97       	sbiw	r24, 0x01	; 1
    20da:	f1 f7       	brne	.-4      	; 0x20d8 <APP_voidCallingPolice+0x108>
    20dc:	98 8b       	std	Y+16, r25	; 0x10
    20de:	8f 87       	std	Y+15, r24	; 0x0f
		_delay_ms(250);
		DIO_u8SetPinValue(BUZZER_PORT, BUZZER_PIN, DIO_u8PIN_LOW);
    20e0:	80 e0       	ldi	r24, 0x00	; 0
    20e2:	65 e0       	ldi	r22, 0x05	; 5
    20e4:	40 e0       	ldi	r20, 0x00	; 0
    20e6:	0e 94 b2 13 	call	0x2764	; 0x2764 <DIO_u8SetPinValue>
    20ea:	80 e0       	ldi	r24, 0x00	; 0
    20ec:	90 e0       	ldi	r25, 0x00	; 0
    20ee:	aa e7       	ldi	r26, 0x7A	; 122
    20f0:	b3 e4       	ldi	r27, 0x43	; 67
    20f2:	8b 87       	std	Y+11, r24	; 0x0b
    20f4:	9c 87       	std	Y+12, r25	; 0x0c
    20f6:	ad 87       	std	Y+13, r26	; 0x0d
    20f8:	be 87       	std	Y+14, r27	; 0x0e
 */
void
_delay_ms(double __ms)
{
	uint16_t __ticks;
	double __tmp = ((F_CPU) / 4e3) * __ms;
    20fa:	6b 85       	ldd	r22, Y+11	; 0x0b
    20fc:	7c 85       	ldd	r23, Y+12	; 0x0c
    20fe:	8d 85       	ldd	r24, Y+13	; 0x0d
    2100:	9e 85       	ldd	r25, Y+14	; 0x0e
    2102:	20 e0       	ldi	r18, 0x00	; 0
    2104:	30 e0       	ldi	r19, 0x00	; 0
    2106:	4a ef       	ldi	r20, 0xFA	; 250
    2108:	54 e4       	ldi	r21, 0x44	; 68
    210a:	0e 94 1f 02 	call	0x43e	; 0x43e <__mulsf3>
    210e:	dc 01       	movw	r26, r24
    2110:	cb 01       	movw	r24, r22
    2112:	8f 83       	std	Y+7, r24	; 0x07
    2114:	98 87       	std	Y+8, r25	; 0x08
    2116:	a9 87       	std	Y+9, r26	; 0x09
    2118:	ba 87       	std	Y+10, r27	; 0x0a
	if (__tmp < 1.0)
    211a:	6f 81       	ldd	r22, Y+7	; 0x07
    211c:	78 85       	ldd	r23, Y+8	; 0x08
    211e:	89 85       	ldd	r24, Y+9	; 0x09
    2120:	9a 85       	ldd	r25, Y+10	; 0x0a
    2122:	20 e0       	ldi	r18, 0x00	; 0
    2124:	30 e0       	ldi	r19, 0x00	; 0
    2126:	40 e8       	ldi	r20, 0x80	; 128
    2128:	5f e3       	ldi	r21, 0x3F	; 63
    212a:	0e 94 25 04 	call	0x84a	; 0x84a <__ltsf2>
    212e:	88 23       	and	r24, r24
    2130:	2c f4       	brge	.+10     	; 0x213c <APP_voidCallingPolice+0x16c>
		__ticks = 1;
    2132:	81 e0       	ldi	r24, 0x01	; 1
    2134:	90 e0       	ldi	r25, 0x00	; 0
    2136:	9e 83       	std	Y+6, r25	; 0x06
    2138:	8d 83       	std	Y+5, r24	; 0x05
    213a:	3f c0       	rjmp	.+126    	; 0x21ba <APP_voidCallingPolice+0x1ea>
	else if (__tmp > 65535)
    213c:	6f 81       	ldd	r22, Y+7	; 0x07
    213e:	78 85       	ldd	r23, Y+8	; 0x08
    2140:	89 85       	ldd	r24, Y+9	; 0x09
    2142:	9a 85       	ldd	r25, Y+10	; 0x0a
    2144:	20 e0       	ldi	r18, 0x00	; 0
    2146:	3f ef       	ldi	r19, 0xFF	; 255
    2148:	4f e7       	ldi	r20, 0x7F	; 127
    214a:	57 e4       	ldi	r21, 0x47	; 71
    214c:	0e 94 c5 03 	call	0x78a	; 0x78a <__gtsf2>
    2150:	18 16       	cp	r1, r24
    2152:	4c f5       	brge	.+82     	; 0x21a6 <APP_voidCallingPolice+0x1d6>
	{
		//	__ticks = requested delay in 1/10 ms
		__ticks = (uint16_t) (__ms * 10.0);
    2154:	6b 85       	ldd	r22, Y+11	; 0x0b
    2156:	7c 85       	ldd	r23, Y+12	; 0x0c
    2158:	8d 85       	ldd	r24, Y+13	; 0x0d
    215a:	9e 85       	ldd	r25, Y+14	; 0x0e
    215c:	20 e0       	ldi	r18, 0x00	; 0
    215e:	30 e0       	ldi	r19, 0x00	; 0
    2160:	40 e2       	ldi	r20, 0x20	; 32
    2162:	51 e4       	ldi	r21, 0x41	; 65
    2164:	0e 94 1f 02 	call	0x43e	; 0x43e <__mulsf3>
    2168:	dc 01       	movw	r26, r24
    216a:	cb 01       	movw	r24, r22
    216c:	bc 01       	movw	r22, r24
    216e:	cd 01       	movw	r24, r26
    2170:	0e 94 49 00 	call	0x92	; 0x92 <__fixunssfsi>
    2174:	dc 01       	movw	r26, r24
    2176:	cb 01       	movw	r24, r22
    2178:	9e 83       	std	Y+6, r25	; 0x06
    217a:	8d 83       	std	Y+5, r24	; 0x05
    217c:	0f c0       	rjmp	.+30     	; 0x219c <APP_voidCallingPolice+0x1cc>
    217e:	88 ec       	ldi	r24, 0xC8	; 200
    2180:	90 e0       	ldi	r25, 0x00	; 0
    2182:	9c 83       	std	Y+4, r25	; 0x04
    2184:	8b 83       	std	Y+3, r24	; 0x03
    2186:	8b 81       	ldd	r24, Y+3	; 0x03
    2188:	9c 81       	ldd	r25, Y+4	; 0x04
    218a:	01 97       	sbiw	r24, 0x01	; 1
    218c:	f1 f7       	brne	.-4      	; 0x218a <APP_voidCallingPolice+0x1ba>
    218e:	9c 83       	std	Y+4, r25	; 0x04
    2190:	8b 83       	std	Y+3, r24	; 0x03
		while(__ticks)
		{
			// wait 1/10 ms
			_delay_loop_2(((F_CPU) / 4e3) / 10);
			__ticks --;
    2192:	8d 81       	ldd	r24, Y+5	; 0x05
    2194:	9e 81       	ldd	r25, Y+6	; 0x06
    2196:	01 97       	sbiw	r24, 0x01	; 1
    2198:	9e 83       	std	Y+6, r25	; 0x06
    219a:	8d 83       	std	Y+5, r24	; 0x05
		__ticks = 1;
	else if (__tmp > 65535)
	{
		//	__ticks = requested delay in 1/10 ms
		__ticks = (uint16_t) (__ms * 10.0);
		while(__ticks)
    219c:	8d 81       	ldd	r24, Y+5	; 0x05
    219e:	9e 81       	ldd	r25, Y+6	; 0x06
    21a0:	00 97       	sbiw	r24, 0x00	; 0
    21a2:	69 f7       	brne	.-38     	; 0x217e <APP_voidCallingPolice+0x1ae>
    21a4:	21 cf       	rjmp	.-446    	; 0x1fe8 <APP_voidCallingPolice+0x18>
			__ticks --;
		}
		return;
	}
	else
		__ticks = (uint16_t)__tmp;
    21a6:	6f 81       	ldd	r22, Y+7	; 0x07
    21a8:	78 85       	ldd	r23, Y+8	; 0x08
    21aa:	89 85       	ldd	r24, Y+9	; 0x09
    21ac:	9a 85       	ldd	r25, Y+10	; 0x0a
    21ae:	0e 94 49 00 	call	0x92	; 0x92 <__fixunssfsi>
    21b2:	dc 01       	movw	r26, r24
    21b4:	cb 01       	movw	r24, r22
    21b6:	9e 83       	std	Y+6, r25	; 0x06
    21b8:	8d 83       	std	Y+5, r24	; 0x05
    21ba:	8d 81       	ldd	r24, Y+5	; 0x05
    21bc:	9e 81       	ldd	r25, Y+6	; 0x06
    21be:	9a 83       	std	Y+2, r25	; 0x02
    21c0:	89 83       	std	Y+1, r24	; 0x01
    21c2:	89 81       	ldd	r24, Y+1	; 0x01
    21c4:	9a 81       	ldd	r25, Y+2	; 0x02
    21c6:	01 97       	sbiw	r24, 0x01	; 1
    21c8:	f1 f7       	brne	.-4      	; 0x21c6 <APP_voidCallingPolice+0x1f6>
    21ca:	9a 83       	std	Y+2, r25	; 0x02
    21cc:	89 83       	std	Y+1, r24	; 0x01
    21ce:	0c cf       	rjmp	.-488    	; 0x1fe8 <APP_voidCallingPolice+0x18>

000021d0 <APP_voidDoorOpen>:
	}
}
/*************************************************************************************************************************/

void APP_voidDoorOpen(void)
{
    21d0:	df 93       	push	r29
    21d2:	cf 93       	push	r28
    21d4:	cd b7       	in	r28, 0x3d	; 61
    21d6:	de b7       	in	r29, 0x3e	; 62
    21d8:	2e 97       	sbiw	r28, 0x0e	; 14
    21da:	0f b6       	in	r0, 0x3f	; 63
    21dc:	f8 94       	cli
    21de:	de bf       	out	0x3e, r29	; 62
    21e0:	0f be       	out	0x3f, r0	; 63
    21e2:	cd bf       	out	0x3d, r28	; 61
	LCD_voidClearDisplay();
    21e4:	0e 94 72 1c 	call	0x38e4	; 0x38e4 <LCD_voidClearDisplay>
	LCD_voidSendString2("   WELCOME ^_^");
    21e8:	88 ec       	ldi	r24, 0xC8	; 200
    21ea:	90 e0       	ldi	r25, 0x00	; 0
    21ec:	0e 94 7c 1c 	call	0x38f8	; 0x38f8 <LCD_voidSendString2>
	LCD_voidPositionSet(1,0);
    21f0:	81 e0       	ldi	r24, 0x01	; 1
    21f2:	60 e0       	ldi	r22, 0x00	; 0
    21f4:	0e 94 2b 1b 	call	0x3656	; 0x3656 <LCD_voidPositionSet>
	LCD_voidSendString2("_Door is Opened_");
    21f8:	87 ed       	ldi	r24, 0xD7	; 215
    21fa:	90 e0       	ldi	r25, 0x00	; 0
    21fc:	0e 94 7c 1c 	call	0x38f8	; 0x38f8 <LCD_voidSendString2>
	if(Main_u8ServoFlag==OPENED && Main_u8ServoState==OFF)
    2200:	80 91 06 03 	lds	r24, 0x0306
    2204:	81 30       	cpi	r24, 0x01	; 1
    2206:	09 f0       	breq	.+2      	; 0x220a <APP_voidDoorOpen+0x3a>
    2208:	8f c0       	rjmp	.+286    	; 0x2328 <APP_voidDoorOpen+0x158>
    220a:	80 91 07 03 	lds	r24, 0x0307
    220e:	83 30       	cpi	r24, 0x03	; 3
    2210:	09 f0       	breq	.+2      	; 0x2214 <APP_voidDoorOpen+0x44>
    2212:	8a c0       	rjmp	.+276    	; 0x2328 <APP_voidDoorOpen+0x158>
	{
		TIMER1_u8Init(&Timer1);
    2214:	88 e0       	ldi	r24, 0x08	; 8
    2216:	93 e0       	ldi	r25, 0x03	; 3
    2218:	0e 94 b3 22 	call	0x4566	; 0x4566 <TIMER1_u8Init>
		for(Local_u8Counter=0;Local_u8Counter<=180;Local_u8Counter++)
    221c:	10 92 ab 03 	sts	0x03AB, r1
    2220:	7e c0       	rjmp	.+252    	; 0x231e <APP_voidDoorOpen+0x14e>
		{
			SERVO_u8Rotate(Local_u8Counter,&Timer1);
    2222:	80 91 ab 03 	lds	r24, 0x03AB
    2226:	28 e0       	ldi	r18, 0x08	; 8
    2228:	33 e0       	ldi	r19, 0x03	; 3
    222a:	b9 01       	movw	r22, r18
    222c:	0e 94 86 1e 	call	0x3d0c	; 0x3d0c <SERVO_u8Rotate>
    2230:	80 e0       	ldi	r24, 0x00	; 0
    2232:	90 e0       	ldi	r25, 0x00	; 0
    2234:	a0 e8       	ldi	r26, 0x80	; 128
    2236:	bf e3       	ldi	r27, 0x3F	; 63
    2238:	8b 87       	std	Y+11, r24	; 0x0b
    223a:	9c 87       	std	Y+12, r25	; 0x0c
    223c:	ad 87       	std	Y+13, r26	; 0x0d
    223e:	be 87       	std	Y+14, r27	; 0x0e
 */
void
_delay_ms(double __ms)
{
	uint16_t __ticks;
	double __tmp = ((F_CPU) / 4e3) * __ms;
    2240:	6b 85       	ldd	r22, Y+11	; 0x0b
    2242:	7c 85       	ldd	r23, Y+12	; 0x0c
    2244:	8d 85       	ldd	r24, Y+13	; 0x0d
    2246:	9e 85       	ldd	r25, Y+14	; 0x0e
    2248:	20 e0       	ldi	r18, 0x00	; 0
    224a:	30 e0       	ldi	r19, 0x00	; 0
    224c:	4a ef       	ldi	r20, 0xFA	; 250
    224e:	54 e4       	ldi	r21, 0x44	; 68
    2250:	0e 94 1f 02 	call	0x43e	; 0x43e <__mulsf3>
    2254:	dc 01       	movw	r26, r24
    2256:	cb 01       	movw	r24, r22
    2258:	8f 83       	std	Y+7, r24	; 0x07
    225a:	98 87       	std	Y+8, r25	; 0x08
    225c:	a9 87       	std	Y+9, r26	; 0x09
    225e:	ba 87       	std	Y+10, r27	; 0x0a
	if (__tmp < 1.0)
    2260:	6f 81       	ldd	r22, Y+7	; 0x07
    2262:	78 85       	ldd	r23, Y+8	; 0x08
    2264:	89 85       	ldd	r24, Y+9	; 0x09
    2266:	9a 85       	ldd	r25, Y+10	; 0x0a
    2268:	20 e0       	ldi	r18, 0x00	; 0
    226a:	30 e0       	ldi	r19, 0x00	; 0
    226c:	40 e8       	ldi	r20, 0x80	; 128
    226e:	5f e3       	ldi	r21, 0x3F	; 63
    2270:	0e 94 25 04 	call	0x84a	; 0x84a <__ltsf2>
    2274:	88 23       	and	r24, r24
    2276:	2c f4       	brge	.+10     	; 0x2282 <APP_voidDoorOpen+0xb2>
		__ticks = 1;
    2278:	81 e0       	ldi	r24, 0x01	; 1
    227a:	90 e0       	ldi	r25, 0x00	; 0
    227c:	9e 83       	std	Y+6, r25	; 0x06
    227e:	8d 83       	std	Y+5, r24	; 0x05
    2280:	3f c0       	rjmp	.+126    	; 0x2300 <APP_voidDoorOpen+0x130>
	else if (__tmp > 65535)
    2282:	6f 81       	ldd	r22, Y+7	; 0x07
    2284:	78 85       	ldd	r23, Y+8	; 0x08
    2286:	89 85       	ldd	r24, Y+9	; 0x09
    2288:	9a 85       	ldd	r25, Y+10	; 0x0a
    228a:	20 e0       	ldi	r18, 0x00	; 0
    228c:	3f ef       	ldi	r19, 0xFF	; 255
    228e:	4f e7       	ldi	r20, 0x7F	; 127
    2290:	57 e4       	ldi	r21, 0x47	; 71
    2292:	0e 94 c5 03 	call	0x78a	; 0x78a <__gtsf2>
    2296:	18 16       	cp	r1, r24
    2298:	4c f5       	brge	.+82     	; 0x22ec <APP_voidDoorOpen+0x11c>
	{
		//	__ticks = requested delay in 1/10 ms
		__ticks = (uint16_t) (__ms * 10.0);
    229a:	6b 85       	ldd	r22, Y+11	; 0x0b
    229c:	7c 85       	ldd	r23, Y+12	; 0x0c
    229e:	8d 85       	ldd	r24, Y+13	; 0x0d
    22a0:	9e 85       	ldd	r25, Y+14	; 0x0e
    22a2:	20 e0       	ldi	r18, 0x00	; 0
    22a4:	30 e0       	ldi	r19, 0x00	; 0
    22a6:	40 e2       	ldi	r20, 0x20	; 32
    22a8:	51 e4       	ldi	r21, 0x41	; 65
    22aa:	0e 94 1f 02 	call	0x43e	; 0x43e <__mulsf3>
    22ae:	dc 01       	movw	r26, r24
    22b0:	cb 01       	movw	r24, r22
    22b2:	bc 01       	movw	r22, r24
    22b4:	cd 01       	movw	r24, r26
    22b6:	0e 94 49 00 	call	0x92	; 0x92 <__fixunssfsi>
    22ba:	dc 01       	movw	r26, r24
    22bc:	cb 01       	movw	r24, r22
    22be:	9e 83       	std	Y+6, r25	; 0x06
    22c0:	8d 83       	std	Y+5, r24	; 0x05
    22c2:	0f c0       	rjmp	.+30     	; 0x22e2 <APP_voidDoorOpen+0x112>
    22c4:	88 ec       	ldi	r24, 0xC8	; 200
    22c6:	90 e0       	ldi	r25, 0x00	; 0
    22c8:	9c 83       	std	Y+4, r25	; 0x04
    22ca:	8b 83       	std	Y+3, r24	; 0x03
    22cc:	8b 81       	ldd	r24, Y+3	; 0x03
    22ce:	9c 81       	ldd	r25, Y+4	; 0x04
    22d0:	01 97       	sbiw	r24, 0x01	; 1
    22d2:	f1 f7       	brne	.-4      	; 0x22d0 <APP_voidDoorOpen+0x100>
    22d4:	9c 83       	std	Y+4, r25	; 0x04
    22d6:	8b 83       	std	Y+3, r24	; 0x03
		while(__ticks)
		{
			// wait 1/10 ms
			_delay_loop_2(((F_CPU) / 4e3) / 10);
			__ticks --;
    22d8:	8d 81       	ldd	r24, Y+5	; 0x05
    22da:	9e 81       	ldd	r25, Y+6	; 0x06
    22dc:	01 97       	sbiw	r24, 0x01	; 1
    22de:	9e 83       	std	Y+6, r25	; 0x06
    22e0:	8d 83       	std	Y+5, r24	; 0x05
		__ticks = 1;
	else if (__tmp > 65535)
	{
		//	__ticks = requested delay in 1/10 ms
		__ticks = (uint16_t) (__ms * 10.0);
		while(__ticks)
    22e2:	8d 81       	ldd	r24, Y+5	; 0x05
    22e4:	9e 81       	ldd	r25, Y+6	; 0x06
    22e6:	00 97       	sbiw	r24, 0x00	; 0
    22e8:	69 f7       	brne	.-38     	; 0x22c4 <APP_voidDoorOpen+0xf4>
    22ea:	14 c0       	rjmp	.+40     	; 0x2314 <APP_voidDoorOpen+0x144>
			__ticks --;
		}
		return;
	}
	else
		__ticks = (uint16_t)__tmp;
    22ec:	6f 81       	ldd	r22, Y+7	; 0x07
    22ee:	78 85       	ldd	r23, Y+8	; 0x08
    22f0:	89 85       	ldd	r24, Y+9	; 0x09
    22f2:	9a 85       	ldd	r25, Y+10	; 0x0a
    22f4:	0e 94 49 00 	call	0x92	; 0x92 <__fixunssfsi>
    22f8:	dc 01       	movw	r26, r24
    22fa:	cb 01       	movw	r24, r22
    22fc:	9e 83       	std	Y+6, r25	; 0x06
    22fe:	8d 83       	std	Y+5, r24	; 0x05
    2300:	8d 81       	ldd	r24, Y+5	; 0x05
    2302:	9e 81       	ldd	r25, Y+6	; 0x06
    2304:	9a 83       	std	Y+2, r25	; 0x02
    2306:	89 83       	std	Y+1, r24	; 0x01
    2308:	89 81       	ldd	r24, Y+1	; 0x01
    230a:	9a 81       	ldd	r25, Y+2	; 0x02
    230c:	01 97       	sbiw	r24, 0x01	; 1
    230e:	f1 f7       	brne	.-4      	; 0x230c <APP_voidDoorOpen+0x13c>
    2310:	9a 83       	std	Y+2, r25	; 0x02
    2312:	89 83       	std	Y+1, r24	; 0x01
	LCD_voidPositionSet(1,0);
	LCD_voidSendString2("_Door is Opened_");
	if(Main_u8ServoFlag==OPENED && Main_u8ServoState==OFF)
	{
		TIMER1_u8Init(&Timer1);
		for(Local_u8Counter=0;Local_u8Counter<=180;Local_u8Counter++)
    2314:	80 91 ab 03 	lds	r24, 0x03AB
    2318:	8f 5f       	subi	r24, 0xFF	; 255
    231a:	80 93 ab 03 	sts	0x03AB, r24
    231e:	80 91 ab 03 	lds	r24, 0x03AB
    2322:	85 3b       	cpi	r24, 0xB5	; 181
    2324:	08 f4       	brcc	.+2      	; 0x2328 <APP_voidDoorOpen+0x158>
    2326:	7d cf       	rjmp	.-262    	; 0x2222 <APP_voidDoorOpen+0x52>
		{
			SERVO_u8Rotate(Local_u8Counter,&Timer1);
			_delay_ms(1);
		}
	}
	Main_u8ServoState=ON;
    2328:	82 e0       	ldi	r24, 0x02	; 2
    232a:	80 93 07 03 	sts	0x0307, r24
}
    232e:	2e 96       	adiw	r28, 0x0e	; 14
    2330:	0f b6       	in	r0, 0x3f	; 63
    2332:	f8 94       	cli
    2334:	de bf       	out	0x3e, r29	; 62
    2336:	0f be       	out	0x3f, r0	; 63
    2338:	cd bf       	out	0x3d, r28	; 61
    233a:	cf 91       	pop	r28
    233c:	df 91       	pop	r29
    233e:	08 95       	ret

00002340 <APP_voidDoorClose>:
/*************************************************************************************************************************/

void APP_voidDoorClose(void)
{
    2340:	df 93       	push	r29
    2342:	cf 93       	push	r28
    2344:	cd b7       	in	r28, 0x3d	; 61
    2346:	de b7       	in	r29, 0x3e	; 62
    2348:	2e 97       	sbiw	r28, 0x0e	; 14
    234a:	0f b6       	in	r0, 0x3f	; 63
    234c:	f8 94       	cli
    234e:	de bf       	out	0x3e, r29	; 62
    2350:	0f be       	out	0x3f, r0	; 63
    2352:	cd bf       	out	0x3d, r28	; 61
	LCD_voidClearDisplay();
    2354:	0e 94 72 1c 	call	0x38e4	; 0x38e4 <LCD_voidClearDisplay>
	LCD_voidSendString2("_Door is Closed_");
    2358:	88 ee       	ldi	r24, 0xE8	; 232
    235a:	90 e0       	ldi	r25, 0x00	; 0
    235c:	0e 94 7c 1c 	call	0x38f8	; 0x38f8 <LCD_voidSendString2>
	LCD_voidPositionSet(1,0);
    2360:	81 e0       	ldi	r24, 0x01	; 1
    2362:	60 e0       	ldi	r22, 0x00	; 0
    2364:	0e 94 2b 1b 	call	0x3656	; 0x3656 <LCD_voidPositionSet>
	//	LCD_voidSendString2("   BYE BYE :(");
	Main_u8ServoFlag=OPENED;
    2368:	81 e0       	ldi	r24, 0x01	; 1
    236a:	80 93 06 03 	sts	0x0306, r24
	if(Main_u8ServoFlag==OPENED && Main_u8ServoState==ON)
    236e:	80 91 06 03 	lds	r24, 0x0306
    2372:	81 30       	cpi	r24, 0x01	; 1
    2374:	09 f0       	breq	.+2      	; 0x2378 <APP_voidDoorClose+0x38>
    2376:	90 c0       	rjmp	.+288    	; 0x2498 <APP_voidDoorClose+0x158>
    2378:	80 91 07 03 	lds	r24, 0x0307
    237c:	82 30       	cpi	r24, 0x02	; 2
    237e:	09 f0       	breq	.+2      	; 0x2382 <APP_voidDoorClose+0x42>
    2380:	8b c0       	rjmp	.+278    	; 0x2498 <APP_voidDoorClose+0x158>
	{
		TIMER1_u8Init(&Timer1);
    2382:	88 e0       	ldi	r24, 0x08	; 8
    2384:	93 e0       	ldi	r25, 0x03	; 3
    2386:	0e 94 b3 22 	call	0x4566	; 0x4566 <TIMER1_u8Init>
		for(Local_u8Counter=180;Local_u8Counter>=1;Local_u8Counter--)
    238a:	84 eb       	ldi	r24, 0xB4	; 180
    238c:	80 93 ab 03 	sts	0x03AB, r24
    2390:	7e c0       	rjmp	.+252    	; 0x248e <APP_voidDoorClose+0x14e>
		{
			SERVO_u8Rotate(Local_u8Counter,&Timer1);
    2392:	80 91 ab 03 	lds	r24, 0x03AB
    2396:	28 e0       	ldi	r18, 0x08	; 8
    2398:	33 e0       	ldi	r19, 0x03	; 3
    239a:	b9 01       	movw	r22, r18
    239c:	0e 94 86 1e 	call	0x3d0c	; 0x3d0c <SERVO_u8Rotate>
    23a0:	80 e0       	ldi	r24, 0x00	; 0
    23a2:	90 e0       	ldi	r25, 0x00	; 0
    23a4:	a0 e8       	ldi	r26, 0x80	; 128
    23a6:	bf e3       	ldi	r27, 0x3F	; 63
    23a8:	8b 87       	std	Y+11, r24	; 0x0b
    23aa:	9c 87       	std	Y+12, r25	; 0x0c
    23ac:	ad 87       	std	Y+13, r26	; 0x0d
    23ae:	be 87       	std	Y+14, r27	; 0x0e
 */
void
_delay_ms(double __ms)
{
	uint16_t __ticks;
	double __tmp = ((F_CPU) / 4e3) * __ms;
    23b0:	6b 85       	ldd	r22, Y+11	; 0x0b
    23b2:	7c 85       	ldd	r23, Y+12	; 0x0c
    23b4:	8d 85       	ldd	r24, Y+13	; 0x0d
    23b6:	9e 85       	ldd	r25, Y+14	; 0x0e
    23b8:	20 e0       	ldi	r18, 0x00	; 0
    23ba:	30 e0       	ldi	r19, 0x00	; 0
    23bc:	4a ef       	ldi	r20, 0xFA	; 250
    23be:	54 e4       	ldi	r21, 0x44	; 68
    23c0:	0e 94 1f 02 	call	0x43e	; 0x43e <__mulsf3>
    23c4:	dc 01       	movw	r26, r24
    23c6:	cb 01       	movw	r24, r22
    23c8:	8f 83       	std	Y+7, r24	; 0x07
    23ca:	98 87       	std	Y+8, r25	; 0x08
    23cc:	a9 87       	std	Y+9, r26	; 0x09
    23ce:	ba 87       	std	Y+10, r27	; 0x0a
	if (__tmp < 1.0)
    23d0:	6f 81       	ldd	r22, Y+7	; 0x07
    23d2:	78 85       	ldd	r23, Y+8	; 0x08
    23d4:	89 85       	ldd	r24, Y+9	; 0x09
    23d6:	9a 85       	ldd	r25, Y+10	; 0x0a
    23d8:	20 e0       	ldi	r18, 0x00	; 0
    23da:	30 e0       	ldi	r19, 0x00	; 0
    23dc:	40 e8       	ldi	r20, 0x80	; 128
    23de:	5f e3       	ldi	r21, 0x3F	; 63
    23e0:	0e 94 25 04 	call	0x84a	; 0x84a <__ltsf2>
    23e4:	88 23       	and	r24, r24
    23e6:	2c f4       	brge	.+10     	; 0x23f2 <APP_voidDoorClose+0xb2>
		__ticks = 1;
    23e8:	81 e0       	ldi	r24, 0x01	; 1
    23ea:	90 e0       	ldi	r25, 0x00	; 0
    23ec:	9e 83       	std	Y+6, r25	; 0x06
    23ee:	8d 83       	std	Y+5, r24	; 0x05
    23f0:	3f c0       	rjmp	.+126    	; 0x2470 <APP_voidDoorClose+0x130>
	else if (__tmp > 65535)
    23f2:	6f 81       	ldd	r22, Y+7	; 0x07
    23f4:	78 85       	ldd	r23, Y+8	; 0x08
    23f6:	89 85       	ldd	r24, Y+9	; 0x09
    23f8:	9a 85       	ldd	r25, Y+10	; 0x0a
    23fa:	20 e0       	ldi	r18, 0x00	; 0
    23fc:	3f ef       	ldi	r19, 0xFF	; 255
    23fe:	4f e7       	ldi	r20, 0x7F	; 127
    2400:	57 e4       	ldi	r21, 0x47	; 71
    2402:	0e 94 c5 03 	call	0x78a	; 0x78a <__gtsf2>
    2406:	18 16       	cp	r1, r24
    2408:	4c f5       	brge	.+82     	; 0x245c <APP_voidDoorClose+0x11c>
	{
		//	__ticks = requested delay in 1/10 ms
		__ticks = (uint16_t) (__ms * 10.0);
    240a:	6b 85       	ldd	r22, Y+11	; 0x0b
    240c:	7c 85       	ldd	r23, Y+12	; 0x0c
    240e:	8d 85       	ldd	r24, Y+13	; 0x0d
    2410:	9e 85       	ldd	r25, Y+14	; 0x0e
    2412:	20 e0       	ldi	r18, 0x00	; 0
    2414:	30 e0       	ldi	r19, 0x00	; 0
    2416:	40 e2       	ldi	r20, 0x20	; 32
    2418:	51 e4       	ldi	r21, 0x41	; 65
    241a:	0e 94 1f 02 	call	0x43e	; 0x43e <__mulsf3>
    241e:	dc 01       	movw	r26, r24
    2420:	cb 01       	movw	r24, r22
    2422:	bc 01       	movw	r22, r24
    2424:	cd 01       	movw	r24, r26
    2426:	0e 94 49 00 	call	0x92	; 0x92 <__fixunssfsi>
    242a:	dc 01       	movw	r26, r24
    242c:	cb 01       	movw	r24, r22
    242e:	9e 83       	std	Y+6, r25	; 0x06
    2430:	8d 83       	std	Y+5, r24	; 0x05
    2432:	0f c0       	rjmp	.+30     	; 0x2452 <APP_voidDoorClose+0x112>
    2434:	88 ec       	ldi	r24, 0xC8	; 200
    2436:	90 e0       	ldi	r25, 0x00	; 0
    2438:	9c 83       	std	Y+4, r25	; 0x04
    243a:	8b 83       	std	Y+3, r24	; 0x03
    243c:	8b 81       	ldd	r24, Y+3	; 0x03
    243e:	9c 81       	ldd	r25, Y+4	; 0x04
    2440:	01 97       	sbiw	r24, 0x01	; 1
    2442:	f1 f7       	brne	.-4      	; 0x2440 <APP_voidDoorClose+0x100>
    2444:	9c 83       	std	Y+4, r25	; 0x04
    2446:	8b 83       	std	Y+3, r24	; 0x03
		while(__ticks)
		{
			// wait 1/10 ms
			_delay_loop_2(((F_CPU) / 4e3) / 10);
			__ticks --;
    2448:	8d 81       	ldd	r24, Y+5	; 0x05
    244a:	9e 81       	ldd	r25, Y+6	; 0x06
    244c:	01 97       	sbiw	r24, 0x01	; 1
    244e:	9e 83       	std	Y+6, r25	; 0x06
    2450:	8d 83       	std	Y+5, r24	; 0x05
		__ticks = 1;
	else if (__tmp > 65535)
	{
		//	__ticks = requested delay in 1/10 ms
		__ticks = (uint16_t) (__ms * 10.0);
		while(__ticks)
    2452:	8d 81       	ldd	r24, Y+5	; 0x05
    2454:	9e 81       	ldd	r25, Y+6	; 0x06
    2456:	00 97       	sbiw	r24, 0x00	; 0
    2458:	69 f7       	brne	.-38     	; 0x2434 <APP_voidDoorClose+0xf4>
    245a:	14 c0       	rjmp	.+40     	; 0x2484 <APP_voidDoorClose+0x144>
			__ticks --;
		}
		return;
	}
	else
		__ticks = (uint16_t)__tmp;
    245c:	6f 81       	ldd	r22, Y+7	; 0x07
    245e:	78 85       	ldd	r23, Y+8	; 0x08
    2460:	89 85       	ldd	r24, Y+9	; 0x09
    2462:	9a 85       	ldd	r25, Y+10	; 0x0a
    2464:	0e 94 49 00 	call	0x92	; 0x92 <__fixunssfsi>
    2468:	dc 01       	movw	r26, r24
    246a:	cb 01       	movw	r24, r22
    246c:	9e 83       	std	Y+6, r25	; 0x06
    246e:	8d 83       	std	Y+5, r24	; 0x05
    2470:	8d 81       	ldd	r24, Y+5	; 0x05
    2472:	9e 81       	ldd	r25, Y+6	; 0x06
    2474:	9a 83       	std	Y+2, r25	; 0x02
    2476:	89 83       	std	Y+1, r24	; 0x01
    2478:	89 81       	ldd	r24, Y+1	; 0x01
    247a:	9a 81       	ldd	r25, Y+2	; 0x02
    247c:	01 97       	sbiw	r24, 0x01	; 1
    247e:	f1 f7       	brne	.-4      	; 0x247c <APP_voidDoorClose+0x13c>
    2480:	9a 83       	std	Y+2, r25	; 0x02
    2482:	89 83       	std	Y+1, r24	; 0x01
	//	LCD_voidSendString2("   BYE BYE :(");
	Main_u8ServoFlag=OPENED;
	if(Main_u8ServoFlag==OPENED && Main_u8ServoState==ON)
	{
		TIMER1_u8Init(&Timer1);
		for(Local_u8Counter=180;Local_u8Counter>=1;Local_u8Counter--)
    2484:	80 91 ab 03 	lds	r24, 0x03AB
    2488:	81 50       	subi	r24, 0x01	; 1
    248a:	80 93 ab 03 	sts	0x03AB, r24
    248e:	80 91 ab 03 	lds	r24, 0x03AB
    2492:	88 23       	and	r24, r24
    2494:	09 f0       	breq	.+2      	; 0x2498 <APP_voidDoorClose+0x158>
    2496:	7d cf       	rjmp	.-262    	; 0x2392 <APP_voidDoorClose+0x52>
		{
			SERVO_u8Rotate(Local_u8Counter,&Timer1);
			_delay_ms(1);
		}
	}
	Main_u8ServoState=OFF;
    2498:	83 e0       	ldi	r24, 0x03	; 3
    249a:	80 93 07 03 	sts	0x0307, r24
}
    249e:	2e 96       	adiw	r28, 0x0e	; 14
    24a0:	0f b6       	in	r0, 0x3f	; 63
    24a2:	f8 94       	cli
    24a4:	de bf       	out	0x3e, r29	; 62
    24a6:	0f be       	out	0x3f, r0	; 63
    24a8:	cd bf       	out	0x3d, r28	; 61
    24aa:	cf 91       	pop	r28
    24ac:	df 91       	pop	r29
    24ae:	08 95       	ret

000024b0 <DIO_u8SetPinDirection>:
#include"DIO_config.h"
#include"DIO_private.h"

/*Functions Implementation*/
u8 DIO_u8SetPinDirection(u8 Copy_u8Port, u8 Copy_u8Pin, u8 Copy_u8Direction)
{
    24b0:	df 93       	push	r29
    24b2:	cf 93       	push	r28
    24b4:	cd b7       	in	r28, 0x3d	; 61
    24b6:	de b7       	in	r29, 0x3e	; 62
    24b8:	28 97       	sbiw	r28, 0x08	; 8
    24ba:	0f b6       	in	r0, 0x3f	; 63
    24bc:	f8 94       	cli
    24be:	de bf       	out	0x3e, r29	; 62
    24c0:	0f be       	out	0x3f, r0	; 63
    24c2:	cd bf       	out	0x3d, r28	; 61
    24c4:	8a 83       	std	Y+2, r24	; 0x02
    24c6:	6b 83       	std	Y+3, r22	; 0x03
    24c8:	4c 83       	std	Y+4, r20	; 0x04
	/* Flag used in debugging and the return of the function will be u8
	 */
	u8 Locl_u8ErrorCode = LOGIC_ZERO ;
    24ca:	19 82       	std	Y+1, r1	; 0x01

	if(Copy_u8Pin <= DIO_u8PIN7)
    24cc:	8b 81       	ldd	r24, Y+3	; 0x03
    24ce:	88 30       	cpi	r24, 0x08	; 8
    24d0:	08 f0       	brcs	.+2      	; 0x24d4 <DIO_u8SetPinDirection+0x24>
    24d2:	f4 c0       	rjmp	.+488    	; 0x26bc <DIO_u8SetPinDirection+0x20c>
	{
		if(Copy_u8Direction == DIO_u8PIN_INPUT)
    24d4:	8c 81       	ldd	r24, Y+4	; 0x04
    24d6:	88 23       	and	r24, r24
    24d8:	09 f0       	breq	.+2      	; 0x24dc <DIO_u8SetPinDirection+0x2c>
    24da:	77 c0       	rjmp	.+238    	; 0x25ca <DIO_u8SetPinDirection+0x11a>
		{
			switch(Copy_u8Port)
    24dc:	8a 81       	ldd	r24, Y+2	; 0x02
    24de:	28 2f       	mov	r18, r24
    24e0:	30 e0       	ldi	r19, 0x00	; 0
    24e2:	38 87       	std	Y+8, r19	; 0x08
    24e4:	2f 83       	std	Y+7, r18	; 0x07
    24e6:	8f 81       	ldd	r24, Y+7	; 0x07
    24e8:	98 85       	ldd	r25, Y+8	; 0x08
    24ea:	81 30       	cpi	r24, 0x01	; 1
    24ec:	91 05       	cpc	r25, r1
    24ee:	59 f1       	breq	.+86     	; 0x2546 <DIO_u8SetPinDirection+0x96>
    24f0:	2f 81       	ldd	r18, Y+7	; 0x07
    24f2:	38 85       	ldd	r19, Y+8	; 0x08
    24f4:	22 30       	cpi	r18, 0x02	; 2
    24f6:	31 05       	cpc	r19, r1
    24f8:	2c f4       	brge	.+10     	; 0x2504 <DIO_u8SetPinDirection+0x54>
    24fa:	8f 81       	ldd	r24, Y+7	; 0x07
    24fc:	98 85       	ldd	r25, Y+8	; 0x08
    24fe:	00 97       	sbiw	r24, 0x00	; 0
    2500:	69 f0       	breq	.+26     	; 0x251c <DIO_u8SetPinDirection+0x6c>
    2502:	60 c0       	rjmp	.+192    	; 0x25c4 <DIO_u8SetPinDirection+0x114>
    2504:	2f 81       	ldd	r18, Y+7	; 0x07
    2506:	38 85       	ldd	r19, Y+8	; 0x08
    2508:	22 30       	cpi	r18, 0x02	; 2
    250a:	31 05       	cpc	r19, r1
    250c:	89 f1       	breq	.+98     	; 0x2570 <DIO_u8SetPinDirection+0xc0>
    250e:	8f 81       	ldd	r24, Y+7	; 0x07
    2510:	98 85       	ldd	r25, Y+8	; 0x08
    2512:	83 30       	cpi	r24, 0x03	; 3
    2514:	91 05       	cpc	r25, r1
    2516:	09 f4       	brne	.+2      	; 0x251a <DIO_u8SetPinDirection+0x6a>
    2518:	40 c0       	rjmp	.+128    	; 0x259a <DIO_u8SetPinDirection+0xea>
    251a:	54 c0       	rjmp	.+168    	; 0x25c4 <DIO_u8SetPinDirection+0x114>
			{
			case DIO_u8PORTA: CLR_BIT(DDRA,Copy_u8Pin);
    251c:	aa e3       	ldi	r26, 0x3A	; 58
    251e:	b0 e0       	ldi	r27, 0x00	; 0
    2520:	ea e3       	ldi	r30, 0x3A	; 58
    2522:	f0 e0       	ldi	r31, 0x00	; 0
    2524:	80 81       	ld	r24, Z
    2526:	48 2f       	mov	r20, r24
    2528:	8b 81       	ldd	r24, Y+3	; 0x03
    252a:	28 2f       	mov	r18, r24
    252c:	30 e0       	ldi	r19, 0x00	; 0
    252e:	81 e0       	ldi	r24, 0x01	; 1
    2530:	90 e0       	ldi	r25, 0x00	; 0
    2532:	02 2e       	mov	r0, r18
    2534:	02 c0       	rjmp	.+4      	; 0x253a <DIO_u8SetPinDirection+0x8a>
    2536:	88 0f       	add	r24, r24
    2538:	99 1f       	adc	r25, r25
    253a:	0a 94       	dec	r0
    253c:	e2 f7       	brpl	.-8      	; 0x2536 <DIO_u8SetPinDirection+0x86>
    253e:	80 95       	com	r24
    2540:	84 23       	and	r24, r20
    2542:	8c 93       	st	X, r24
    2544:	bd c0       	rjmp	.+378    	; 0x26c0 <DIO_u8SetPinDirection+0x210>
			break;

			case DIO_u8PORTB: CLR_BIT(DDRB,Copy_u8Pin);
    2546:	a7 e3       	ldi	r26, 0x37	; 55
    2548:	b0 e0       	ldi	r27, 0x00	; 0
    254a:	e7 e3       	ldi	r30, 0x37	; 55
    254c:	f0 e0       	ldi	r31, 0x00	; 0
    254e:	80 81       	ld	r24, Z
    2550:	48 2f       	mov	r20, r24
    2552:	8b 81       	ldd	r24, Y+3	; 0x03
    2554:	28 2f       	mov	r18, r24
    2556:	30 e0       	ldi	r19, 0x00	; 0
    2558:	81 e0       	ldi	r24, 0x01	; 1
    255a:	90 e0       	ldi	r25, 0x00	; 0
    255c:	02 2e       	mov	r0, r18
    255e:	02 c0       	rjmp	.+4      	; 0x2564 <DIO_u8SetPinDirection+0xb4>
    2560:	88 0f       	add	r24, r24
    2562:	99 1f       	adc	r25, r25
    2564:	0a 94       	dec	r0
    2566:	e2 f7       	brpl	.-8      	; 0x2560 <DIO_u8SetPinDirection+0xb0>
    2568:	80 95       	com	r24
    256a:	84 23       	and	r24, r20
    256c:	8c 93       	st	X, r24
    256e:	a8 c0       	rjmp	.+336    	; 0x26c0 <DIO_u8SetPinDirection+0x210>
			break;

			case DIO_u8PORTC: CLR_BIT(DDRC,Copy_u8Pin);
    2570:	a4 e3       	ldi	r26, 0x34	; 52
    2572:	b0 e0       	ldi	r27, 0x00	; 0
    2574:	e4 e3       	ldi	r30, 0x34	; 52
    2576:	f0 e0       	ldi	r31, 0x00	; 0
    2578:	80 81       	ld	r24, Z
    257a:	48 2f       	mov	r20, r24
    257c:	8b 81       	ldd	r24, Y+3	; 0x03
    257e:	28 2f       	mov	r18, r24
    2580:	30 e0       	ldi	r19, 0x00	; 0
    2582:	81 e0       	ldi	r24, 0x01	; 1
    2584:	90 e0       	ldi	r25, 0x00	; 0
    2586:	02 2e       	mov	r0, r18
    2588:	02 c0       	rjmp	.+4      	; 0x258e <DIO_u8SetPinDirection+0xde>
    258a:	88 0f       	add	r24, r24
    258c:	99 1f       	adc	r25, r25
    258e:	0a 94       	dec	r0
    2590:	e2 f7       	brpl	.-8      	; 0x258a <DIO_u8SetPinDirection+0xda>
    2592:	80 95       	com	r24
    2594:	84 23       	and	r24, r20
    2596:	8c 93       	st	X, r24
    2598:	93 c0       	rjmp	.+294    	; 0x26c0 <DIO_u8SetPinDirection+0x210>
			break;

			case DIO_u8PORTD: CLR_BIT(DDRD,Copy_u8Pin);
    259a:	a1 e3       	ldi	r26, 0x31	; 49
    259c:	b0 e0       	ldi	r27, 0x00	; 0
    259e:	e1 e3       	ldi	r30, 0x31	; 49
    25a0:	f0 e0       	ldi	r31, 0x00	; 0
    25a2:	80 81       	ld	r24, Z
    25a4:	48 2f       	mov	r20, r24
    25a6:	8b 81       	ldd	r24, Y+3	; 0x03
    25a8:	28 2f       	mov	r18, r24
    25aa:	30 e0       	ldi	r19, 0x00	; 0
    25ac:	81 e0       	ldi	r24, 0x01	; 1
    25ae:	90 e0       	ldi	r25, 0x00	; 0
    25b0:	02 2e       	mov	r0, r18
    25b2:	02 c0       	rjmp	.+4      	; 0x25b8 <DIO_u8SetPinDirection+0x108>
    25b4:	88 0f       	add	r24, r24
    25b6:	99 1f       	adc	r25, r25
    25b8:	0a 94       	dec	r0
    25ba:	e2 f7       	brpl	.-8      	; 0x25b4 <DIO_u8SetPinDirection+0x104>
    25bc:	80 95       	com	r24
    25be:	84 23       	and	r24, r20
    25c0:	8c 93       	st	X, r24
    25c2:	7e c0       	rjmp	.+252    	; 0x26c0 <DIO_u8SetPinDirection+0x210>
			break;

			default: Locl_u8ErrorCode = LOGIC_ONE ;
    25c4:	81 e0       	ldi	r24, 0x01	; 1
    25c6:	89 83       	std	Y+1, r24	; 0x01
    25c8:	7b c0       	rjmp	.+246    	; 0x26c0 <DIO_u8SetPinDirection+0x210>
			break;
			}
		}
		else if(Copy_u8Direction == DIO_u8PIN_OUTPUT)
    25ca:	8c 81       	ldd	r24, Y+4	; 0x04
    25cc:	81 30       	cpi	r24, 0x01	; 1
    25ce:	09 f0       	breq	.+2      	; 0x25d2 <DIO_u8SetPinDirection+0x122>
    25d0:	72 c0       	rjmp	.+228    	; 0x26b6 <DIO_u8SetPinDirection+0x206>
		{
			switch(Copy_u8Port)
    25d2:	8a 81       	ldd	r24, Y+2	; 0x02
    25d4:	28 2f       	mov	r18, r24
    25d6:	30 e0       	ldi	r19, 0x00	; 0
    25d8:	3e 83       	std	Y+6, r19	; 0x06
    25da:	2d 83       	std	Y+5, r18	; 0x05
    25dc:	8d 81       	ldd	r24, Y+5	; 0x05
    25de:	9e 81       	ldd	r25, Y+6	; 0x06
    25e0:	81 30       	cpi	r24, 0x01	; 1
    25e2:	91 05       	cpc	r25, r1
    25e4:	49 f1       	breq	.+82     	; 0x2638 <DIO_u8SetPinDirection+0x188>
    25e6:	2d 81       	ldd	r18, Y+5	; 0x05
    25e8:	3e 81       	ldd	r19, Y+6	; 0x06
    25ea:	22 30       	cpi	r18, 0x02	; 2
    25ec:	31 05       	cpc	r19, r1
    25ee:	2c f4       	brge	.+10     	; 0x25fa <DIO_u8SetPinDirection+0x14a>
    25f0:	8d 81       	ldd	r24, Y+5	; 0x05
    25f2:	9e 81       	ldd	r25, Y+6	; 0x06
    25f4:	00 97       	sbiw	r24, 0x00	; 0
    25f6:	61 f0       	breq	.+24     	; 0x2610 <DIO_u8SetPinDirection+0x160>
    25f8:	5b c0       	rjmp	.+182    	; 0x26b0 <DIO_u8SetPinDirection+0x200>
    25fa:	2d 81       	ldd	r18, Y+5	; 0x05
    25fc:	3e 81       	ldd	r19, Y+6	; 0x06
    25fe:	22 30       	cpi	r18, 0x02	; 2
    2600:	31 05       	cpc	r19, r1
    2602:	71 f1       	breq	.+92     	; 0x2660 <DIO_u8SetPinDirection+0x1b0>
    2604:	8d 81       	ldd	r24, Y+5	; 0x05
    2606:	9e 81       	ldd	r25, Y+6	; 0x06
    2608:	83 30       	cpi	r24, 0x03	; 3
    260a:	91 05       	cpc	r25, r1
    260c:	e9 f1       	breq	.+122    	; 0x2688 <DIO_u8SetPinDirection+0x1d8>
    260e:	50 c0       	rjmp	.+160    	; 0x26b0 <DIO_u8SetPinDirection+0x200>
			{
			case DIO_u8PORTA: SET_BIT(DDRA,Copy_u8Pin);
    2610:	aa e3       	ldi	r26, 0x3A	; 58
    2612:	b0 e0       	ldi	r27, 0x00	; 0
    2614:	ea e3       	ldi	r30, 0x3A	; 58
    2616:	f0 e0       	ldi	r31, 0x00	; 0
    2618:	80 81       	ld	r24, Z
    261a:	48 2f       	mov	r20, r24
    261c:	8b 81       	ldd	r24, Y+3	; 0x03
    261e:	28 2f       	mov	r18, r24
    2620:	30 e0       	ldi	r19, 0x00	; 0
    2622:	81 e0       	ldi	r24, 0x01	; 1
    2624:	90 e0       	ldi	r25, 0x00	; 0
    2626:	02 2e       	mov	r0, r18
    2628:	02 c0       	rjmp	.+4      	; 0x262e <DIO_u8SetPinDirection+0x17e>
    262a:	88 0f       	add	r24, r24
    262c:	99 1f       	adc	r25, r25
    262e:	0a 94       	dec	r0
    2630:	e2 f7       	brpl	.-8      	; 0x262a <DIO_u8SetPinDirection+0x17a>
    2632:	84 2b       	or	r24, r20
    2634:	8c 93       	st	X, r24
    2636:	44 c0       	rjmp	.+136    	; 0x26c0 <DIO_u8SetPinDirection+0x210>
			break;

			case DIO_u8PORTB: SET_BIT(DDRB,Copy_u8Pin);
    2638:	a7 e3       	ldi	r26, 0x37	; 55
    263a:	b0 e0       	ldi	r27, 0x00	; 0
    263c:	e7 e3       	ldi	r30, 0x37	; 55
    263e:	f0 e0       	ldi	r31, 0x00	; 0
    2640:	80 81       	ld	r24, Z
    2642:	48 2f       	mov	r20, r24
    2644:	8b 81       	ldd	r24, Y+3	; 0x03
    2646:	28 2f       	mov	r18, r24
    2648:	30 e0       	ldi	r19, 0x00	; 0
    264a:	81 e0       	ldi	r24, 0x01	; 1
    264c:	90 e0       	ldi	r25, 0x00	; 0
    264e:	02 2e       	mov	r0, r18
    2650:	02 c0       	rjmp	.+4      	; 0x2656 <DIO_u8SetPinDirection+0x1a6>
    2652:	88 0f       	add	r24, r24
    2654:	99 1f       	adc	r25, r25
    2656:	0a 94       	dec	r0
    2658:	e2 f7       	brpl	.-8      	; 0x2652 <DIO_u8SetPinDirection+0x1a2>
    265a:	84 2b       	or	r24, r20
    265c:	8c 93       	st	X, r24
    265e:	30 c0       	rjmp	.+96     	; 0x26c0 <DIO_u8SetPinDirection+0x210>
			break;

			case DIO_u8PORTC: SET_BIT(DDRC,Copy_u8Pin);
    2660:	a4 e3       	ldi	r26, 0x34	; 52
    2662:	b0 e0       	ldi	r27, 0x00	; 0
    2664:	e4 e3       	ldi	r30, 0x34	; 52
    2666:	f0 e0       	ldi	r31, 0x00	; 0
    2668:	80 81       	ld	r24, Z
    266a:	48 2f       	mov	r20, r24
    266c:	8b 81       	ldd	r24, Y+3	; 0x03
    266e:	28 2f       	mov	r18, r24
    2670:	30 e0       	ldi	r19, 0x00	; 0
    2672:	81 e0       	ldi	r24, 0x01	; 1
    2674:	90 e0       	ldi	r25, 0x00	; 0
    2676:	02 2e       	mov	r0, r18
    2678:	02 c0       	rjmp	.+4      	; 0x267e <DIO_u8SetPinDirection+0x1ce>
    267a:	88 0f       	add	r24, r24
    267c:	99 1f       	adc	r25, r25
    267e:	0a 94       	dec	r0
    2680:	e2 f7       	brpl	.-8      	; 0x267a <DIO_u8SetPinDirection+0x1ca>
    2682:	84 2b       	or	r24, r20
    2684:	8c 93       	st	X, r24
    2686:	1c c0       	rjmp	.+56     	; 0x26c0 <DIO_u8SetPinDirection+0x210>
			break;

			case DIO_u8PORTD: SET_BIT(DDRD,Copy_u8Pin);
    2688:	a1 e3       	ldi	r26, 0x31	; 49
    268a:	b0 e0       	ldi	r27, 0x00	; 0
    268c:	e1 e3       	ldi	r30, 0x31	; 49
    268e:	f0 e0       	ldi	r31, 0x00	; 0
    2690:	80 81       	ld	r24, Z
    2692:	48 2f       	mov	r20, r24
    2694:	8b 81       	ldd	r24, Y+3	; 0x03
    2696:	28 2f       	mov	r18, r24
    2698:	30 e0       	ldi	r19, 0x00	; 0
    269a:	81 e0       	ldi	r24, 0x01	; 1
    269c:	90 e0       	ldi	r25, 0x00	; 0
    269e:	02 2e       	mov	r0, r18
    26a0:	02 c0       	rjmp	.+4      	; 0x26a6 <DIO_u8SetPinDirection+0x1f6>
    26a2:	88 0f       	add	r24, r24
    26a4:	99 1f       	adc	r25, r25
    26a6:	0a 94       	dec	r0
    26a8:	e2 f7       	brpl	.-8      	; 0x26a2 <DIO_u8SetPinDirection+0x1f2>
    26aa:	84 2b       	or	r24, r20
    26ac:	8c 93       	st	X, r24
    26ae:	08 c0       	rjmp	.+16     	; 0x26c0 <DIO_u8SetPinDirection+0x210>
			break;

			default: Locl_u8ErrorCode = LOGIC_ONE;
    26b0:	81 e0       	ldi	r24, 0x01	; 1
    26b2:	89 83       	std	Y+1, r24	; 0x01
    26b4:	05 c0       	rjmp	.+10     	; 0x26c0 <DIO_u8SetPinDirection+0x210>
			break;
			}
		}
		else
		{
			Locl_u8ErrorCode = two;
    26b6:	82 e0       	ldi	r24, 0x02	; 2
    26b8:	89 83       	std	Y+1, r24	; 0x01
    26ba:	02 c0       	rjmp	.+4      	; 0x26c0 <DIO_u8SetPinDirection+0x210>
		}
	}
	else
	{
		Locl_u8ErrorCode = three ;
    26bc:	83 e0       	ldi	r24, 0x03	; 3
    26be:	89 83       	std	Y+1, r24	; 0x01

	}

	return Locl_u8ErrorCode;
    26c0:	89 81       	ldd	r24, Y+1	; 0x01
}
    26c2:	28 96       	adiw	r28, 0x08	; 8
    26c4:	0f b6       	in	r0, 0x3f	; 63
    26c6:	f8 94       	cli
    26c8:	de bf       	out	0x3e, r29	; 62
    26ca:	0f be       	out	0x3f, r0	; 63
    26cc:	cd bf       	out	0x3d, r28	; 61
    26ce:	cf 91       	pop	r28
    26d0:	df 91       	pop	r29
    26d2:	08 95       	ret

000026d4 <DIO_u8SetPortDirection>:

u8 DIO_u8SetPortDirection(u8 Copy_u8Port, u8 Copy_u8PortDirection)
{
    26d4:	df 93       	push	r29
    26d6:	cf 93       	push	r28
    26d8:	00 d0       	rcall	.+0      	; 0x26da <DIO_u8SetPortDirection+0x6>
    26da:	00 d0       	rcall	.+0      	; 0x26dc <DIO_u8SetPortDirection+0x8>
    26dc:	0f 92       	push	r0
    26de:	cd b7       	in	r28, 0x3d	; 61
    26e0:	de b7       	in	r29, 0x3e	; 62
    26e2:	8a 83       	std	Y+2, r24	; 0x02
    26e4:	6b 83       	std	Y+3, r22	; 0x03
	/* Flag used in debugging and the return of the function will be u8
	 */
	u8 Locl_u8ErrorCode = LOGIC_ZERO ;
    26e6:	19 82       	std	Y+1, r1	; 0x01

	switch(Copy_u8Port)
    26e8:	8a 81       	ldd	r24, Y+2	; 0x02
    26ea:	28 2f       	mov	r18, r24
    26ec:	30 e0       	ldi	r19, 0x00	; 0
    26ee:	3d 83       	std	Y+5, r19	; 0x05
    26f0:	2c 83       	std	Y+4, r18	; 0x04
    26f2:	8c 81       	ldd	r24, Y+4	; 0x04
    26f4:	9d 81       	ldd	r25, Y+5	; 0x05
    26f6:	81 30       	cpi	r24, 0x01	; 1
    26f8:	91 05       	cpc	r25, r1
    26fa:	d1 f0       	breq	.+52     	; 0x2730 <DIO_u8SetPortDirection+0x5c>
    26fc:	2c 81       	ldd	r18, Y+4	; 0x04
    26fe:	3d 81       	ldd	r19, Y+5	; 0x05
    2700:	22 30       	cpi	r18, 0x02	; 2
    2702:	31 05       	cpc	r19, r1
    2704:	2c f4       	brge	.+10     	; 0x2710 <DIO_u8SetPortDirection+0x3c>
    2706:	8c 81       	ldd	r24, Y+4	; 0x04
    2708:	9d 81       	ldd	r25, Y+5	; 0x05
    270a:	00 97       	sbiw	r24, 0x00	; 0
    270c:	61 f0       	breq	.+24     	; 0x2726 <DIO_u8SetPortDirection+0x52>
    270e:	1f c0       	rjmp	.+62     	; 0x274e <DIO_u8SetPortDirection+0x7a>
    2710:	2c 81       	ldd	r18, Y+4	; 0x04
    2712:	3d 81       	ldd	r19, Y+5	; 0x05
    2714:	22 30       	cpi	r18, 0x02	; 2
    2716:	31 05       	cpc	r19, r1
    2718:	81 f0       	breq	.+32     	; 0x273a <DIO_u8SetPortDirection+0x66>
    271a:	8c 81       	ldd	r24, Y+4	; 0x04
    271c:	9d 81       	ldd	r25, Y+5	; 0x05
    271e:	83 30       	cpi	r24, 0x03	; 3
    2720:	91 05       	cpc	r25, r1
    2722:	81 f0       	breq	.+32     	; 0x2744 <DIO_u8SetPortDirection+0x70>
    2724:	14 c0       	rjmp	.+40     	; 0x274e <DIO_u8SetPortDirection+0x7a>
	{
	case DIO_u8PORTA: DDRA=Copy_u8PortDirection;
    2726:	ea e3       	ldi	r30, 0x3A	; 58
    2728:	f0 e0       	ldi	r31, 0x00	; 0
    272a:	8b 81       	ldd	r24, Y+3	; 0x03
    272c:	80 83       	st	Z, r24
    272e:	11 c0       	rjmp	.+34     	; 0x2752 <DIO_u8SetPortDirection+0x7e>
	break;

	case DIO_u8PORTB: DDRB=Copy_u8PortDirection;
    2730:	e7 e3       	ldi	r30, 0x37	; 55
    2732:	f0 e0       	ldi	r31, 0x00	; 0
    2734:	8b 81       	ldd	r24, Y+3	; 0x03
    2736:	80 83       	st	Z, r24
    2738:	0c c0       	rjmp	.+24     	; 0x2752 <DIO_u8SetPortDirection+0x7e>
	break;

	case DIO_u8PORTC: DDRC=Copy_u8PortDirection;
    273a:	e4 e3       	ldi	r30, 0x34	; 52
    273c:	f0 e0       	ldi	r31, 0x00	; 0
    273e:	8b 81       	ldd	r24, Y+3	; 0x03
    2740:	80 83       	st	Z, r24
    2742:	07 c0       	rjmp	.+14     	; 0x2752 <DIO_u8SetPortDirection+0x7e>
	break;

	case DIO_u8PORTD: DDRD=Copy_u8PortDirection;
    2744:	e1 e3       	ldi	r30, 0x31	; 49
    2746:	f0 e0       	ldi	r31, 0x00	; 0
    2748:	8b 81       	ldd	r24, Y+3	; 0x03
    274a:	80 83       	st	Z, r24
    274c:	02 c0       	rjmp	.+4      	; 0x2752 <DIO_u8SetPortDirection+0x7e>
	break;

	default: Locl_u8ErrorCode = LOGIC_ONE;
    274e:	81 e0       	ldi	r24, 0x01	; 1
    2750:	89 83       	std	Y+1, r24	; 0x01
    break;
	}


	return Locl_u8ErrorCode;
    2752:	89 81       	ldd	r24, Y+1	; 0x01
}
    2754:	0f 90       	pop	r0
    2756:	0f 90       	pop	r0
    2758:	0f 90       	pop	r0
    275a:	0f 90       	pop	r0
    275c:	0f 90       	pop	r0
    275e:	cf 91       	pop	r28
    2760:	df 91       	pop	r29
    2762:	08 95       	ret

00002764 <DIO_u8SetPinValue>:

u8 DIO_u8SetPinValue(u8 Copy_u8Port, u8 Copy_u8Pin, u8 Copy_u8Value)
{
    2764:	df 93       	push	r29
    2766:	cf 93       	push	r28
    2768:	cd b7       	in	r28, 0x3d	; 61
    276a:	de b7       	in	r29, 0x3e	; 62
    276c:	28 97       	sbiw	r28, 0x08	; 8
    276e:	0f b6       	in	r0, 0x3f	; 63
    2770:	f8 94       	cli
    2772:	de bf       	out	0x3e, r29	; 62
    2774:	0f be       	out	0x3f, r0	; 63
    2776:	cd bf       	out	0x3d, r28	; 61
    2778:	8a 83       	std	Y+2, r24	; 0x02
    277a:	6b 83       	std	Y+3, r22	; 0x03
    277c:	4c 83       	std	Y+4, r20	; 0x04
	/* Flag used in debugging and the return of the function will be u8
	 */
	u8 Locl_u8ErrorCode = LOGIC_ZERO ;
    277e:	19 82       	std	Y+1, r1	; 0x01

	if(Copy_u8Pin <= DIO_u8PIN7)
    2780:	8b 81       	ldd	r24, Y+3	; 0x03
    2782:	88 30       	cpi	r24, 0x08	; 8
    2784:	08 f0       	brcs	.+2      	; 0x2788 <DIO_u8SetPinValue+0x24>
    2786:	f4 c0       	rjmp	.+488    	; 0x2970 <DIO_u8SetPinValue+0x20c>
	{
		if(Copy_u8Value == DIO_u8PIN_LOW)
    2788:	8c 81       	ldd	r24, Y+4	; 0x04
    278a:	88 23       	and	r24, r24
    278c:	09 f0       	breq	.+2      	; 0x2790 <DIO_u8SetPinValue+0x2c>
    278e:	77 c0       	rjmp	.+238    	; 0x287e <DIO_u8SetPinValue+0x11a>
		{
			switch(Copy_u8Port)
    2790:	8a 81       	ldd	r24, Y+2	; 0x02
    2792:	28 2f       	mov	r18, r24
    2794:	30 e0       	ldi	r19, 0x00	; 0
    2796:	38 87       	std	Y+8, r19	; 0x08
    2798:	2f 83       	std	Y+7, r18	; 0x07
    279a:	8f 81       	ldd	r24, Y+7	; 0x07
    279c:	98 85       	ldd	r25, Y+8	; 0x08
    279e:	81 30       	cpi	r24, 0x01	; 1
    27a0:	91 05       	cpc	r25, r1
    27a2:	59 f1       	breq	.+86     	; 0x27fa <DIO_u8SetPinValue+0x96>
    27a4:	2f 81       	ldd	r18, Y+7	; 0x07
    27a6:	38 85       	ldd	r19, Y+8	; 0x08
    27a8:	22 30       	cpi	r18, 0x02	; 2
    27aa:	31 05       	cpc	r19, r1
    27ac:	2c f4       	brge	.+10     	; 0x27b8 <DIO_u8SetPinValue+0x54>
    27ae:	8f 81       	ldd	r24, Y+7	; 0x07
    27b0:	98 85       	ldd	r25, Y+8	; 0x08
    27b2:	00 97       	sbiw	r24, 0x00	; 0
    27b4:	69 f0       	breq	.+26     	; 0x27d0 <DIO_u8SetPinValue+0x6c>
    27b6:	60 c0       	rjmp	.+192    	; 0x2878 <DIO_u8SetPinValue+0x114>
    27b8:	2f 81       	ldd	r18, Y+7	; 0x07
    27ba:	38 85       	ldd	r19, Y+8	; 0x08
    27bc:	22 30       	cpi	r18, 0x02	; 2
    27be:	31 05       	cpc	r19, r1
    27c0:	89 f1       	breq	.+98     	; 0x2824 <DIO_u8SetPinValue+0xc0>
    27c2:	8f 81       	ldd	r24, Y+7	; 0x07
    27c4:	98 85       	ldd	r25, Y+8	; 0x08
    27c6:	83 30       	cpi	r24, 0x03	; 3
    27c8:	91 05       	cpc	r25, r1
    27ca:	09 f4       	brne	.+2      	; 0x27ce <DIO_u8SetPinValue+0x6a>
    27cc:	40 c0       	rjmp	.+128    	; 0x284e <DIO_u8SetPinValue+0xea>
    27ce:	54 c0       	rjmp	.+168    	; 0x2878 <DIO_u8SetPinValue+0x114>
			{
			case DIO_u8PORTA: CLR_BIT(PORTA,Copy_u8Pin);
    27d0:	ab e3       	ldi	r26, 0x3B	; 59
    27d2:	b0 e0       	ldi	r27, 0x00	; 0
    27d4:	eb e3       	ldi	r30, 0x3B	; 59
    27d6:	f0 e0       	ldi	r31, 0x00	; 0
    27d8:	80 81       	ld	r24, Z
    27da:	48 2f       	mov	r20, r24
    27dc:	8b 81       	ldd	r24, Y+3	; 0x03
    27de:	28 2f       	mov	r18, r24
    27e0:	30 e0       	ldi	r19, 0x00	; 0
    27e2:	81 e0       	ldi	r24, 0x01	; 1
    27e4:	90 e0       	ldi	r25, 0x00	; 0
    27e6:	02 2e       	mov	r0, r18
    27e8:	02 c0       	rjmp	.+4      	; 0x27ee <DIO_u8SetPinValue+0x8a>
    27ea:	88 0f       	add	r24, r24
    27ec:	99 1f       	adc	r25, r25
    27ee:	0a 94       	dec	r0
    27f0:	e2 f7       	brpl	.-8      	; 0x27ea <DIO_u8SetPinValue+0x86>
    27f2:	80 95       	com	r24
    27f4:	84 23       	and	r24, r20
    27f6:	8c 93       	st	X, r24
    27f8:	bd c0       	rjmp	.+378    	; 0x2974 <DIO_u8SetPinValue+0x210>
			break;

			case DIO_u8PORTB: CLR_BIT(PORTB,Copy_u8Pin);
    27fa:	a8 e3       	ldi	r26, 0x38	; 56
    27fc:	b0 e0       	ldi	r27, 0x00	; 0
    27fe:	e8 e3       	ldi	r30, 0x38	; 56
    2800:	f0 e0       	ldi	r31, 0x00	; 0
    2802:	80 81       	ld	r24, Z
    2804:	48 2f       	mov	r20, r24
    2806:	8b 81       	ldd	r24, Y+3	; 0x03
    2808:	28 2f       	mov	r18, r24
    280a:	30 e0       	ldi	r19, 0x00	; 0
    280c:	81 e0       	ldi	r24, 0x01	; 1
    280e:	90 e0       	ldi	r25, 0x00	; 0
    2810:	02 2e       	mov	r0, r18
    2812:	02 c0       	rjmp	.+4      	; 0x2818 <DIO_u8SetPinValue+0xb4>
    2814:	88 0f       	add	r24, r24
    2816:	99 1f       	adc	r25, r25
    2818:	0a 94       	dec	r0
    281a:	e2 f7       	brpl	.-8      	; 0x2814 <DIO_u8SetPinValue+0xb0>
    281c:	80 95       	com	r24
    281e:	84 23       	and	r24, r20
    2820:	8c 93       	st	X, r24
    2822:	a8 c0       	rjmp	.+336    	; 0x2974 <DIO_u8SetPinValue+0x210>
			break;

			case DIO_u8PORTC: CLR_BIT(PORTC,Copy_u8Pin);
    2824:	a5 e3       	ldi	r26, 0x35	; 53
    2826:	b0 e0       	ldi	r27, 0x00	; 0
    2828:	e5 e3       	ldi	r30, 0x35	; 53
    282a:	f0 e0       	ldi	r31, 0x00	; 0
    282c:	80 81       	ld	r24, Z
    282e:	48 2f       	mov	r20, r24
    2830:	8b 81       	ldd	r24, Y+3	; 0x03
    2832:	28 2f       	mov	r18, r24
    2834:	30 e0       	ldi	r19, 0x00	; 0
    2836:	81 e0       	ldi	r24, 0x01	; 1
    2838:	90 e0       	ldi	r25, 0x00	; 0
    283a:	02 2e       	mov	r0, r18
    283c:	02 c0       	rjmp	.+4      	; 0x2842 <DIO_u8SetPinValue+0xde>
    283e:	88 0f       	add	r24, r24
    2840:	99 1f       	adc	r25, r25
    2842:	0a 94       	dec	r0
    2844:	e2 f7       	brpl	.-8      	; 0x283e <DIO_u8SetPinValue+0xda>
    2846:	80 95       	com	r24
    2848:	84 23       	and	r24, r20
    284a:	8c 93       	st	X, r24
    284c:	93 c0       	rjmp	.+294    	; 0x2974 <DIO_u8SetPinValue+0x210>
			break;

			case DIO_u8PORTD: CLR_BIT(PORTD,Copy_u8Pin);
    284e:	a2 e3       	ldi	r26, 0x32	; 50
    2850:	b0 e0       	ldi	r27, 0x00	; 0
    2852:	e2 e3       	ldi	r30, 0x32	; 50
    2854:	f0 e0       	ldi	r31, 0x00	; 0
    2856:	80 81       	ld	r24, Z
    2858:	48 2f       	mov	r20, r24
    285a:	8b 81       	ldd	r24, Y+3	; 0x03
    285c:	28 2f       	mov	r18, r24
    285e:	30 e0       	ldi	r19, 0x00	; 0
    2860:	81 e0       	ldi	r24, 0x01	; 1
    2862:	90 e0       	ldi	r25, 0x00	; 0
    2864:	02 2e       	mov	r0, r18
    2866:	02 c0       	rjmp	.+4      	; 0x286c <DIO_u8SetPinValue+0x108>
    2868:	88 0f       	add	r24, r24
    286a:	99 1f       	adc	r25, r25
    286c:	0a 94       	dec	r0
    286e:	e2 f7       	brpl	.-8      	; 0x2868 <DIO_u8SetPinValue+0x104>
    2870:	80 95       	com	r24
    2872:	84 23       	and	r24, r20
    2874:	8c 93       	st	X, r24
    2876:	7e c0       	rjmp	.+252    	; 0x2974 <DIO_u8SetPinValue+0x210>
			break;

			default: Locl_u8ErrorCode = LOGIC_ONE;
    2878:	81 e0       	ldi	r24, 0x01	; 1
    287a:	89 83       	std	Y+1, r24	; 0x01
    287c:	7b c0       	rjmp	.+246    	; 0x2974 <DIO_u8SetPinValue+0x210>
					break;
			}
		}
		else if(Copy_u8Value == DIO_u8PIN_HIGH)
    287e:	8c 81       	ldd	r24, Y+4	; 0x04
    2880:	81 30       	cpi	r24, 0x01	; 1
    2882:	09 f0       	breq	.+2      	; 0x2886 <DIO_u8SetPinValue+0x122>
    2884:	72 c0       	rjmp	.+228    	; 0x296a <DIO_u8SetPinValue+0x206>
		{
			switch(Copy_u8Port)
    2886:	8a 81       	ldd	r24, Y+2	; 0x02
    2888:	28 2f       	mov	r18, r24
    288a:	30 e0       	ldi	r19, 0x00	; 0
    288c:	3e 83       	std	Y+6, r19	; 0x06
    288e:	2d 83       	std	Y+5, r18	; 0x05
    2890:	8d 81       	ldd	r24, Y+5	; 0x05
    2892:	9e 81       	ldd	r25, Y+6	; 0x06
    2894:	81 30       	cpi	r24, 0x01	; 1
    2896:	91 05       	cpc	r25, r1
    2898:	49 f1       	breq	.+82     	; 0x28ec <DIO_u8SetPinValue+0x188>
    289a:	2d 81       	ldd	r18, Y+5	; 0x05
    289c:	3e 81       	ldd	r19, Y+6	; 0x06
    289e:	22 30       	cpi	r18, 0x02	; 2
    28a0:	31 05       	cpc	r19, r1
    28a2:	2c f4       	brge	.+10     	; 0x28ae <DIO_u8SetPinValue+0x14a>
    28a4:	8d 81       	ldd	r24, Y+5	; 0x05
    28a6:	9e 81       	ldd	r25, Y+6	; 0x06
    28a8:	00 97       	sbiw	r24, 0x00	; 0
    28aa:	61 f0       	breq	.+24     	; 0x28c4 <DIO_u8SetPinValue+0x160>
    28ac:	5b c0       	rjmp	.+182    	; 0x2964 <DIO_u8SetPinValue+0x200>
    28ae:	2d 81       	ldd	r18, Y+5	; 0x05
    28b0:	3e 81       	ldd	r19, Y+6	; 0x06
    28b2:	22 30       	cpi	r18, 0x02	; 2
    28b4:	31 05       	cpc	r19, r1
    28b6:	71 f1       	breq	.+92     	; 0x2914 <DIO_u8SetPinValue+0x1b0>
    28b8:	8d 81       	ldd	r24, Y+5	; 0x05
    28ba:	9e 81       	ldd	r25, Y+6	; 0x06
    28bc:	83 30       	cpi	r24, 0x03	; 3
    28be:	91 05       	cpc	r25, r1
    28c0:	e9 f1       	breq	.+122    	; 0x293c <DIO_u8SetPinValue+0x1d8>
    28c2:	50 c0       	rjmp	.+160    	; 0x2964 <DIO_u8SetPinValue+0x200>
			{
			case DIO_u8PORTA: SET_BIT(PORTA,Copy_u8Pin);
    28c4:	ab e3       	ldi	r26, 0x3B	; 59
    28c6:	b0 e0       	ldi	r27, 0x00	; 0
    28c8:	eb e3       	ldi	r30, 0x3B	; 59
    28ca:	f0 e0       	ldi	r31, 0x00	; 0
    28cc:	80 81       	ld	r24, Z
    28ce:	48 2f       	mov	r20, r24
    28d0:	8b 81       	ldd	r24, Y+3	; 0x03
    28d2:	28 2f       	mov	r18, r24
    28d4:	30 e0       	ldi	r19, 0x00	; 0
    28d6:	81 e0       	ldi	r24, 0x01	; 1
    28d8:	90 e0       	ldi	r25, 0x00	; 0
    28da:	02 2e       	mov	r0, r18
    28dc:	02 c0       	rjmp	.+4      	; 0x28e2 <DIO_u8SetPinValue+0x17e>
    28de:	88 0f       	add	r24, r24
    28e0:	99 1f       	adc	r25, r25
    28e2:	0a 94       	dec	r0
    28e4:	e2 f7       	brpl	.-8      	; 0x28de <DIO_u8SetPinValue+0x17a>
    28e6:	84 2b       	or	r24, r20
    28e8:	8c 93       	st	X, r24
    28ea:	44 c0       	rjmp	.+136    	; 0x2974 <DIO_u8SetPinValue+0x210>
			break;

			case DIO_u8PORTB: SET_BIT(PORTB,Copy_u8Pin);
    28ec:	a8 e3       	ldi	r26, 0x38	; 56
    28ee:	b0 e0       	ldi	r27, 0x00	; 0
    28f0:	e8 e3       	ldi	r30, 0x38	; 56
    28f2:	f0 e0       	ldi	r31, 0x00	; 0
    28f4:	80 81       	ld	r24, Z
    28f6:	48 2f       	mov	r20, r24
    28f8:	8b 81       	ldd	r24, Y+3	; 0x03
    28fa:	28 2f       	mov	r18, r24
    28fc:	30 e0       	ldi	r19, 0x00	; 0
    28fe:	81 e0       	ldi	r24, 0x01	; 1
    2900:	90 e0       	ldi	r25, 0x00	; 0
    2902:	02 2e       	mov	r0, r18
    2904:	02 c0       	rjmp	.+4      	; 0x290a <DIO_u8SetPinValue+0x1a6>
    2906:	88 0f       	add	r24, r24
    2908:	99 1f       	adc	r25, r25
    290a:	0a 94       	dec	r0
    290c:	e2 f7       	brpl	.-8      	; 0x2906 <DIO_u8SetPinValue+0x1a2>
    290e:	84 2b       	or	r24, r20
    2910:	8c 93       	st	X, r24
    2912:	30 c0       	rjmp	.+96     	; 0x2974 <DIO_u8SetPinValue+0x210>
			break;

			case DIO_u8PORTC: SET_BIT(PORTC,Copy_u8Pin);
    2914:	a5 e3       	ldi	r26, 0x35	; 53
    2916:	b0 e0       	ldi	r27, 0x00	; 0
    2918:	e5 e3       	ldi	r30, 0x35	; 53
    291a:	f0 e0       	ldi	r31, 0x00	; 0
    291c:	80 81       	ld	r24, Z
    291e:	48 2f       	mov	r20, r24
    2920:	8b 81       	ldd	r24, Y+3	; 0x03
    2922:	28 2f       	mov	r18, r24
    2924:	30 e0       	ldi	r19, 0x00	; 0
    2926:	81 e0       	ldi	r24, 0x01	; 1
    2928:	90 e0       	ldi	r25, 0x00	; 0
    292a:	02 2e       	mov	r0, r18
    292c:	02 c0       	rjmp	.+4      	; 0x2932 <DIO_u8SetPinValue+0x1ce>
    292e:	88 0f       	add	r24, r24
    2930:	99 1f       	adc	r25, r25
    2932:	0a 94       	dec	r0
    2934:	e2 f7       	brpl	.-8      	; 0x292e <DIO_u8SetPinValue+0x1ca>
    2936:	84 2b       	or	r24, r20
    2938:	8c 93       	st	X, r24
    293a:	1c c0       	rjmp	.+56     	; 0x2974 <DIO_u8SetPinValue+0x210>
			break;

			case DIO_u8PORTD: SET_BIT(PORTD,Copy_u8Pin);
    293c:	a2 e3       	ldi	r26, 0x32	; 50
    293e:	b0 e0       	ldi	r27, 0x00	; 0
    2940:	e2 e3       	ldi	r30, 0x32	; 50
    2942:	f0 e0       	ldi	r31, 0x00	; 0
    2944:	80 81       	ld	r24, Z
    2946:	48 2f       	mov	r20, r24
    2948:	8b 81       	ldd	r24, Y+3	; 0x03
    294a:	28 2f       	mov	r18, r24
    294c:	30 e0       	ldi	r19, 0x00	; 0
    294e:	81 e0       	ldi	r24, 0x01	; 1
    2950:	90 e0       	ldi	r25, 0x00	; 0
    2952:	02 2e       	mov	r0, r18
    2954:	02 c0       	rjmp	.+4      	; 0x295a <DIO_u8SetPinValue+0x1f6>
    2956:	88 0f       	add	r24, r24
    2958:	99 1f       	adc	r25, r25
    295a:	0a 94       	dec	r0
    295c:	e2 f7       	brpl	.-8      	; 0x2956 <DIO_u8SetPinValue+0x1f2>
    295e:	84 2b       	or	r24, r20
    2960:	8c 93       	st	X, r24
    2962:	08 c0       	rjmp	.+16     	; 0x2974 <DIO_u8SetPinValue+0x210>
			break;

			default: Locl_u8ErrorCode = LOGIC_ONE;
    2964:	81 e0       	ldi	r24, 0x01	; 1
    2966:	89 83       	std	Y+1, r24	; 0x01
    2968:	05 c0       	rjmp	.+10     	; 0x2974 <DIO_u8SetPinValue+0x210>
			break;
			}
		}
		else
		{
			Locl_u8ErrorCode = two;
    296a:	82 e0       	ldi	r24, 0x02	; 2
    296c:	89 83       	std	Y+1, r24	; 0x01
    296e:	02 c0       	rjmp	.+4      	; 0x2974 <DIO_u8SetPinValue+0x210>
		}
	}
	else
	{
		Locl_u8ErrorCode = three ;
    2970:	83 e0       	ldi	r24, 0x03	; 3
    2972:	89 83       	std	Y+1, r24	; 0x01

	}

	return Locl_u8ErrorCode;
    2974:	89 81       	ldd	r24, Y+1	; 0x01
}
    2976:	28 96       	adiw	r28, 0x08	; 8
    2978:	0f b6       	in	r0, 0x3f	; 63
    297a:	f8 94       	cli
    297c:	de bf       	out	0x3e, r29	; 62
    297e:	0f be       	out	0x3f, r0	; 63
    2980:	cd bf       	out	0x3d, r28	; 61
    2982:	cf 91       	pop	r28
    2984:	df 91       	pop	r29
    2986:	08 95       	ret

00002988 <DIO_u8SetPortValue>:
u8 DIO_u8SetPortValue(u8 Copy_u8Port, u8 Copy_u8Value)
{
    2988:	df 93       	push	r29
    298a:	cf 93       	push	r28
    298c:	00 d0       	rcall	.+0      	; 0x298e <DIO_u8SetPortValue+0x6>
    298e:	00 d0       	rcall	.+0      	; 0x2990 <DIO_u8SetPortValue+0x8>
    2990:	0f 92       	push	r0
    2992:	cd b7       	in	r28, 0x3d	; 61
    2994:	de b7       	in	r29, 0x3e	; 62
    2996:	8a 83       	std	Y+2, r24	; 0x02
    2998:	6b 83       	std	Y+3, r22	; 0x03
	u8 Locl_u8ErrorCode=LOGIC_ZERO;
    299a:	19 82       	std	Y+1, r1	; 0x01
	switch(Copy_u8Port)
    299c:	8a 81       	ldd	r24, Y+2	; 0x02
    299e:	28 2f       	mov	r18, r24
    29a0:	30 e0       	ldi	r19, 0x00	; 0
    29a2:	3d 83       	std	Y+5, r19	; 0x05
    29a4:	2c 83       	std	Y+4, r18	; 0x04
    29a6:	8c 81       	ldd	r24, Y+4	; 0x04
    29a8:	9d 81       	ldd	r25, Y+5	; 0x05
    29aa:	81 30       	cpi	r24, 0x01	; 1
    29ac:	91 05       	cpc	r25, r1
    29ae:	d1 f0       	breq	.+52     	; 0x29e4 <DIO_u8SetPortValue+0x5c>
    29b0:	2c 81       	ldd	r18, Y+4	; 0x04
    29b2:	3d 81       	ldd	r19, Y+5	; 0x05
    29b4:	22 30       	cpi	r18, 0x02	; 2
    29b6:	31 05       	cpc	r19, r1
    29b8:	2c f4       	brge	.+10     	; 0x29c4 <DIO_u8SetPortValue+0x3c>
    29ba:	8c 81       	ldd	r24, Y+4	; 0x04
    29bc:	9d 81       	ldd	r25, Y+5	; 0x05
    29be:	00 97       	sbiw	r24, 0x00	; 0
    29c0:	61 f0       	breq	.+24     	; 0x29da <DIO_u8SetPortValue+0x52>
    29c2:	1f c0       	rjmp	.+62     	; 0x2a02 <DIO_u8SetPortValue+0x7a>
    29c4:	2c 81       	ldd	r18, Y+4	; 0x04
    29c6:	3d 81       	ldd	r19, Y+5	; 0x05
    29c8:	22 30       	cpi	r18, 0x02	; 2
    29ca:	31 05       	cpc	r19, r1
    29cc:	81 f0       	breq	.+32     	; 0x29ee <DIO_u8SetPortValue+0x66>
    29ce:	8c 81       	ldd	r24, Y+4	; 0x04
    29d0:	9d 81       	ldd	r25, Y+5	; 0x05
    29d2:	83 30       	cpi	r24, 0x03	; 3
    29d4:	91 05       	cpc	r25, r1
    29d6:	81 f0       	breq	.+32     	; 0x29f8 <DIO_u8SetPortValue+0x70>
    29d8:	14 c0       	rjmp	.+40     	; 0x2a02 <DIO_u8SetPortValue+0x7a>
	{
	case DIO_u8PORTA: PORTA=Copy_u8Value;
    29da:	eb e3       	ldi	r30, 0x3B	; 59
    29dc:	f0 e0       	ldi	r31, 0x00	; 0
    29de:	8b 81       	ldd	r24, Y+3	; 0x03
    29e0:	80 83       	st	Z, r24
    29e2:	11 c0       	rjmp	.+34     	; 0x2a06 <DIO_u8SetPortValue+0x7e>
	break;

	case DIO_u8PORTB: PORTB=Copy_u8Value;
    29e4:	e8 e3       	ldi	r30, 0x38	; 56
    29e6:	f0 e0       	ldi	r31, 0x00	; 0
    29e8:	8b 81       	ldd	r24, Y+3	; 0x03
    29ea:	80 83       	st	Z, r24
    29ec:	0c c0       	rjmp	.+24     	; 0x2a06 <DIO_u8SetPortValue+0x7e>
	break;

	case DIO_u8PORTC: PORTC=Copy_u8Value;
    29ee:	e5 e3       	ldi	r30, 0x35	; 53
    29f0:	f0 e0       	ldi	r31, 0x00	; 0
    29f2:	8b 81       	ldd	r24, Y+3	; 0x03
    29f4:	80 83       	st	Z, r24
    29f6:	07 c0       	rjmp	.+14     	; 0x2a06 <DIO_u8SetPortValue+0x7e>
	break;

	case DIO_u8PORTD: PORTD=Copy_u8Value;
    29f8:	e2 e3       	ldi	r30, 0x32	; 50
    29fa:	f0 e0       	ldi	r31, 0x00	; 0
    29fc:	8b 81       	ldd	r24, Y+3	; 0x03
    29fe:	80 83       	st	Z, r24
    2a00:	02 c0       	rjmp	.+4      	; 0x2a06 <DIO_u8SetPortValue+0x7e>
	break;

	default: Locl_u8ErrorCode = LOGIC_ONE;
    2a02:	81 e0       	ldi	r24, 0x01	; 1
    2a04:	89 83       	std	Y+1, r24	; 0x01
	break;
	}


	return Locl_u8ErrorCode;
    2a06:	89 81       	ldd	r24, Y+1	; 0x01
}
    2a08:	0f 90       	pop	r0
    2a0a:	0f 90       	pop	r0
    2a0c:	0f 90       	pop	r0
    2a0e:	0f 90       	pop	r0
    2a10:	0f 90       	pop	r0
    2a12:	cf 91       	pop	r28
    2a14:	df 91       	pop	r29
    2a16:	08 95       	ret

00002a18 <DIO_u8GetPinValue>:

u8 DIO_u8GetPinValue(u8 Copy_u8Port, u8 Copy_u8Pin, u8* Copy_pu8PinValue)
{
    2a18:	df 93       	push	r29
    2a1a:	cf 93       	push	r28
    2a1c:	cd b7       	in	r28, 0x3d	; 61
    2a1e:	de b7       	in	r29, 0x3e	; 62
    2a20:	27 97       	sbiw	r28, 0x07	; 7
    2a22:	0f b6       	in	r0, 0x3f	; 63
    2a24:	f8 94       	cli
    2a26:	de bf       	out	0x3e, r29	; 62
    2a28:	0f be       	out	0x3f, r0	; 63
    2a2a:	cd bf       	out	0x3d, r28	; 61
    2a2c:	8a 83       	std	Y+2, r24	; 0x02
    2a2e:	6b 83       	std	Y+3, r22	; 0x03
    2a30:	5d 83       	std	Y+5, r21	; 0x05
    2a32:	4c 83       	std	Y+4, r20	; 0x04
	/* Flag used in debugging and the return of the function will be u8
	 * */
	/*Here we need to make pointer to can return two variables
	from this function*/
	u8 Locl_u8ErrorCode = LOGIC_ZERO;
    2a34:	19 82       	std	Y+1, r1	; 0x01

	if((Copy_pu8PinValue != NULL) && (Copy_u8Pin <= DIO_u8PIN7))
    2a36:	8c 81       	ldd	r24, Y+4	; 0x04
    2a38:	9d 81       	ldd	r25, Y+5	; 0x05
    2a3a:	00 97       	sbiw	r24, 0x00	; 0
    2a3c:	09 f4       	brne	.+2      	; 0x2a40 <DIO_u8GetPinValue+0x28>
    2a3e:	78 c0       	rjmp	.+240    	; 0x2b30 <DIO_u8GetPinValue+0x118>
    2a40:	8b 81       	ldd	r24, Y+3	; 0x03
    2a42:	88 30       	cpi	r24, 0x08	; 8
    2a44:	08 f0       	brcs	.+2      	; 0x2a48 <DIO_u8GetPinValue+0x30>
    2a46:	74 c0       	rjmp	.+232    	; 0x2b30 <DIO_u8GetPinValue+0x118>
	{
		switch(Copy_u8Port)
    2a48:	8a 81       	ldd	r24, Y+2	; 0x02
    2a4a:	28 2f       	mov	r18, r24
    2a4c:	30 e0       	ldi	r19, 0x00	; 0
    2a4e:	3f 83       	std	Y+7, r19	; 0x07
    2a50:	2e 83       	std	Y+6, r18	; 0x06
    2a52:	4e 81       	ldd	r20, Y+6	; 0x06
    2a54:	5f 81       	ldd	r21, Y+7	; 0x07
    2a56:	41 30       	cpi	r20, 0x01	; 1
    2a58:	51 05       	cpc	r21, r1
    2a5a:	59 f1       	breq	.+86     	; 0x2ab2 <DIO_u8GetPinValue+0x9a>
    2a5c:	8e 81       	ldd	r24, Y+6	; 0x06
    2a5e:	9f 81       	ldd	r25, Y+7	; 0x07
    2a60:	82 30       	cpi	r24, 0x02	; 2
    2a62:	91 05       	cpc	r25, r1
    2a64:	34 f4       	brge	.+12     	; 0x2a72 <DIO_u8GetPinValue+0x5a>
    2a66:	2e 81       	ldd	r18, Y+6	; 0x06
    2a68:	3f 81       	ldd	r19, Y+7	; 0x07
    2a6a:	21 15       	cp	r18, r1
    2a6c:	31 05       	cpc	r19, r1
    2a6e:	69 f0       	breq	.+26     	; 0x2a8a <DIO_u8GetPinValue+0x72>
    2a70:	5c c0       	rjmp	.+184    	; 0x2b2a <DIO_u8GetPinValue+0x112>
    2a72:	4e 81       	ldd	r20, Y+6	; 0x06
    2a74:	5f 81       	ldd	r21, Y+7	; 0x07
    2a76:	42 30       	cpi	r20, 0x02	; 2
    2a78:	51 05       	cpc	r21, r1
    2a7a:	79 f1       	breq	.+94     	; 0x2ada <DIO_u8GetPinValue+0xc2>
    2a7c:	8e 81       	ldd	r24, Y+6	; 0x06
    2a7e:	9f 81       	ldd	r25, Y+7	; 0x07
    2a80:	83 30       	cpi	r24, 0x03	; 3
    2a82:	91 05       	cpc	r25, r1
    2a84:	09 f4       	brne	.+2      	; 0x2a88 <DIO_u8GetPinValue+0x70>
    2a86:	3d c0       	rjmp	.+122    	; 0x2b02 <DIO_u8GetPinValue+0xea>
    2a88:	50 c0       	rjmp	.+160    	; 0x2b2a <DIO_u8GetPinValue+0x112>
		{
		case DIO_u8PORTA: *Copy_pu8PinValue=GET_BIT(PINA,Copy_u8Pin);
    2a8a:	e9 e3       	ldi	r30, 0x39	; 57
    2a8c:	f0 e0       	ldi	r31, 0x00	; 0
    2a8e:	80 81       	ld	r24, Z
    2a90:	28 2f       	mov	r18, r24
    2a92:	30 e0       	ldi	r19, 0x00	; 0
    2a94:	8b 81       	ldd	r24, Y+3	; 0x03
    2a96:	88 2f       	mov	r24, r24
    2a98:	90 e0       	ldi	r25, 0x00	; 0
    2a9a:	a9 01       	movw	r20, r18
    2a9c:	02 c0       	rjmp	.+4      	; 0x2aa2 <DIO_u8GetPinValue+0x8a>
    2a9e:	55 95       	asr	r21
    2aa0:	47 95       	ror	r20
    2aa2:	8a 95       	dec	r24
    2aa4:	e2 f7       	brpl	.-8      	; 0x2a9e <DIO_u8GetPinValue+0x86>
    2aa6:	ca 01       	movw	r24, r20
    2aa8:	81 70       	andi	r24, 0x01	; 1
    2aaa:	ec 81       	ldd	r30, Y+4	; 0x04
    2aac:	fd 81       	ldd	r31, Y+5	; 0x05
    2aae:	80 83       	st	Z, r24
    2ab0:	41 c0       	rjmp	.+130    	; 0x2b34 <DIO_u8GetPinValue+0x11c>
		break;

		case DIO_u8PORTB: *Copy_pu8PinValue=GET_BIT(PINB,Copy_u8Pin);
    2ab2:	e6 e3       	ldi	r30, 0x36	; 54
    2ab4:	f0 e0       	ldi	r31, 0x00	; 0
    2ab6:	80 81       	ld	r24, Z
    2ab8:	28 2f       	mov	r18, r24
    2aba:	30 e0       	ldi	r19, 0x00	; 0
    2abc:	8b 81       	ldd	r24, Y+3	; 0x03
    2abe:	88 2f       	mov	r24, r24
    2ac0:	90 e0       	ldi	r25, 0x00	; 0
    2ac2:	a9 01       	movw	r20, r18
    2ac4:	02 c0       	rjmp	.+4      	; 0x2aca <DIO_u8GetPinValue+0xb2>
    2ac6:	55 95       	asr	r21
    2ac8:	47 95       	ror	r20
    2aca:	8a 95       	dec	r24
    2acc:	e2 f7       	brpl	.-8      	; 0x2ac6 <DIO_u8GetPinValue+0xae>
    2ace:	ca 01       	movw	r24, r20
    2ad0:	81 70       	andi	r24, 0x01	; 1
    2ad2:	ec 81       	ldd	r30, Y+4	; 0x04
    2ad4:	fd 81       	ldd	r31, Y+5	; 0x05
    2ad6:	80 83       	st	Z, r24
    2ad8:	2d c0       	rjmp	.+90     	; 0x2b34 <DIO_u8GetPinValue+0x11c>
		break;

		case DIO_u8PORTC: *Copy_pu8PinValue=GET_BIT(PINC,Copy_u8Pin);
    2ada:	e3 e3       	ldi	r30, 0x33	; 51
    2adc:	f0 e0       	ldi	r31, 0x00	; 0
    2ade:	80 81       	ld	r24, Z
    2ae0:	28 2f       	mov	r18, r24
    2ae2:	30 e0       	ldi	r19, 0x00	; 0
    2ae4:	8b 81       	ldd	r24, Y+3	; 0x03
    2ae6:	88 2f       	mov	r24, r24
    2ae8:	90 e0       	ldi	r25, 0x00	; 0
    2aea:	a9 01       	movw	r20, r18
    2aec:	02 c0       	rjmp	.+4      	; 0x2af2 <DIO_u8GetPinValue+0xda>
    2aee:	55 95       	asr	r21
    2af0:	47 95       	ror	r20
    2af2:	8a 95       	dec	r24
    2af4:	e2 f7       	brpl	.-8      	; 0x2aee <DIO_u8GetPinValue+0xd6>
    2af6:	ca 01       	movw	r24, r20
    2af8:	81 70       	andi	r24, 0x01	; 1
    2afa:	ec 81       	ldd	r30, Y+4	; 0x04
    2afc:	fd 81       	ldd	r31, Y+5	; 0x05
    2afe:	80 83       	st	Z, r24
    2b00:	19 c0       	rjmp	.+50     	; 0x2b34 <DIO_u8GetPinValue+0x11c>
		break;

		case DIO_u8PORTD: *Copy_pu8PinValue=GET_BIT(PIND,Copy_u8Pin);
    2b02:	e0 e3       	ldi	r30, 0x30	; 48
    2b04:	f0 e0       	ldi	r31, 0x00	; 0
    2b06:	80 81       	ld	r24, Z
    2b08:	28 2f       	mov	r18, r24
    2b0a:	30 e0       	ldi	r19, 0x00	; 0
    2b0c:	8b 81       	ldd	r24, Y+3	; 0x03
    2b0e:	88 2f       	mov	r24, r24
    2b10:	90 e0       	ldi	r25, 0x00	; 0
    2b12:	a9 01       	movw	r20, r18
    2b14:	02 c0       	rjmp	.+4      	; 0x2b1a <DIO_u8GetPinValue+0x102>
    2b16:	55 95       	asr	r21
    2b18:	47 95       	ror	r20
    2b1a:	8a 95       	dec	r24
    2b1c:	e2 f7       	brpl	.-8      	; 0x2b16 <DIO_u8GetPinValue+0xfe>
    2b1e:	ca 01       	movw	r24, r20
    2b20:	81 70       	andi	r24, 0x01	; 1
    2b22:	ec 81       	ldd	r30, Y+4	; 0x04
    2b24:	fd 81       	ldd	r31, Y+5	; 0x05
    2b26:	80 83       	st	Z, r24
    2b28:	05 c0       	rjmp	.+10     	; 0x2b34 <DIO_u8GetPinValue+0x11c>
		break;

		default: Locl_u8ErrorCode = LOGIC_ONE;
    2b2a:	81 e0       	ldi	r24, 0x01	; 1
    2b2c:	89 83       	std	Y+1, r24	; 0x01
    2b2e:	02 c0       	rjmp	.+4      	; 0x2b34 <DIO_u8GetPinValue+0x11c>
		break;
		}
	}
	else
	{
		Locl_u8ErrorCode = two ;
    2b30:	82 e0       	ldi	r24, 0x02	; 2
    2b32:	89 83       	std	Y+1, r24	; 0x01
	}
	return Locl_u8ErrorCode ;
    2b34:	89 81       	ldd	r24, Y+1	; 0x01
	 * {
	 *
	 * }
	 * */

}
    2b36:	27 96       	adiw	r28, 0x07	; 7
    2b38:	0f b6       	in	r0, 0x3f	; 63
    2b3a:	f8 94       	cli
    2b3c:	de bf       	out	0x3e, r29	; 62
    2b3e:	0f be       	out	0x3f, r0	; 63
    2b40:	cd bf       	out	0x3d, r28	; 61
    2b42:	cf 91       	pop	r28
    2b44:	df 91       	pop	r29
    2b46:	08 95       	ret

00002b48 <EXTI_voidINT0Init>:
/***************************************************************************/
/***************************************************************************/

/*Function to Initialize INT0 using Pre Build Config.*/
void EXTI_voidINT0Init()
{
    2b48:	df 93       	push	r29
    2b4a:	cf 93       	push	r28
    2b4c:	cd b7       	in	r28, 0x3d	; 61
    2b4e:	de b7       	in	r29, 0x3e	; 62
#elif   INT0_SENSE==ON_CHANGE
	SET_BIT(MCUCR,MCUCR_ISC00);
	CLR_BIT(MCUCR,MCUCR_ISC01);

#elif   INT0_SENSE==FALLING_EDGE
	CLR_BIT(MCUCR,MCUCR_ISC00);
    2b50:	a5 e5       	ldi	r26, 0x55	; 85
    2b52:	b0 e0       	ldi	r27, 0x00	; 0
    2b54:	e5 e5       	ldi	r30, 0x55	; 85
    2b56:	f0 e0       	ldi	r31, 0x00	; 0
    2b58:	80 81       	ld	r24, Z
    2b5a:	8e 7f       	andi	r24, 0xFE	; 254
    2b5c:	8c 93       	st	X, r24
	SET_BIT(MCUCR,MCUCR_ISC01);
    2b5e:	a5 e5       	ldi	r26, 0x55	; 85
    2b60:	b0 e0       	ldi	r27, 0x00	; 0
    2b62:	e5 e5       	ldi	r30, 0x55	; 85
    2b64:	f0 e0       	ldi	r31, 0x00	; 0
    2b66:	80 81       	ld	r24, Z
    2b68:	82 60       	ori	r24, 0x02	; 2
    2b6a:	8c 93       	st	X, r24
#error "Wrong INT0_SENSE Configuration Option"

#endif
	/*2- Check Peripherial Interrupt Enable */
#if INT0_INITIAL_STATE==ENABLED
	SET_BIT(GICR,GICR_INT0);
    2b6c:	ab e5       	ldi	r26, 0x5B	; 91
    2b6e:	b0 e0       	ldi	r27, 0x00	; 0
    2b70:	eb e5       	ldi	r30, 0x5B	; 91
    2b72:	f0 e0       	ldi	r31, 0x00	; 0
    2b74:	80 81       	ld	r24, Z
    2b76:	80 64       	ori	r24, 0x40	; 64
    2b78:	8c 93       	st	X, r24
#else
#error "Wrong INT0_INITIAL_STATE Configuration Option"

#endif

}
    2b7a:	cf 91       	pop	r28
    2b7c:	df 91       	pop	r29
    2b7e:	08 95       	ret

00002b80 <EXTI_voidINT1Init>:
/*Function to Initialize INT1 Pre Build Config.*/
void EXTI_voidINT1Init()
{
    2b80:	df 93       	push	r29
    2b82:	cf 93       	push	r28
    2b84:	cd b7       	in	r28, 0x3d	; 61
    2b86:	de b7       	in	r29, 0x3e	; 62
#elif INT1_SENSE==ON_CHANGE
	SET_BIT(MCUCR,MCUCR_ISC10);
	CLR_BIT(MCUCR,MCUCR_ISC11);

#elif INT1_SENSE==FALLING_EDGE
	CLR_BIT(MCUCR,MCUCR_ISC10);
    2b88:	a5 e5       	ldi	r26, 0x55	; 85
    2b8a:	b0 e0       	ldi	r27, 0x00	; 0
    2b8c:	e5 e5       	ldi	r30, 0x55	; 85
    2b8e:	f0 e0       	ldi	r31, 0x00	; 0
    2b90:	80 81       	ld	r24, Z
    2b92:	8b 7f       	andi	r24, 0xFB	; 251
    2b94:	8c 93       	st	X, r24
	SET_BIT(MCUCR,MCUCR_ISC11);
    2b96:	a5 e5       	ldi	r26, 0x55	; 85
    2b98:	b0 e0       	ldi	r27, 0x00	; 0
    2b9a:	e5 e5       	ldi	r30, 0x55	; 85
    2b9c:	f0 e0       	ldi	r31, 0x00	; 0
    2b9e:	80 81       	ld	r24, Z
    2ba0:	88 60       	ori	r24, 0x08	; 8
    2ba2:	8c 93       	st	X, r24

#endif
	/***************************************************************************/
	/*Check Peripherial Interrupt Enable of INT1*/
#if  INT1_INITIAL_STATE==ENABLED
	SET_BIT(GICR,GICR_INT1);
    2ba4:	ab e5       	ldi	r26, 0x5B	; 91
    2ba6:	b0 e0       	ldi	r27, 0x00	; 0
    2ba8:	eb e5       	ldi	r30, 0x5B	; 91
    2baa:	f0 e0       	ldi	r31, 0x00	; 0
    2bac:	80 81       	ld	r24, Z
    2bae:	80 68       	ori	r24, 0x80	; 128
    2bb0:	8c 93       	st	X, r24
	CLR_BIT(GICR,GICR_INT1);

#else
	"Wrong INT1_INITIAL_STATE Configuration Option ";
#endif
}
    2bb2:	cf 91       	pop	r28
    2bb4:	df 91       	pop	r29
    2bb6:	08 95       	ret

00002bb8 <EXTI_voidINT2Init>:
/*Function to Initialize INT2 Pre Build Config.*/
void EXTI_voidINT2Init()
{
    2bb8:	df 93       	push	r29
    2bba:	cf 93       	push	r28
    2bbc:	cd b7       	in	r28, 0x3d	; 61
    2bbe:	de b7       	in	r29, 0x3e	; 62
	/*Check Sense Control of INT2*/
#if INT2_SENSE==FALLING_EDGE
	CLR_BIT(MCUCSR,MCUCR_ISC2);
    2bc0:	a4 e5       	ldi	r26, 0x54	; 84
    2bc2:	b0 e0       	ldi	r27, 0x00	; 0
    2bc4:	e4 e5       	ldi	r30, 0x54	; 84
    2bc6:	f0 e0       	ldi	r31, 0x00	; 0
    2bc8:	80 81       	ld	r24, Z
    2bca:	8f 7b       	andi	r24, 0xBF	; 191
    2bcc:	8c 93       	st	X, r24

#endif
	/***************************************************************************/
	/*Check Peripherial Interrupt Enable of INT2*/
#if INT2_INITIAL_STATE==ENABLED
	SET_BIT(GICR,GICR_INT2);
    2bce:	ab e5       	ldi	r26, 0x5B	; 91
    2bd0:	b0 e0       	ldi	r27, 0x00	; 0
    2bd2:	eb e5       	ldi	r30, 0x5B	; 91
    2bd4:	f0 e0       	ldi	r31, 0x00	; 0
    2bd6:	80 81       	ld	r24, Z
    2bd8:	80 62       	ori	r24, 0x20	; 32
    2bda:	8c 93       	st	X, r24
	CLR_BIT(GICR,GICR_INT2);

#else
	"Wrong INT2_INITIAL_STATE Configuration Option ";
#endif
}
    2bdc:	cf 91       	pop	r28
    2bde:	df 91       	pop	r29
    2be0:	08 95       	ret

00002be2 <EXTI_u8INTSetSenseControl>:
/***************************************************************************/
/*Function to Set Sense Control using Post Build Config. */
u8 EXTI_u8INTSetSenseControl(u8 Copy_u8Interrupt,u8 Copy_u8SenseControl)
{
    2be2:	df 93       	push	r29
    2be4:	cf 93       	push	r28
    2be6:	cd b7       	in	r28, 0x3d	; 61
    2be8:	de b7       	in	r29, 0x3e	; 62
    2bea:	29 97       	sbiw	r28, 0x09	; 9
    2bec:	0f b6       	in	r0, 0x3f	; 63
    2bee:	f8 94       	cli
    2bf0:	de bf       	out	0x3e, r29	; 62
    2bf2:	0f be       	out	0x3f, r0	; 63
    2bf4:	cd bf       	out	0x3d, r28	; 61
    2bf6:	8a 83       	std	Y+2, r24	; 0x02
    2bf8:	6b 83       	std	Y+3, r22	; 0x03
	u8 Local_u8ErrorState=OK;
    2bfa:	19 82       	std	Y+1, r1	; 0x01
	/*Set INT0 Sense Control */
	if(Copy_u8Interrupt==EXTI_INT0)
    2bfc:	8a 81       	ldd	r24, Y+2	; 0x02
    2bfe:	81 30       	cpi	r24, 0x01	; 1
    2c00:	09 f0       	breq	.+2      	; 0x2c04 <EXTI_u8INTSetSenseControl+0x22>
    2c02:	5f c0       	rjmp	.+190    	; 0x2cc2 <EXTI_u8INTSetSenseControl+0xe0>
	{
		switch(Local_u8ErrorState)
    2c04:	89 81       	ldd	r24, Y+1	; 0x01
    2c06:	28 2f       	mov	r18, r24
    2c08:	30 e0       	ldi	r19, 0x00	; 0
    2c0a:	39 87       	std	Y+9, r19	; 0x09
    2c0c:	28 87       	std	Y+8, r18	; 0x08
    2c0e:	88 85       	ldd	r24, Y+8	; 0x08
    2c10:	99 85       	ldd	r25, Y+9	; 0x09
    2c12:	82 30       	cpi	r24, 0x02	; 2
    2c14:	91 05       	cpc	r25, r1
    2c16:	29 f1       	breq	.+74     	; 0x2c62 <EXTI_u8INTSetSenseControl+0x80>
    2c18:	28 85       	ldd	r18, Y+8	; 0x08
    2c1a:	39 85       	ldd	r19, Y+9	; 0x09
    2c1c:	23 30       	cpi	r18, 0x03	; 3
    2c1e:	31 05       	cpc	r19, r1
    2c20:	34 f4       	brge	.+12     	; 0x2c2e <EXTI_u8INTSetSenseControl+0x4c>
    2c22:	88 85       	ldd	r24, Y+8	; 0x08
    2c24:	99 85       	ldd	r25, Y+9	; 0x09
    2c26:	81 30       	cpi	r24, 0x01	; 1
    2c28:	91 05       	cpc	r25, r1
    2c2a:	61 f0       	breq	.+24     	; 0x2c44 <EXTI_u8INTSetSenseControl+0x62>
    2c2c:	47 c0       	rjmp	.+142    	; 0x2cbc <EXTI_u8INTSetSenseControl+0xda>
    2c2e:	28 85       	ldd	r18, Y+8	; 0x08
    2c30:	39 85       	ldd	r19, Y+9	; 0x09
    2c32:	23 30       	cpi	r18, 0x03	; 3
    2c34:	31 05       	cpc	r19, r1
    2c36:	21 f1       	breq	.+72     	; 0x2c80 <EXTI_u8INTSetSenseControl+0x9e>
    2c38:	88 85       	ldd	r24, Y+8	; 0x08
    2c3a:	99 85       	ldd	r25, Y+9	; 0x09
    2c3c:	84 30       	cpi	r24, 0x04	; 4
    2c3e:	91 05       	cpc	r25, r1
    2c40:	71 f1       	breq	.+92     	; 0x2c9e <EXTI_u8INTSetSenseControl+0xbc>
    2c42:	3c c0       	rjmp	.+120    	; 0x2cbc <EXTI_u8INTSetSenseControl+0xda>
		{
		case LOW_LEVEL:
			CLR_BIT(MCUCR,MCUCR_ISC00);
    2c44:	a5 e5       	ldi	r26, 0x55	; 85
    2c46:	b0 e0       	ldi	r27, 0x00	; 0
    2c48:	e5 e5       	ldi	r30, 0x55	; 85
    2c4a:	f0 e0       	ldi	r31, 0x00	; 0
    2c4c:	80 81       	ld	r24, Z
    2c4e:	8e 7f       	andi	r24, 0xFE	; 254
    2c50:	8c 93       	st	X, r24
			CLR_BIT(MCUCR,MCUCR_ISC01);
    2c52:	a5 e5       	ldi	r26, 0x55	; 85
    2c54:	b0 e0       	ldi	r27, 0x00	; 0
    2c56:	e5 e5       	ldi	r30, 0x55	; 85
    2c58:	f0 e0       	ldi	r31, 0x00	; 0
    2c5a:	80 81       	ld	r24, Z
    2c5c:	8d 7f       	andi	r24, 0xFD	; 253
    2c5e:	8c 93       	st	X, r24
    2c60:	bb c0       	rjmp	.+374    	; 0x2dd8 <EXTI_u8INTSetSenseControl+0x1f6>
			break;
		case ON_CHANGE:
			SET_BIT(MCUCR,MCUCR_ISC00);
    2c62:	a5 e5       	ldi	r26, 0x55	; 85
    2c64:	b0 e0       	ldi	r27, 0x00	; 0
    2c66:	e5 e5       	ldi	r30, 0x55	; 85
    2c68:	f0 e0       	ldi	r31, 0x00	; 0
    2c6a:	80 81       	ld	r24, Z
    2c6c:	81 60       	ori	r24, 0x01	; 1
    2c6e:	8c 93       	st	X, r24
			CLR_BIT(MCUCR,MCUCR_ISC01);
    2c70:	a5 e5       	ldi	r26, 0x55	; 85
    2c72:	b0 e0       	ldi	r27, 0x00	; 0
    2c74:	e5 e5       	ldi	r30, 0x55	; 85
    2c76:	f0 e0       	ldi	r31, 0x00	; 0
    2c78:	80 81       	ld	r24, Z
    2c7a:	8d 7f       	andi	r24, 0xFD	; 253
    2c7c:	8c 93       	st	X, r24
    2c7e:	ac c0       	rjmp	.+344    	; 0x2dd8 <EXTI_u8INTSetSenseControl+0x1f6>
			break;
		case FALLING_EDGE:
			CLR_BIT(MCUCR,MCUCR_ISC00);
    2c80:	a5 e5       	ldi	r26, 0x55	; 85
    2c82:	b0 e0       	ldi	r27, 0x00	; 0
    2c84:	e5 e5       	ldi	r30, 0x55	; 85
    2c86:	f0 e0       	ldi	r31, 0x00	; 0
    2c88:	80 81       	ld	r24, Z
    2c8a:	8e 7f       	andi	r24, 0xFE	; 254
    2c8c:	8c 93       	st	X, r24
			SET_BIT(MCUCR,MCUCR_ISC01);
    2c8e:	a5 e5       	ldi	r26, 0x55	; 85
    2c90:	b0 e0       	ldi	r27, 0x00	; 0
    2c92:	e5 e5       	ldi	r30, 0x55	; 85
    2c94:	f0 e0       	ldi	r31, 0x00	; 0
    2c96:	80 81       	ld	r24, Z
    2c98:	82 60       	ori	r24, 0x02	; 2
    2c9a:	8c 93       	st	X, r24
    2c9c:	9d c0       	rjmp	.+314    	; 0x2dd8 <EXTI_u8INTSetSenseControl+0x1f6>
			break;
		case RAISING_EDGE:
			SET_BIT(MCUCR,MCUCR_ISC00);
    2c9e:	a5 e5       	ldi	r26, 0x55	; 85
    2ca0:	b0 e0       	ldi	r27, 0x00	; 0
    2ca2:	e5 e5       	ldi	r30, 0x55	; 85
    2ca4:	f0 e0       	ldi	r31, 0x00	; 0
    2ca6:	80 81       	ld	r24, Z
    2ca8:	81 60       	ori	r24, 0x01	; 1
    2caa:	8c 93       	st	X, r24
			SET_BIT(MCUCR,MCUCR_ISC01);
    2cac:	a5 e5       	ldi	r26, 0x55	; 85
    2cae:	b0 e0       	ldi	r27, 0x00	; 0
    2cb0:	e5 e5       	ldi	r30, 0x55	; 85
    2cb2:	f0 e0       	ldi	r31, 0x00	; 0
    2cb4:	80 81       	ld	r24, Z
    2cb6:	82 60       	ori	r24, 0x02	; 2
    2cb8:	8c 93       	st	X, r24
    2cba:	8e c0       	rjmp	.+284    	; 0x2dd8 <EXTI_u8INTSetSenseControl+0x1f6>
			break;
		default:
			Local_u8ErrorState=NOK;
    2cbc:	81 e0       	ldi	r24, 0x01	; 1
    2cbe:	89 83       	std	Y+1, r24	; 0x01
    2cc0:	8b c0       	rjmp	.+278    	; 0x2dd8 <EXTI_u8INTSetSenseControl+0x1f6>
			break;
		}
	}
	/*Set INT1 Sense Control */
	else if(Copy_u8Interrupt==EXTI_INT1)
    2cc2:	8a 81       	ldd	r24, Y+2	; 0x02
    2cc4:	82 30       	cpi	r24, 0x02	; 2
    2cc6:	09 f0       	breq	.+2      	; 0x2cca <EXTI_u8INTSetSenseControl+0xe8>
    2cc8:	5f c0       	rjmp	.+190    	; 0x2d88 <EXTI_u8INTSetSenseControl+0x1a6>
	{
		switch(Copy_u8SenseControl)
    2cca:	8b 81       	ldd	r24, Y+3	; 0x03
    2ccc:	28 2f       	mov	r18, r24
    2cce:	30 e0       	ldi	r19, 0x00	; 0
    2cd0:	3f 83       	std	Y+7, r19	; 0x07
    2cd2:	2e 83       	std	Y+6, r18	; 0x06
    2cd4:	8e 81       	ldd	r24, Y+6	; 0x06
    2cd6:	9f 81       	ldd	r25, Y+7	; 0x07
    2cd8:	82 30       	cpi	r24, 0x02	; 2
    2cda:	91 05       	cpc	r25, r1
    2cdc:	29 f1       	breq	.+74     	; 0x2d28 <EXTI_u8INTSetSenseControl+0x146>
    2cde:	2e 81       	ldd	r18, Y+6	; 0x06
    2ce0:	3f 81       	ldd	r19, Y+7	; 0x07
    2ce2:	23 30       	cpi	r18, 0x03	; 3
    2ce4:	31 05       	cpc	r19, r1
    2ce6:	34 f4       	brge	.+12     	; 0x2cf4 <EXTI_u8INTSetSenseControl+0x112>
    2ce8:	8e 81       	ldd	r24, Y+6	; 0x06
    2cea:	9f 81       	ldd	r25, Y+7	; 0x07
    2cec:	81 30       	cpi	r24, 0x01	; 1
    2cee:	91 05       	cpc	r25, r1
    2cf0:	61 f0       	breq	.+24     	; 0x2d0a <EXTI_u8INTSetSenseControl+0x128>
    2cf2:	47 c0       	rjmp	.+142    	; 0x2d82 <EXTI_u8INTSetSenseControl+0x1a0>
    2cf4:	2e 81       	ldd	r18, Y+6	; 0x06
    2cf6:	3f 81       	ldd	r19, Y+7	; 0x07
    2cf8:	23 30       	cpi	r18, 0x03	; 3
    2cfa:	31 05       	cpc	r19, r1
    2cfc:	21 f1       	breq	.+72     	; 0x2d46 <EXTI_u8INTSetSenseControl+0x164>
    2cfe:	8e 81       	ldd	r24, Y+6	; 0x06
    2d00:	9f 81       	ldd	r25, Y+7	; 0x07
    2d02:	84 30       	cpi	r24, 0x04	; 4
    2d04:	91 05       	cpc	r25, r1
    2d06:	71 f1       	breq	.+92     	; 0x2d64 <EXTI_u8INTSetSenseControl+0x182>
    2d08:	3c c0       	rjmp	.+120    	; 0x2d82 <EXTI_u8INTSetSenseControl+0x1a0>
		{
		case LOW_LEVEL:
			CLR_BIT(MCUCR,MCUCR_ISC10);
    2d0a:	a5 e5       	ldi	r26, 0x55	; 85
    2d0c:	b0 e0       	ldi	r27, 0x00	; 0
    2d0e:	e5 e5       	ldi	r30, 0x55	; 85
    2d10:	f0 e0       	ldi	r31, 0x00	; 0
    2d12:	80 81       	ld	r24, Z
    2d14:	8b 7f       	andi	r24, 0xFB	; 251
    2d16:	8c 93       	st	X, r24
			CLR_BIT(MCUCR,MCUCR_ISC11);
    2d18:	a5 e5       	ldi	r26, 0x55	; 85
    2d1a:	b0 e0       	ldi	r27, 0x00	; 0
    2d1c:	e5 e5       	ldi	r30, 0x55	; 85
    2d1e:	f0 e0       	ldi	r31, 0x00	; 0
    2d20:	80 81       	ld	r24, Z
    2d22:	87 7f       	andi	r24, 0xF7	; 247
    2d24:	8c 93       	st	X, r24
    2d26:	58 c0       	rjmp	.+176    	; 0x2dd8 <EXTI_u8INTSetSenseControl+0x1f6>
			break;
		case ON_CHANGE:
			SET_BIT(MCUCR,MCUCR_ISC10);
    2d28:	a5 e5       	ldi	r26, 0x55	; 85
    2d2a:	b0 e0       	ldi	r27, 0x00	; 0
    2d2c:	e5 e5       	ldi	r30, 0x55	; 85
    2d2e:	f0 e0       	ldi	r31, 0x00	; 0
    2d30:	80 81       	ld	r24, Z
    2d32:	84 60       	ori	r24, 0x04	; 4
    2d34:	8c 93       	st	X, r24
			CLR_BIT(MCUCR,MCUCR_ISC11);
    2d36:	a5 e5       	ldi	r26, 0x55	; 85
    2d38:	b0 e0       	ldi	r27, 0x00	; 0
    2d3a:	e5 e5       	ldi	r30, 0x55	; 85
    2d3c:	f0 e0       	ldi	r31, 0x00	; 0
    2d3e:	80 81       	ld	r24, Z
    2d40:	87 7f       	andi	r24, 0xF7	; 247
    2d42:	8c 93       	st	X, r24
    2d44:	49 c0       	rjmp	.+146    	; 0x2dd8 <EXTI_u8INTSetSenseControl+0x1f6>
			break;
		case FALLING_EDGE:
			CLR_BIT(MCUCR,MCUCR_ISC10);
    2d46:	a5 e5       	ldi	r26, 0x55	; 85
    2d48:	b0 e0       	ldi	r27, 0x00	; 0
    2d4a:	e5 e5       	ldi	r30, 0x55	; 85
    2d4c:	f0 e0       	ldi	r31, 0x00	; 0
    2d4e:	80 81       	ld	r24, Z
    2d50:	8b 7f       	andi	r24, 0xFB	; 251
    2d52:	8c 93       	st	X, r24
			SET_BIT(MCUCR,MCUCR_ISC11);
    2d54:	a5 e5       	ldi	r26, 0x55	; 85
    2d56:	b0 e0       	ldi	r27, 0x00	; 0
    2d58:	e5 e5       	ldi	r30, 0x55	; 85
    2d5a:	f0 e0       	ldi	r31, 0x00	; 0
    2d5c:	80 81       	ld	r24, Z
    2d5e:	88 60       	ori	r24, 0x08	; 8
    2d60:	8c 93       	st	X, r24
    2d62:	3a c0       	rjmp	.+116    	; 0x2dd8 <EXTI_u8INTSetSenseControl+0x1f6>
			break;
		case RAISING_EDGE:
			SET_BIT(MCUCR,MCUCR_ISC10);
    2d64:	a5 e5       	ldi	r26, 0x55	; 85
    2d66:	b0 e0       	ldi	r27, 0x00	; 0
    2d68:	e5 e5       	ldi	r30, 0x55	; 85
    2d6a:	f0 e0       	ldi	r31, 0x00	; 0
    2d6c:	80 81       	ld	r24, Z
    2d6e:	84 60       	ori	r24, 0x04	; 4
    2d70:	8c 93       	st	X, r24
			SET_BIT(MCUCR,MCUCR_ISC11);
    2d72:	a5 e5       	ldi	r26, 0x55	; 85
    2d74:	b0 e0       	ldi	r27, 0x00	; 0
    2d76:	e5 e5       	ldi	r30, 0x55	; 85
    2d78:	f0 e0       	ldi	r31, 0x00	; 0
    2d7a:	80 81       	ld	r24, Z
    2d7c:	88 60       	ori	r24, 0x08	; 8
    2d7e:	8c 93       	st	X, r24
    2d80:	2b c0       	rjmp	.+86     	; 0x2dd8 <EXTI_u8INTSetSenseControl+0x1f6>
			break;
		default:
			Local_u8ErrorState=NOK;
    2d82:	81 e0       	ldi	r24, 0x01	; 1
    2d84:	89 83       	std	Y+1, r24	; 0x01
    2d86:	28 c0       	rjmp	.+80     	; 0x2dd8 <EXTI_u8INTSetSenseControl+0x1f6>
			break;
		}
	}
	/*Set INT2 Sense Control */
	else if(Copy_u8Interrupt==EXTI_INT2)
    2d88:	8a 81       	ldd	r24, Y+2	; 0x02
    2d8a:	83 30       	cpi	r24, 0x03	; 3
    2d8c:	19 f5       	brne	.+70     	; 0x2dd4 <EXTI_u8INTSetSenseControl+0x1f2>
	{
		switch(Copy_u8SenseControl)
    2d8e:	8b 81       	ldd	r24, Y+3	; 0x03
    2d90:	28 2f       	mov	r18, r24
    2d92:	30 e0       	ldi	r19, 0x00	; 0
    2d94:	3d 83       	std	Y+5, r19	; 0x05
    2d96:	2c 83       	std	Y+4, r18	; 0x04
    2d98:	8c 81       	ldd	r24, Y+4	; 0x04
    2d9a:	9d 81       	ldd	r25, Y+5	; 0x05
    2d9c:	83 30       	cpi	r24, 0x03	; 3
    2d9e:	91 05       	cpc	r25, r1
    2da0:	31 f0       	breq	.+12     	; 0x2dae <EXTI_u8INTSetSenseControl+0x1cc>
    2da2:	2c 81       	ldd	r18, Y+4	; 0x04
    2da4:	3d 81       	ldd	r19, Y+5	; 0x05
    2da6:	24 30       	cpi	r18, 0x04	; 4
    2da8:	31 05       	cpc	r19, r1
    2daa:	49 f0       	breq	.+18     	; 0x2dbe <EXTI_u8INTSetSenseControl+0x1dc>
    2dac:	10 c0       	rjmp	.+32     	; 0x2dce <EXTI_u8INTSetSenseControl+0x1ec>
		{
		case FALLING_EDGE:
			CLR_BIT(MCUCSR,MCUCR_ISC2);
    2dae:	a4 e5       	ldi	r26, 0x54	; 84
    2db0:	b0 e0       	ldi	r27, 0x00	; 0
    2db2:	e4 e5       	ldi	r30, 0x54	; 84
    2db4:	f0 e0       	ldi	r31, 0x00	; 0
    2db6:	80 81       	ld	r24, Z
    2db8:	8f 7b       	andi	r24, 0xBF	; 191
    2dba:	8c 93       	st	X, r24
    2dbc:	0d c0       	rjmp	.+26     	; 0x2dd8 <EXTI_u8INTSetSenseControl+0x1f6>
			break;

		case RAISING_EDGE:
			SET_BIT(MCUCSR,MCUCR_ISC2);
    2dbe:	a4 e5       	ldi	r26, 0x54	; 84
    2dc0:	b0 e0       	ldi	r27, 0x00	; 0
    2dc2:	e4 e5       	ldi	r30, 0x54	; 84
    2dc4:	f0 e0       	ldi	r31, 0x00	; 0
    2dc6:	80 81       	ld	r24, Z
    2dc8:	80 64       	ori	r24, 0x40	; 64
    2dca:	8c 93       	st	X, r24
    2dcc:	05 c0       	rjmp	.+10     	; 0x2dd8 <EXTI_u8INTSetSenseControl+0x1f6>
			break;

		default:
			Local_u8ErrorState=NOK;
    2dce:	81 e0       	ldi	r24, 0x01	; 1
    2dd0:	89 83       	std	Y+1, r24	; 0x01
    2dd2:	02 c0       	rjmp	.+4      	; 0x2dd8 <EXTI_u8INTSetSenseControl+0x1f6>
			break;
		}
	}
	else
	{
		Local_u8ErrorState=NOK;
    2dd4:	81 e0       	ldi	r24, 0x01	; 1
    2dd6:	89 83       	std	Y+1, r24	; 0x01
	}

	return Local_u8ErrorState;
    2dd8:	89 81       	ldd	r24, Y+1	; 0x01
}
    2dda:	29 96       	adiw	r28, 0x09	; 9
    2ddc:	0f b6       	in	r0, 0x3f	; 63
    2dde:	f8 94       	cli
    2de0:	de bf       	out	0x3e, r29	; 62
    2de2:	0f be       	out	0x3f, r0	; 63
    2de4:	cd bf       	out	0x3d, r28	; 61
    2de6:	cf 91       	pop	r28
    2de8:	df 91       	pop	r29
    2dea:	08 95       	ret

00002dec <EXTI_u8INTEnable>:

/***************************************************************/
/*Enable the Interrupt using Post Build Config*/
u8 EXTI_u8INTEnable(u8 Copy_u8Int)
{
    2dec:	df 93       	push	r29
    2dee:	cf 93       	push	r28
    2df0:	00 d0       	rcall	.+0      	; 0x2df2 <EXTI_u8INTEnable+0x6>
    2df2:	cd b7       	in	r28, 0x3d	; 61
    2df4:	de b7       	in	r29, 0x3e	; 62
    2df6:	8a 83       	std	Y+2, r24	; 0x02
	u8 Local_u8ErrorState=OK;
    2df8:	19 82       	std	Y+1, r1	; 0x01
	if(Copy_u8Int==EXTI_INT0)
    2dfa:	8a 81       	ldd	r24, Y+2	; 0x02
    2dfc:	81 30       	cpi	r24, 0x01	; 1
    2dfe:	41 f4       	brne	.+16     	; 0x2e10 <EXTI_u8INTEnable+0x24>
	{
		SET_BIT(GICR,GICR_INT0);
    2e00:	ab e5       	ldi	r26, 0x5B	; 91
    2e02:	b0 e0       	ldi	r27, 0x00	; 0
    2e04:	eb e5       	ldi	r30, 0x5B	; 91
    2e06:	f0 e0       	ldi	r31, 0x00	; 0
    2e08:	80 81       	ld	r24, Z
    2e0a:	80 64       	ori	r24, 0x40	; 64
    2e0c:	8c 93       	st	X, r24
    2e0e:	18 c0       	rjmp	.+48     	; 0x2e40 <EXTI_u8INTEnable+0x54>
	}
	else if(Copy_u8Int==EXTI_INT1)
    2e10:	8a 81       	ldd	r24, Y+2	; 0x02
    2e12:	82 30       	cpi	r24, 0x02	; 2
    2e14:	41 f4       	brne	.+16     	; 0x2e26 <EXTI_u8INTEnable+0x3a>
	{
		SET_BIT(GICR,GICR_INT1);
    2e16:	ab e5       	ldi	r26, 0x5B	; 91
    2e18:	b0 e0       	ldi	r27, 0x00	; 0
    2e1a:	eb e5       	ldi	r30, 0x5B	; 91
    2e1c:	f0 e0       	ldi	r31, 0x00	; 0
    2e1e:	80 81       	ld	r24, Z
    2e20:	80 68       	ori	r24, 0x80	; 128
    2e22:	8c 93       	st	X, r24
    2e24:	0d c0       	rjmp	.+26     	; 0x2e40 <EXTI_u8INTEnable+0x54>
	}
	else if(Copy_u8Int==EXTI_INT2)
    2e26:	8a 81       	ldd	r24, Y+2	; 0x02
    2e28:	83 30       	cpi	r24, 0x03	; 3
    2e2a:	41 f4       	brne	.+16     	; 0x2e3c <EXTI_u8INTEnable+0x50>
	{
		SET_BIT(GICR,GICR_INT2);
    2e2c:	ab e5       	ldi	r26, 0x5B	; 91
    2e2e:	b0 e0       	ldi	r27, 0x00	; 0
    2e30:	eb e5       	ldi	r30, 0x5B	; 91
    2e32:	f0 e0       	ldi	r31, 0x00	; 0
    2e34:	80 81       	ld	r24, Z
    2e36:	80 62       	ori	r24, 0x20	; 32
    2e38:	8c 93       	st	X, r24
    2e3a:	02 c0       	rjmp	.+4      	; 0x2e40 <EXTI_u8INTEnable+0x54>
	}
	else
	{
		Local_u8ErrorState=NOK;
    2e3c:	81 e0       	ldi	r24, 0x01	; 1
    2e3e:	89 83       	std	Y+1, r24	; 0x01
	}
	return Local_u8ErrorState;
    2e40:	89 81       	ldd	r24, Y+1	; 0x01
}
    2e42:	0f 90       	pop	r0
    2e44:	0f 90       	pop	r0
    2e46:	cf 91       	pop	r28
    2e48:	df 91       	pop	r29
    2e4a:	08 95       	ret

00002e4c <EXTI_u8INTDisable>:
/***************************************************************/
/*Disable the Interrupt using Post Build Config*/
u8 EXTI_u8INTDisable(u8 Copy_u8Int)
{
    2e4c:	df 93       	push	r29
    2e4e:	cf 93       	push	r28
    2e50:	00 d0       	rcall	.+0      	; 0x2e52 <EXTI_u8INTDisable+0x6>
    2e52:	cd b7       	in	r28, 0x3d	; 61
    2e54:	de b7       	in	r29, 0x3e	; 62
    2e56:	8a 83       	std	Y+2, r24	; 0x02
	u8 Local_u8ErrorState=OK;
    2e58:	19 82       	std	Y+1, r1	; 0x01
	if(Copy_u8Int==EXTI_INT0)
    2e5a:	8a 81       	ldd	r24, Y+2	; 0x02
    2e5c:	81 30       	cpi	r24, 0x01	; 1
    2e5e:	41 f4       	brne	.+16     	; 0x2e70 <EXTI_u8INTDisable+0x24>
	{
		CLR_BIT(GICR,GICR_INT0);
    2e60:	ab e5       	ldi	r26, 0x5B	; 91
    2e62:	b0 e0       	ldi	r27, 0x00	; 0
    2e64:	eb e5       	ldi	r30, 0x5B	; 91
    2e66:	f0 e0       	ldi	r31, 0x00	; 0
    2e68:	80 81       	ld	r24, Z
    2e6a:	8f 7b       	andi	r24, 0xBF	; 191
    2e6c:	8c 93       	st	X, r24
    2e6e:	18 c0       	rjmp	.+48     	; 0x2ea0 <EXTI_u8INTDisable+0x54>
	}
	else if(Copy_u8Int==EXTI_INT1)
    2e70:	8a 81       	ldd	r24, Y+2	; 0x02
    2e72:	82 30       	cpi	r24, 0x02	; 2
    2e74:	41 f4       	brne	.+16     	; 0x2e86 <EXTI_u8INTDisable+0x3a>
	{
		CLR_BIT(GICR,GICR_INT1);
    2e76:	ab e5       	ldi	r26, 0x5B	; 91
    2e78:	b0 e0       	ldi	r27, 0x00	; 0
    2e7a:	eb e5       	ldi	r30, 0x5B	; 91
    2e7c:	f0 e0       	ldi	r31, 0x00	; 0
    2e7e:	80 81       	ld	r24, Z
    2e80:	8f 77       	andi	r24, 0x7F	; 127
    2e82:	8c 93       	st	X, r24
    2e84:	0d c0       	rjmp	.+26     	; 0x2ea0 <EXTI_u8INTDisable+0x54>
	}
	else if(Copy_u8Int==EXTI_INT2)
    2e86:	8a 81       	ldd	r24, Y+2	; 0x02
    2e88:	83 30       	cpi	r24, 0x03	; 3
    2e8a:	41 f4       	brne	.+16     	; 0x2e9c <EXTI_u8INTDisable+0x50>
	{
		CLR_BIT(GICR,GICR_INT2);
    2e8c:	ab e5       	ldi	r26, 0x5B	; 91
    2e8e:	b0 e0       	ldi	r27, 0x00	; 0
    2e90:	eb e5       	ldi	r30, 0x5B	; 91
    2e92:	f0 e0       	ldi	r31, 0x00	; 0
    2e94:	80 81       	ld	r24, Z
    2e96:	8f 7d       	andi	r24, 0xDF	; 223
    2e98:	8c 93       	st	X, r24
    2e9a:	02 c0       	rjmp	.+4      	; 0x2ea0 <EXTI_u8INTDisable+0x54>
	}
	else
	{
		Local_u8ErrorState=NOK;
    2e9c:	81 e0       	ldi	r24, 0x01	; 1
    2e9e:	89 83       	std	Y+1, r24	; 0x01
	}
	return Local_u8ErrorState;
    2ea0:	89 81       	ldd	r24, Y+1	; 0x01
}
    2ea2:	0f 90       	pop	r0
    2ea4:	0f 90       	pop	r0
    2ea6:	cf 91       	pop	r28
    2ea8:	df 91       	pop	r29
    2eaa:	08 95       	ret

00002eac <EXTI_u8Int0SetCallBack>:

/***************************************************************/
/*Call Back Function*/
u8 EXTI_u8Int0SetCallBack(void (*Copy_puINT0Func) (void))
{
    2eac:	df 93       	push	r29
    2eae:	cf 93       	push	r28
    2eb0:	00 d0       	rcall	.+0      	; 0x2eb2 <EXTI_u8Int0SetCallBack+0x6>
    2eb2:	0f 92       	push	r0
    2eb4:	cd b7       	in	r28, 0x3d	; 61
    2eb6:	de b7       	in	r29, 0x3e	; 62
    2eb8:	9b 83       	std	Y+3, r25	; 0x03
    2eba:	8a 83       	std	Y+2, r24	; 0x02
	u8 Local_u8ErrorState=OK;
    2ebc:	19 82       	std	Y+1, r1	; 0x01
	/*Check if the Pointer is not NULL*/
	if(Copy_puINT0Func != NULL)
    2ebe:	8a 81       	ldd	r24, Y+2	; 0x02
    2ec0:	9b 81       	ldd	r25, Y+3	; 0x03
    2ec2:	00 97       	sbiw	r24, 0x00	; 0
    2ec4:	39 f0       	breq	.+14     	; 0x2ed4 <EXTI_u8Int0SetCallBack+0x28>
	{
		EXTI_pvINT0Func=Copy_puINT0Func;
    2ec6:	8a 81       	ldd	r24, Y+2	; 0x02
    2ec8:	9b 81       	ldd	r25, Y+3	; 0x03
    2eca:	90 93 5d 03 	sts	0x035D, r25
    2ece:	80 93 5c 03 	sts	0x035C, r24
    2ed2:	06 c0       	rjmp	.+12     	; 0x2ee0 <EXTI_u8Int0SetCallBack+0x34>
	}
	else if(Copy_puINT0Func == NULL)
    2ed4:	8a 81       	ldd	r24, Y+2	; 0x02
    2ed6:	9b 81       	ldd	r25, Y+3	; 0x03
    2ed8:	00 97       	sbiw	r24, 0x00	; 0
    2eda:	11 f4       	brne	.+4      	; 0x2ee0 <EXTI_u8Int0SetCallBack+0x34>
	{
		Local_u8ErrorState=NULL_POINTER;
    2edc:	82 e0       	ldi	r24, 0x02	; 2
    2ede:	89 83       	std	Y+1, r24	; 0x01
	}

	return Local_u8ErrorState;
    2ee0:	89 81       	ldd	r24, Y+1	; 0x01
}
    2ee2:	0f 90       	pop	r0
    2ee4:	0f 90       	pop	r0
    2ee6:	0f 90       	pop	r0
    2ee8:	cf 91       	pop	r28
    2eea:	df 91       	pop	r29
    2eec:	08 95       	ret

00002eee <__vector_1>:
/*ISR Function of INT0*/
void __vector_1(void) __attribute__((signal));
void __vector_1(void)
{
    2eee:	1f 92       	push	r1
    2ef0:	0f 92       	push	r0
    2ef2:	0f b6       	in	r0, 0x3f	; 63
    2ef4:	0f 92       	push	r0
    2ef6:	11 24       	eor	r1, r1
    2ef8:	2f 93       	push	r18
    2efa:	3f 93       	push	r19
    2efc:	4f 93       	push	r20
    2efe:	5f 93       	push	r21
    2f00:	6f 93       	push	r22
    2f02:	7f 93       	push	r23
    2f04:	8f 93       	push	r24
    2f06:	9f 93       	push	r25
    2f08:	af 93       	push	r26
    2f0a:	bf 93       	push	r27
    2f0c:	ef 93       	push	r30
    2f0e:	ff 93       	push	r31
    2f10:	df 93       	push	r29
    2f12:	cf 93       	push	r28
    2f14:	cd b7       	in	r28, 0x3d	; 61
    2f16:	de b7       	in	r29, 0x3e	; 62

	if(EXTI_pvINT0Func != NULL)
    2f18:	80 91 5c 03 	lds	r24, 0x035C
    2f1c:	90 91 5d 03 	lds	r25, 0x035D
    2f20:	00 97       	sbiw	r24, 0x00	; 0
    2f22:	29 f0       	breq	.+10     	; 0x2f2e <__vector_1+0x40>
	{
		/*Address of ISR Function for INT0*/
		EXTI_pvINT0Func();
    2f24:	e0 91 5c 03 	lds	r30, 0x035C
    2f28:	f0 91 5d 03 	lds	r31, 0x035D
    2f2c:	09 95       	icall
	}
	else
	{
		/*Do Nothing*/
	}
}
    2f2e:	cf 91       	pop	r28
    2f30:	df 91       	pop	r29
    2f32:	ff 91       	pop	r31
    2f34:	ef 91       	pop	r30
    2f36:	bf 91       	pop	r27
    2f38:	af 91       	pop	r26
    2f3a:	9f 91       	pop	r25
    2f3c:	8f 91       	pop	r24
    2f3e:	7f 91       	pop	r23
    2f40:	6f 91       	pop	r22
    2f42:	5f 91       	pop	r21
    2f44:	4f 91       	pop	r20
    2f46:	3f 91       	pop	r19
    2f48:	2f 91       	pop	r18
    2f4a:	0f 90       	pop	r0
    2f4c:	0f be       	out	0x3f, r0	; 63
    2f4e:	0f 90       	pop	r0
    2f50:	1f 90       	pop	r1
    2f52:	18 95       	reti

00002f54 <EXTI_u8INT1SetCallBack>:
/***************************************************************/
u8 EXTI_u8INT1SetCallBack(void (*Copy_pvINT1Func)(void))
{
    2f54:	df 93       	push	r29
    2f56:	cf 93       	push	r28
    2f58:	00 d0       	rcall	.+0      	; 0x2f5a <EXTI_u8INT1SetCallBack+0x6>
    2f5a:	0f 92       	push	r0
    2f5c:	cd b7       	in	r28, 0x3d	; 61
    2f5e:	de b7       	in	r29, 0x3e	; 62
    2f60:	9b 83       	std	Y+3, r25	; 0x03
    2f62:	8a 83       	std	Y+2, r24	; 0x02
	u8 Local_u8ErrorSate=OK;
    2f64:	19 82       	std	Y+1, r1	; 0x01
	if(Copy_pvINT1Func != NULL)
    2f66:	8a 81       	ldd	r24, Y+2	; 0x02
    2f68:	9b 81       	ldd	r25, Y+3	; 0x03
    2f6a:	00 97       	sbiw	r24, 0x00	; 0
    2f6c:	39 f0       	breq	.+14     	; 0x2f7c <EXTI_u8INT1SetCallBack+0x28>
	{
		EXTI_pvINT1Func=Copy_pvINT1Func;
    2f6e:	8a 81       	ldd	r24, Y+2	; 0x02
    2f70:	9b 81       	ldd	r25, Y+3	; 0x03
    2f72:	90 93 5f 03 	sts	0x035F, r25
    2f76:	80 93 5e 03 	sts	0x035E, r24
    2f7a:	02 c0       	rjmp	.+4      	; 0x2f80 <EXTI_u8INT1SetCallBack+0x2c>
	}
	else
	{
		Local_u8ErrorSate=NULL_POINTER;
    2f7c:	82 e0       	ldi	r24, 0x02	; 2
    2f7e:	89 83       	std	Y+1, r24	; 0x01
	}
	return Local_u8ErrorSate;
    2f80:	89 81       	ldd	r24, Y+1	; 0x01
}
    2f82:	0f 90       	pop	r0
    2f84:	0f 90       	pop	r0
    2f86:	0f 90       	pop	r0
    2f88:	cf 91       	pop	r28
    2f8a:	df 91       	pop	r29
    2f8c:	08 95       	ret

00002f8e <__vector_2>:
/*ISR Function of INT1*/
void __vector_2(void) __attribute__((signal));
void __vector_2(void)
{
    2f8e:	1f 92       	push	r1
    2f90:	0f 92       	push	r0
    2f92:	0f b6       	in	r0, 0x3f	; 63
    2f94:	0f 92       	push	r0
    2f96:	11 24       	eor	r1, r1
    2f98:	2f 93       	push	r18
    2f9a:	3f 93       	push	r19
    2f9c:	4f 93       	push	r20
    2f9e:	5f 93       	push	r21
    2fa0:	6f 93       	push	r22
    2fa2:	7f 93       	push	r23
    2fa4:	8f 93       	push	r24
    2fa6:	9f 93       	push	r25
    2fa8:	af 93       	push	r26
    2faa:	bf 93       	push	r27
    2fac:	ef 93       	push	r30
    2fae:	ff 93       	push	r31
    2fb0:	df 93       	push	r29
    2fb2:	cf 93       	push	r28
    2fb4:	cd b7       	in	r28, 0x3d	; 61
    2fb6:	de b7       	in	r29, 0x3e	; 62
	if(EXTI_pvINT1Func != NULL)
    2fb8:	80 91 5e 03 	lds	r24, 0x035E
    2fbc:	90 91 5f 03 	lds	r25, 0x035F
    2fc0:	00 97       	sbiw	r24, 0x00	; 0
    2fc2:	29 f0       	breq	.+10     	; 0x2fce <__vector_2+0x40>
	{
		/*Address of ISR for INT1 */
		EXTI_pvINT1Func();
    2fc4:	e0 91 5e 03 	lds	r30, 0x035E
    2fc8:	f0 91 5f 03 	lds	r31, 0x035F
    2fcc:	09 95       	icall
	}
	else
	{
		//Do nothing
	}
}
    2fce:	cf 91       	pop	r28
    2fd0:	df 91       	pop	r29
    2fd2:	ff 91       	pop	r31
    2fd4:	ef 91       	pop	r30
    2fd6:	bf 91       	pop	r27
    2fd8:	af 91       	pop	r26
    2fda:	9f 91       	pop	r25
    2fdc:	8f 91       	pop	r24
    2fde:	7f 91       	pop	r23
    2fe0:	6f 91       	pop	r22
    2fe2:	5f 91       	pop	r21
    2fe4:	4f 91       	pop	r20
    2fe6:	3f 91       	pop	r19
    2fe8:	2f 91       	pop	r18
    2fea:	0f 90       	pop	r0
    2fec:	0f be       	out	0x3f, r0	; 63
    2fee:	0f 90       	pop	r0
    2ff0:	1f 90       	pop	r1
    2ff2:	18 95       	reti

00002ff4 <EXTI_u8INT2SetCallBack>:
/***************************************************************/
u8 EXTI_u8INT2SetCallBack(void (*Copy_pvINT2Func)(void))
{
    2ff4:	df 93       	push	r29
    2ff6:	cf 93       	push	r28
    2ff8:	00 d0       	rcall	.+0      	; 0x2ffa <EXTI_u8INT2SetCallBack+0x6>
    2ffa:	0f 92       	push	r0
    2ffc:	cd b7       	in	r28, 0x3d	; 61
    2ffe:	de b7       	in	r29, 0x3e	; 62
    3000:	9b 83       	std	Y+3, r25	; 0x03
    3002:	8a 83       	std	Y+2, r24	; 0x02
	u8 Local_u8ErrorState=OK;
    3004:	19 82       	std	Y+1, r1	; 0x01
	if(Copy_pvINT2Func != NULL)
    3006:	8a 81       	ldd	r24, Y+2	; 0x02
    3008:	9b 81       	ldd	r25, Y+3	; 0x03
    300a:	00 97       	sbiw	r24, 0x00	; 0
    300c:	39 f0       	breq	.+14     	; 0x301c <EXTI_u8INT2SetCallBack+0x28>
	{
		EXTI_pvINT2Func=Copy_pvINT2Func;
    300e:	8a 81       	ldd	r24, Y+2	; 0x02
    3010:	9b 81       	ldd	r25, Y+3	; 0x03
    3012:	90 93 61 03 	sts	0x0361, r25
    3016:	80 93 60 03 	sts	0x0360, r24
    301a:	02 c0       	rjmp	.+4      	; 0x3020 <EXTI_u8INT2SetCallBack+0x2c>
	}
	else
	{
		Local_u8ErrorState=NULL_POINTER;
    301c:	82 e0       	ldi	r24, 0x02	; 2
    301e:	89 83       	std	Y+1, r24	; 0x01
	}
	return Local_u8ErrorState;
    3020:	89 81       	ldd	r24, Y+1	; 0x01
}
    3022:	0f 90       	pop	r0
    3024:	0f 90       	pop	r0
    3026:	0f 90       	pop	r0
    3028:	cf 91       	pop	r28
    302a:	df 91       	pop	r29
    302c:	08 95       	ret

0000302e <__vector_3>:
/*ISR Function of INT2*/
void __vector_3(void) __attribute__ ((signal));
void __vector_3(void)
{
    302e:	1f 92       	push	r1
    3030:	0f 92       	push	r0
    3032:	0f b6       	in	r0, 0x3f	; 63
    3034:	0f 92       	push	r0
    3036:	11 24       	eor	r1, r1
    3038:	2f 93       	push	r18
    303a:	3f 93       	push	r19
    303c:	4f 93       	push	r20
    303e:	5f 93       	push	r21
    3040:	6f 93       	push	r22
    3042:	7f 93       	push	r23
    3044:	8f 93       	push	r24
    3046:	9f 93       	push	r25
    3048:	af 93       	push	r26
    304a:	bf 93       	push	r27
    304c:	ef 93       	push	r30
    304e:	ff 93       	push	r31
    3050:	df 93       	push	r29
    3052:	cf 93       	push	r28
    3054:	cd b7       	in	r28, 0x3d	; 61
    3056:	de b7       	in	r29, 0x3e	; 62
	if(EXTI_pvINT2Func !=NULL)
    3058:	80 91 60 03 	lds	r24, 0x0360
    305c:	90 91 61 03 	lds	r25, 0x0361
    3060:	00 97       	sbiw	r24, 0x00	; 0
    3062:	29 f0       	breq	.+10     	; 0x306e <__vector_3+0x40>
	{
		EXTI_pvINT2Func();
    3064:	e0 91 60 03 	lds	r30, 0x0360
    3068:	f0 91 61 03 	lds	r31, 0x0361
    306c:	09 95       	icall
	}
	else
	{
		//DO Nothing
	}
}
    306e:	cf 91       	pop	r28
    3070:	df 91       	pop	r29
    3072:	ff 91       	pop	r31
    3074:	ef 91       	pop	r30
    3076:	bf 91       	pop	r27
    3078:	af 91       	pop	r26
    307a:	9f 91       	pop	r25
    307c:	8f 91       	pop	r24
    307e:	7f 91       	pop	r23
    3080:	6f 91       	pop	r22
    3082:	5f 91       	pop	r21
    3084:	4f 91       	pop	r20
    3086:	3f 91       	pop	r19
    3088:	2f 91       	pop	r18
    308a:	0f 90       	pop	r0
    308c:	0f be       	out	0x3f, r0	; 63
    308e:	0f 90       	pop	r0
    3090:	1f 90       	pop	r1
    3092:	18 95       	reti

00003094 <GIE_voidEnable>:
#include "GIE_interface.h"
#include "GIE_register.h"

/*Function to Enable Global Interrupt*/
void GIE_voidEnable()
{
    3094:	df 93       	push	r29
    3096:	cf 93       	push	r28
    3098:	cd b7       	in	r28, 0x3d	; 61
    309a:	de b7       	in	r29, 0x3e	; 62
	SET_BIT(SREG,SREG_I);
    309c:	af e5       	ldi	r26, 0x5F	; 95
    309e:	b0 e0       	ldi	r27, 0x00	; 0
    30a0:	ef e5       	ldi	r30, 0x5F	; 95
    30a2:	f0 e0       	ldi	r31, 0x00	; 0
    30a4:	80 81       	ld	r24, Z
    30a6:	80 68       	ori	r24, 0x80	; 128
    30a8:	8c 93       	st	X, r24
}
    30aa:	cf 91       	pop	r28
    30ac:	df 91       	pop	r29
    30ae:	08 95       	ret

000030b0 <GIE_voidDisable>:
/*Function to Disable Global Interrupt*/
void GIE_voidDisable()
{
    30b0:	df 93       	push	r29
    30b2:	cf 93       	push	r28
    30b4:	cd b7       	in	r28, 0x3d	; 61
    30b6:	de b7       	in	r29, 0x3e	; 62
	CLR_BIT(SREG,SREG_I);
    30b8:	af e5       	ldi	r26, 0x5F	; 95
    30ba:	b0 e0       	ldi	r27, 0x00	; 0
    30bc:	ef e5       	ldi	r30, 0x5F	; 95
    30be:	f0 e0       	ldi	r31, 0x00	; 0
    30c0:	80 81       	ld	r24, Z
    30c2:	8f 77       	andi	r24, 0x7F	; 127
    30c4:	8c 93       	st	X, r24
}
    30c6:	cf 91       	pop	r28
    30c8:	df 91       	pop	r29
    30ca:	08 95       	ret

000030cc <KPD_u8GetPressedKey>:
#include "KPD_private.h"



u8  KPD_u8GetPressedKey()
{
    30cc:	df 93       	push	r29
    30ce:	cf 93       	push	r28
    30d0:	00 d0       	rcall	.+0      	; 0x30d2 <KPD_u8GetPressedKey+0x6>
    30d2:	00 d0       	rcall	.+0      	; 0x30d4 <KPD_u8GetPressedKey+0x8>
    30d4:	0f 92       	push	r0
    30d6:	cd b7       	in	r28, 0x3d	; 61
    30d8:	de b7       	in	r29, 0x3e	; 62
	u8 Local_u8PinState;
	/*Loop Counters*/
	u8 Local_u8RowCounter,Local_u8ColCounter;
	/*variable to return from this function if no Key Pressed */
	u8 Local_u8PressedKey=KPD_NO_PRESSED_KEY;
    30da:	8f ef       	ldi	r24, 0xFF	; 255
    30dc:	89 83       	std	Y+1, r24	; 0x01
	/*Static-> to Stop this Array from Pushing to Stack ans Save the Memory*/
	 static u8 Local_u8RowPinsArr[KPD_ROWS_NUMBER]={KPD_ROW0_PIN,KPD_ROW1_PIN,KPD_ROW2_PIN,KPD_ROW3_PIN};

	/*Nested Loop to Check the keys*/
	/*Columns Loop*/
	for(Local_u8ColCounter=0; Local_u8ColCounter<KPD_COLUMNS_NUMBER; Local_u8ColCounter++)
    30de:	1a 82       	std	Y+2, r1	; 0x02
    30e0:	5e c0       	rjmp	.+188    	; 0x319e <KPD_u8GetPressedKey+0xd2>
	{
		/*Activate current columns*/
		DIO_u8SetPinValue(KPD_PORT,Local_u8ColPinsArr[Local_u8ColCounter],DIO_u8PIN_LOW);
    30e2:	8a 81       	ldd	r24, Y+2	; 0x02
    30e4:	88 2f       	mov	r24, r24
    30e6:	90 e0       	ldi	r25, 0x00	; 0
    30e8:	fc 01       	movw	r30, r24
    30ea:	ed 5e       	subi	r30, 0xED	; 237
    30ec:	fc 4f       	sbci	r31, 0xFC	; 252
    30ee:	90 81       	ld	r25, Z
    30f0:	81 e0       	ldi	r24, 0x01	; 1
    30f2:	69 2f       	mov	r22, r25
    30f4:	40 e0       	ldi	r20, 0x00	; 0
    30f6:	0e 94 b2 13 	call	0x2764	; 0x2764 <DIO_u8SetPinValue>
		/*Rows Loop*/
		for(Local_u8RowCounter=0; Local_u8RowCounter<KPD_ROWS_NUMBER; Local_u8RowCounter++)
    30fa:	1b 82       	std	Y+3, r1	; 0x03
    30fc:	3d c0       	rjmp	.+122    	; 0x3178 <KPD_u8GetPressedKey+0xac>
		{
			/*Read which Row in corresponding col its key is Pressed*/
			DIO_u8GetPinValue(KPD_PORT,Local_u8RowPinsArr[Local_u8RowCounter],&Local_u8PinState);
    30fe:	8b 81       	ldd	r24, Y+3	; 0x03
    3100:	88 2f       	mov	r24, r24
    3102:	90 e0       	ldi	r25, 0x00	; 0
    3104:	fc 01       	movw	r30, r24
    3106:	e1 5f       	subi	r30, 0xF1	; 241
    3108:	fc 4f       	sbci	r31, 0xFC	; 252
    310a:	90 81       	ld	r25, Z
    310c:	9e 01       	movw	r18, r28
    310e:	2c 5f       	subi	r18, 0xFC	; 252
    3110:	3f 4f       	sbci	r19, 0xFF	; 255
    3112:	81 e0       	ldi	r24, 0x01	; 1
    3114:	69 2f       	mov	r22, r25
    3116:	a9 01       	movw	r20, r18
    3118:	0e 94 0c 15 	call	0x2a18	; 0x2a18 <DIO_u8GetPinValue>

			/*Check if the key is Pressed*/
			if(LOGIC_ZERO==Local_u8PinState)
    311c:	8c 81       	ldd	r24, Y+4	; 0x04
    311e:	88 23       	and	r24, r24
    3120:	41 f5       	brne	.+80     	; 0x3172 <KPD_u8GetPressedKey+0xa6>
			{
				Local_u8PressedKey=Local_u8KPDArr[Local_u8RowCounter][Local_u8ColCounter];
    3122:	8b 81       	ldd	r24, Y+3	; 0x03
    3124:	48 2f       	mov	r20, r24
    3126:	50 e0       	ldi	r21, 0x00	; 0
    3128:	8a 81       	ldd	r24, Y+2	; 0x02
    312a:	28 2f       	mov	r18, r24
    312c:	30 e0       	ldi	r19, 0x00	; 0
    312e:	ca 01       	movw	r24, r20
    3130:	88 0f       	add	r24, r24
    3132:	99 1f       	adc	r25, r25
    3134:	88 0f       	add	r24, r24
    3136:	99 1f       	adc	r25, r25
    3138:	82 0f       	add	r24, r18
    313a:	93 1f       	adc	r25, r19
    313c:	fc 01       	movw	r30, r24
    313e:	e9 5e       	subi	r30, 0xE9	; 233
    3140:	fc 4f       	sbci	r31, 0xFC	; 252
    3142:	80 81       	ld	r24, Z
    3144:	89 83       	std	Y+1, r24	; 0x01
    3146:	0f c0       	rjmp	.+30     	; 0x3166 <KPD_u8GetPressedKey+0x9a>

				/*Pooling(Busy waiting until the key is Released)*/
				while(LOGIC_ZERO==Local_u8PinState)
				{
					/*Read which Row in corresponding col its key is Pressed*/
					DIO_u8GetPinValue(KPD_PORT,Local_u8RowPinsArr[Local_u8RowCounter],&Local_u8PinState);
    3148:	8b 81       	ldd	r24, Y+3	; 0x03
    314a:	88 2f       	mov	r24, r24
    314c:	90 e0       	ldi	r25, 0x00	; 0
    314e:	fc 01       	movw	r30, r24
    3150:	e1 5f       	subi	r30, 0xF1	; 241
    3152:	fc 4f       	sbci	r31, 0xFC	; 252
    3154:	90 81       	ld	r25, Z
    3156:	9e 01       	movw	r18, r28
    3158:	2c 5f       	subi	r18, 0xFC	; 252
    315a:	3f 4f       	sbci	r19, 0xFF	; 255
    315c:	81 e0       	ldi	r24, 0x01	; 1
    315e:	69 2f       	mov	r22, r25
    3160:	a9 01       	movw	r20, r18
    3162:	0e 94 0c 15 	call	0x2a18	; 0x2a18 <DIO_u8GetPinValue>
			if(LOGIC_ZERO==Local_u8PinState)
			{
				Local_u8PressedKey=Local_u8KPDArr[Local_u8RowCounter][Local_u8ColCounter];

				/*Pooling(Busy waiting until the key is Released)*/
				while(LOGIC_ZERO==Local_u8PinState)
    3166:	8c 81       	ldd	r24, Y+4	; 0x04
    3168:	88 23       	and	r24, r24
    316a:	71 f3       	breq	.-36     	; 0x3148 <KPD_u8GetPressedKey+0x7c>
				{
					/*Read which Row in corresponding col its key is Pressed*/
					DIO_u8GetPinValue(KPD_PORT,Local_u8RowPinsArr[Local_u8RowCounter],&Local_u8PinState);

				}
				return Local_u8PressedKey;
    316c:	89 81       	ldd	r24, Y+1	; 0x01
    316e:	8d 83       	std	Y+5, r24	; 0x05
    3170:	1c c0       	rjmp	.+56     	; 0x31aa <KPD_u8GetPressedKey+0xde>
	for(Local_u8ColCounter=0; Local_u8ColCounter<KPD_COLUMNS_NUMBER; Local_u8ColCounter++)
	{
		/*Activate current columns*/
		DIO_u8SetPinValue(KPD_PORT,Local_u8ColPinsArr[Local_u8ColCounter],DIO_u8PIN_LOW);
		/*Rows Loop*/
		for(Local_u8RowCounter=0; Local_u8RowCounter<KPD_ROWS_NUMBER; Local_u8RowCounter++)
    3172:	8b 81       	ldd	r24, Y+3	; 0x03
    3174:	8f 5f       	subi	r24, 0xFF	; 255
    3176:	8b 83       	std	Y+3, r24	; 0x03
    3178:	8b 81       	ldd	r24, Y+3	; 0x03
    317a:	84 30       	cpi	r24, 0x04	; 4
    317c:	08 f4       	brcc	.+2      	; 0x3180 <KPD_u8GetPressedKey+0xb4>
    317e:	bf cf       	rjmp	.-130    	; 0x30fe <KPD_u8GetPressedKey+0x32>

			}
		}

		/*Deactivate current columns*/
		DIO_u8SetPinValue(KPD_PORT,Local_u8ColPinsArr[Local_u8ColCounter],DIO_u8PIN_HIGH);
    3180:	8a 81       	ldd	r24, Y+2	; 0x02
    3182:	88 2f       	mov	r24, r24
    3184:	90 e0       	ldi	r25, 0x00	; 0
    3186:	fc 01       	movw	r30, r24
    3188:	ed 5e       	subi	r30, 0xED	; 237
    318a:	fc 4f       	sbci	r31, 0xFC	; 252
    318c:	90 81       	ld	r25, Z
    318e:	81 e0       	ldi	r24, 0x01	; 1
    3190:	69 2f       	mov	r22, r25
    3192:	41 e0       	ldi	r20, 0x01	; 1
    3194:	0e 94 b2 13 	call	0x2764	; 0x2764 <DIO_u8SetPinValue>
	/*Static-> to Stop this Array from Pushing to Stack ans Save the Memory*/
	 static u8 Local_u8RowPinsArr[KPD_ROWS_NUMBER]={KPD_ROW0_PIN,KPD_ROW1_PIN,KPD_ROW2_PIN,KPD_ROW3_PIN};

	/*Nested Loop to Check the keys*/
	/*Columns Loop*/
	for(Local_u8ColCounter=0; Local_u8ColCounter<KPD_COLUMNS_NUMBER; Local_u8ColCounter++)
    3198:	8a 81       	ldd	r24, Y+2	; 0x02
    319a:	8f 5f       	subi	r24, 0xFF	; 255
    319c:	8a 83       	std	Y+2, r24	; 0x02
    319e:	8a 81       	ldd	r24, Y+2	; 0x02
    31a0:	84 30       	cpi	r24, 0x04	; 4
    31a2:	08 f4       	brcc	.+2      	; 0x31a6 <KPD_u8GetPressedKey+0xda>
    31a4:	9e cf       	rjmp	.-196    	; 0x30e2 <KPD_u8GetPressedKey+0x16>

		/*Deactivate current columns*/
		DIO_u8SetPinValue(KPD_PORT,Local_u8ColPinsArr[Local_u8ColCounter],DIO_u8PIN_HIGH);

	}
	return Local_u8PressedKey;
    31a6:	89 81       	ldd	r24, Y+1	; 0x01
    31a8:	8d 83       	std	Y+5, r24	; 0x05
    31aa:	8d 81       	ldd	r24, Y+5	; 0x05
}
    31ac:	0f 90       	pop	r0
    31ae:	0f 90       	pop	r0
    31b0:	0f 90       	pop	r0
    31b2:	0f 90       	pop	r0
    31b4:	0f 90       	pop	r0
    31b6:	cf 91       	pop	r28
    31b8:	df 91       	pop	r29
    31ba:	08 95       	ret

000031bc <LCD_voidInit>:
#include "LCD_config.h"
#include "LCD_private.h"


void LCD_voidInit()
{
    31bc:	df 93       	push	r29
    31be:	cf 93       	push	r28
    31c0:	cd b7       	in	r28, 0x3d	; 61
    31c2:	de b7       	in	r29, 0x3e	; 62
    31c4:	2e 97       	sbiw	r28, 0x0e	; 14
    31c6:	0f b6       	in	r0, 0x3f	; 63
    31c8:	f8 94       	cli
    31ca:	de bf       	out	0x3e, r29	; 62
    31cc:	0f be       	out	0x3f, r0	; 63
    31ce:	cd bf       	out	0x3d, r28	; 61
    31d0:	80 e0       	ldi	r24, 0x00	; 0
    31d2:	90 e0       	ldi	r25, 0x00	; 0
    31d4:	a0 e2       	ldi	r26, 0x20	; 32
    31d6:	b2 e4       	ldi	r27, 0x42	; 66
    31d8:	8b 87       	std	Y+11, r24	; 0x0b
    31da:	9c 87       	std	Y+12, r25	; 0x0c
    31dc:	ad 87       	std	Y+13, r26	; 0x0d
    31de:	be 87       	std	Y+14, r27	; 0x0e
 */
void
_delay_ms(double __ms)
{
	uint16_t __ticks;
	double __tmp = ((F_CPU) / 4e3) * __ms;
    31e0:	6b 85       	ldd	r22, Y+11	; 0x0b
    31e2:	7c 85       	ldd	r23, Y+12	; 0x0c
    31e4:	8d 85       	ldd	r24, Y+13	; 0x0d
    31e6:	9e 85       	ldd	r25, Y+14	; 0x0e
    31e8:	20 e0       	ldi	r18, 0x00	; 0
    31ea:	30 e0       	ldi	r19, 0x00	; 0
    31ec:	4a ef       	ldi	r20, 0xFA	; 250
    31ee:	54 e4       	ldi	r21, 0x44	; 68
    31f0:	0e 94 1f 02 	call	0x43e	; 0x43e <__mulsf3>
    31f4:	dc 01       	movw	r26, r24
    31f6:	cb 01       	movw	r24, r22
    31f8:	8f 83       	std	Y+7, r24	; 0x07
    31fa:	98 87       	std	Y+8, r25	; 0x08
    31fc:	a9 87       	std	Y+9, r26	; 0x09
    31fe:	ba 87       	std	Y+10, r27	; 0x0a
	if (__tmp < 1.0)
    3200:	6f 81       	ldd	r22, Y+7	; 0x07
    3202:	78 85       	ldd	r23, Y+8	; 0x08
    3204:	89 85       	ldd	r24, Y+9	; 0x09
    3206:	9a 85       	ldd	r25, Y+10	; 0x0a
    3208:	20 e0       	ldi	r18, 0x00	; 0
    320a:	30 e0       	ldi	r19, 0x00	; 0
    320c:	40 e8       	ldi	r20, 0x80	; 128
    320e:	5f e3       	ldi	r21, 0x3F	; 63
    3210:	0e 94 25 04 	call	0x84a	; 0x84a <__ltsf2>
    3214:	88 23       	and	r24, r24
    3216:	2c f4       	brge	.+10     	; 0x3222 <LCD_voidInit+0x66>
		__ticks = 1;
    3218:	81 e0       	ldi	r24, 0x01	; 1
    321a:	90 e0       	ldi	r25, 0x00	; 0
    321c:	9e 83       	std	Y+6, r25	; 0x06
    321e:	8d 83       	std	Y+5, r24	; 0x05
    3220:	3f c0       	rjmp	.+126    	; 0x32a0 <LCD_voidInit+0xe4>
	else if (__tmp > 65535)
    3222:	6f 81       	ldd	r22, Y+7	; 0x07
    3224:	78 85       	ldd	r23, Y+8	; 0x08
    3226:	89 85       	ldd	r24, Y+9	; 0x09
    3228:	9a 85       	ldd	r25, Y+10	; 0x0a
    322a:	20 e0       	ldi	r18, 0x00	; 0
    322c:	3f ef       	ldi	r19, 0xFF	; 255
    322e:	4f e7       	ldi	r20, 0x7F	; 127
    3230:	57 e4       	ldi	r21, 0x47	; 71
    3232:	0e 94 c5 03 	call	0x78a	; 0x78a <__gtsf2>
    3236:	18 16       	cp	r1, r24
    3238:	4c f5       	brge	.+82     	; 0x328c <LCD_voidInit+0xd0>
	{
		//	__ticks = requested delay in 1/10 ms
		__ticks = (uint16_t) (__ms * 10.0);
    323a:	6b 85       	ldd	r22, Y+11	; 0x0b
    323c:	7c 85       	ldd	r23, Y+12	; 0x0c
    323e:	8d 85       	ldd	r24, Y+13	; 0x0d
    3240:	9e 85       	ldd	r25, Y+14	; 0x0e
    3242:	20 e0       	ldi	r18, 0x00	; 0
    3244:	30 e0       	ldi	r19, 0x00	; 0
    3246:	40 e2       	ldi	r20, 0x20	; 32
    3248:	51 e4       	ldi	r21, 0x41	; 65
    324a:	0e 94 1f 02 	call	0x43e	; 0x43e <__mulsf3>
    324e:	dc 01       	movw	r26, r24
    3250:	cb 01       	movw	r24, r22
    3252:	bc 01       	movw	r22, r24
    3254:	cd 01       	movw	r24, r26
    3256:	0e 94 49 00 	call	0x92	; 0x92 <__fixunssfsi>
    325a:	dc 01       	movw	r26, r24
    325c:	cb 01       	movw	r24, r22
    325e:	9e 83       	std	Y+6, r25	; 0x06
    3260:	8d 83       	std	Y+5, r24	; 0x05
    3262:	0f c0       	rjmp	.+30     	; 0x3282 <LCD_voidInit+0xc6>
    3264:	88 ec       	ldi	r24, 0xC8	; 200
    3266:	90 e0       	ldi	r25, 0x00	; 0
    3268:	9c 83       	std	Y+4, r25	; 0x04
    326a:	8b 83       	std	Y+3, r24	; 0x03
    326c:	8b 81       	ldd	r24, Y+3	; 0x03
    326e:	9c 81       	ldd	r25, Y+4	; 0x04
    3270:	01 97       	sbiw	r24, 0x01	; 1
    3272:	f1 f7       	brne	.-4      	; 0x3270 <LCD_voidInit+0xb4>
    3274:	9c 83       	std	Y+4, r25	; 0x04
    3276:	8b 83       	std	Y+3, r24	; 0x03
		while(__ticks)
		{
			// wait 1/10 ms
			_delay_loop_2(((F_CPU) / 4e3) / 10);
			__ticks --;
    3278:	8d 81       	ldd	r24, Y+5	; 0x05
    327a:	9e 81       	ldd	r25, Y+6	; 0x06
    327c:	01 97       	sbiw	r24, 0x01	; 1
    327e:	9e 83       	std	Y+6, r25	; 0x06
    3280:	8d 83       	std	Y+5, r24	; 0x05
		__ticks = 1;
	else if (__tmp > 65535)
	{
		//	__ticks = requested delay in 1/10 ms
		__ticks = (uint16_t) (__ms * 10.0);
		while(__ticks)
    3282:	8d 81       	ldd	r24, Y+5	; 0x05
    3284:	9e 81       	ldd	r25, Y+6	; 0x06
    3286:	00 97       	sbiw	r24, 0x00	; 0
    3288:	69 f7       	brne	.-38     	; 0x3264 <LCD_voidInit+0xa8>
    328a:	14 c0       	rjmp	.+40     	; 0x32b4 <LCD_voidInit+0xf8>
			__ticks --;
		}
		return;
	}
	else
		__ticks = (uint16_t)__tmp;
    328c:	6f 81       	ldd	r22, Y+7	; 0x07
    328e:	78 85       	ldd	r23, Y+8	; 0x08
    3290:	89 85       	ldd	r24, Y+9	; 0x09
    3292:	9a 85       	ldd	r25, Y+10	; 0x0a
    3294:	0e 94 49 00 	call	0x92	; 0x92 <__fixunssfsi>
    3298:	dc 01       	movw	r26, r24
    329a:	cb 01       	movw	r24, r22
    329c:	9e 83       	std	Y+6, r25	; 0x06
    329e:	8d 83       	std	Y+5, r24	; 0x05
    32a0:	8d 81       	ldd	r24, Y+5	; 0x05
    32a2:	9e 81       	ldd	r25, Y+6	; 0x06
    32a4:	9a 83       	std	Y+2, r25	; 0x02
    32a6:	89 83       	std	Y+1, r24	; 0x01
    32a8:	89 81       	ldd	r24, Y+1	; 0x01
    32aa:	9a 81       	ldd	r25, Y+2	; 0x02
    32ac:	01 97       	sbiw	r24, 0x01	; 1
    32ae:	f1 f7       	brne	.-4      	; 0x32ac <LCD_voidInit+0xf0>
    32b0:	9a 83       	std	Y+2, r25	; 0x02
    32b2:	89 83       	std	Y+1, r24	; 0x01
	/* Initialize LCD Configuration with : 0b000011NFXX
	 * where N: Number of lines, 0: For 1 line   &    1: For 2 line
	 * where F: Font size, 0: For 5*8    &   1: For 5*11
	 * where X: Don't care
	 */
	LCD_voidSendCommand(0b00111000);
    32b4:	88 e3       	ldi	r24, 0x38	; 56
    32b6:	0e 94 6c 19 	call	0x32d8	; 0x32d8 <LCD_voidSendCommand>
	/* Display on/off Control: 0b0000001DCB
	 * where D: Display, 0: For Disable   &   1: For Enable
	 * where C: Cursor,  0: For Disable    &    1: For Enable
	 * where B: Blinking Cursor, 0: For Blinking   &   1: For Fixed
	 */
	LCD_voidSendCommand(0b00001100);
    32ba:	8c e0       	ldi	r24, 0x0C	; 12
    32bc:	0e 94 6c 19 	call	0x32d8	; 0x32d8 <LCD_voidSendCommand>

	/* Clear the Display */
	LCD_voidSendCommand(0b00000001);
    32c0:	81 e0       	ldi	r24, 0x01	; 1
    32c2:	0e 94 6c 19 	call	0x32d8	; 0x32d8 <LCD_voidSendCommand>
	/*End of LCD Initialization*/

}
    32c6:	2e 96       	adiw	r28, 0x0e	; 14
    32c8:	0f b6       	in	r0, 0x3f	; 63
    32ca:	f8 94       	cli
    32cc:	de bf       	out	0x3e, r29	; 62
    32ce:	0f be       	out	0x3f, r0	; 63
    32d0:	cd bf       	out	0x3d, r28	; 61
    32d2:	cf 91       	pop	r28
    32d4:	df 91       	pop	r29
    32d6:	08 95       	ret

000032d8 <LCD_voidSendCommand>:
/*Function used to send a COMMAND to LCD*/
void LCD_voidSendCommand(u8 Copy_u8Command)
{
    32d8:	df 93       	push	r29
    32da:	cf 93       	push	r28
    32dc:	cd b7       	in	r28, 0x3d	; 61
    32de:	de b7       	in	r29, 0x3e	; 62
    32e0:	2f 97       	sbiw	r28, 0x0f	; 15
    32e2:	0f b6       	in	r0, 0x3f	; 63
    32e4:	f8 94       	cli
    32e6:	de bf       	out	0x3e, r29	; 62
    32e8:	0f be       	out	0x3f, r0	; 63
    32ea:	cd bf       	out	0x3d, r28	; 61
    32ec:	8f 87       	std	Y+15, r24	; 0x0f
	/*To send Command,Set RS pin to LOW*/
	DIO_u8SetPinValue(LCD_CONTROL_PORT,LCD_RS_PIN,DIO_u8PIN_LOW);
    32ee:	83 e0       	ldi	r24, 0x03	; 3
    32f0:	67 e0       	ldi	r22, 0x07	; 7
    32f2:	40 e0       	ldi	r20, 0x00	; 0
    32f4:	0e 94 b2 13 	call	0x2764	; 0x2764 <DIO_u8SetPinValue>

	/*Enable Write mode, Set RW pin to LOW*/
	DIO_u8SetPinValue(LCD_CONTROL_PORT,LCD_RW_PIN,DIO_u8PIN_LOW);
    32f8:	83 e0       	ldi	r24, 0x03	; 3
    32fa:	64 e0       	ldi	r22, 0x04	; 4
    32fc:	40 e0       	ldi	r20, 0x00	; 0
    32fe:	0e 94 b2 13 	call	0x2764	; 0x2764 <DIO_u8SetPinValue>

	/*Set the Command Port*/
	DIO_u8SetPortValue(LCD_DATA_PORT,Copy_u8Command);
    3302:	82 e0       	ldi	r24, 0x02	; 2
    3304:	6f 85       	ldd	r22, Y+15	; 0x0f
    3306:	0e 94 c4 14 	call	0x2988	; 0x2988 <DIO_u8SetPortValue>

	/*Enable Puls*/
	DIO_u8SetPinValue(LCD_CONTROL_PORT,LCD_E_PIN,DIO_u8PIN_HIGH);
    330a:	83 e0       	ldi	r24, 0x03	; 3
    330c:	63 e0       	ldi	r22, 0x03	; 3
    330e:	41 e0       	ldi	r20, 0x01	; 1
    3310:	0e 94 b2 13 	call	0x2764	; 0x2764 <DIO_u8SetPinValue>
    3314:	80 e0       	ldi	r24, 0x00	; 0
    3316:	90 e0       	ldi	r25, 0x00	; 0
    3318:	a0 e0       	ldi	r26, 0x00	; 0
    331a:	b0 e4       	ldi	r27, 0x40	; 64
    331c:	8b 87       	std	Y+11, r24	; 0x0b
    331e:	9c 87       	std	Y+12, r25	; 0x0c
    3320:	ad 87       	std	Y+13, r26	; 0x0d
    3322:	be 87       	std	Y+14, r27	; 0x0e
 */
void
_delay_ms(double __ms)
{
	uint16_t __ticks;
	double __tmp = ((F_CPU) / 4e3) * __ms;
    3324:	6b 85       	ldd	r22, Y+11	; 0x0b
    3326:	7c 85       	ldd	r23, Y+12	; 0x0c
    3328:	8d 85       	ldd	r24, Y+13	; 0x0d
    332a:	9e 85       	ldd	r25, Y+14	; 0x0e
    332c:	20 e0       	ldi	r18, 0x00	; 0
    332e:	30 e0       	ldi	r19, 0x00	; 0
    3330:	4a ef       	ldi	r20, 0xFA	; 250
    3332:	54 e4       	ldi	r21, 0x44	; 68
    3334:	0e 94 1f 02 	call	0x43e	; 0x43e <__mulsf3>
    3338:	dc 01       	movw	r26, r24
    333a:	cb 01       	movw	r24, r22
    333c:	8f 83       	std	Y+7, r24	; 0x07
    333e:	98 87       	std	Y+8, r25	; 0x08
    3340:	a9 87       	std	Y+9, r26	; 0x09
    3342:	ba 87       	std	Y+10, r27	; 0x0a
	if (__tmp < 1.0)
    3344:	6f 81       	ldd	r22, Y+7	; 0x07
    3346:	78 85       	ldd	r23, Y+8	; 0x08
    3348:	89 85       	ldd	r24, Y+9	; 0x09
    334a:	9a 85       	ldd	r25, Y+10	; 0x0a
    334c:	20 e0       	ldi	r18, 0x00	; 0
    334e:	30 e0       	ldi	r19, 0x00	; 0
    3350:	40 e8       	ldi	r20, 0x80	; 128
    3352:	5f e3       	ldi	r21, 0x3F	; 63
    3354:	0e 94 25 04 	call	0x84a	; 0x84a <__ltsf2>
    3358:	88 23       	and	r24, r24
    335a:	2c f4       	brge	.+10     	; 0x3366 <LCD_voidSendCommand+0x8e>
		__ticks = 1;
    335c:	81 e0       	ldi	r24, 0x01	; 1
    335e:	90 e0       	ldi	r25, 0x00	; 0
    3360:	9e 83       	std	Y+6, r25	; 0x06
    3362:	8d 83       	std	Y+5, r24	; 0x05
    3364:	3f c0       	rjmp	.+126    	; 0x33e4 <LCD_voidSendCommand+0x10c>
	else if (__tmp > 65535)
    3366:	6f 81       	ldd	r22, Y+7	; 0x07
    3368:	78 85       	ldd	r23, Y+8	; 0x08
    336a:	89 85       	ldd	r24, Y+9	; 0x09
    336c:	9a 85       	ldd	r25, Y+10	; 0x0a
    336e:	20 e0       	ldi	r18, 0x00	; 0
    3370:	3f ef       	ldi	r19, 0xFF	; 255
    3372:	4f e7       	ldi	r20, 0x7F	; 127
    3374:	57 e4       	ldi	r21, 0x47	; 71
    3376:	0e 94 c5 03 	call	0x78a	; 0x78a <__gtsf2>
    337a:	18 16       	cp	r1, r24
    337c:	4c f5       	brge	.+82     	; 0x33d0 <LCD_voidSendCommand+0xf8>
	{
		//	__ticks = requested delay in 1/10 ms
		__ticks = (uint16_t) (__ms * 10.0);
    337e:	6b 85       	ldd	r22, Y+11	; 0x0b
    3380:	7c 85       	ldd	r23, Y+12	; 0x0c
    3382:	8d 85       	ldd	r24, Y+13	; 0x0d
    3384:	9e 85       	ldd	r25, Y+14	; 0x0e
    3386:	20 e0       	ldi	r18, 0x00	; 0
    3388:	30 e0       	ldi	r19, 0x00	; 0
    338a:	40 e2       	ldi	r20, 0x20	; 32
    338c:	51 e4       	ldi	r21, 0x41	; 65
    338e:	0e 94 1f 02 	call	0x43e	; 0x43e <__mulsf3>
    3392:	dc 01       	movw	r26, r24
    3394:	cb 01       	movw	r24, r22
    3396:	bc 01       	movw	r22, r24
    3398:	cd 01       	movw	r24, r26
    339a:	0e 94 49 00 	call	0x92	; 0x92 <__fixunssfsi>
    339e:	dc 01       	movw	r26, r24
    33a0:	cb 01       	movw	r24, r22
    33a2:	9e 83       	std	Y+6, r25	; 0x06
    33a4:	8d 83       	std	Y+5, r24	; 0x05
    33a6:	0f c0       	rjmp	.+30     	; 0x33c6 <LCD_voidSendCommand+0xee>
    33a8:	88 ec       	ldi	r24, 0xC8	; 200
    33aa:	90 e0       	ldi	r25, 0x00	; 0
    33ac:	9c 83       	std	Y+4, r25	; 0x04
    33ae:	8b 83       	std	Y+3, r24	; 0x03
    33b0:	8b 81       	ldd	r24, Y+3	; 0x03
    33b2:	9c 81       	ldd	r25, Y+4	; 0x04
    33b4:	01 97       	sbiw	r24, 0x01	; 1
    33b6:	f1 f7       	brne	.-4      	; 0x33b4 <LCD_voidSendCommand+0xdc>
    33b8:	9c 83       	std	Y+4, r25	; 0x04
    33ba:	8b 83       	std	Y+3, r24	; 0x03
		while(__ticks)
		{
			// wait 1/10 ms
			_delay_loop_2(((F_CPU) / 4e3) / 10);
			__ticks --;
    33bc:	8d 81       	ldd	r24, Y+5	; 0x05
    33be:	9e 81       	ldd	r25, Y+6	; 0x06
    33c0:	01 97       	sbiw	r24, 0x01	; 1
    33c2:	9e 83       	std	Y+6, r25	; 0x06
    33c4:	8d 83       	std	Y+5, r24	; 0x05
		__ticks = 1;
	else if (__tmp > 65535)
	{
		//	__ticks = requested delay in 1/10 ms
		__ticks = (uint16_t) (__ms * 10.0);
		while(__ticks)
    33c6:	8d 81       	ldd	r24, Y+5	; 0x05
    33c8:	9e 81       	ldd	r25, Y+6	; 0x06
    33ca:	00 97       	sbiw	r24, 0x00	; 0
    33cc:	69 f7       	brne	.-38     	; 0x33a8 <LCD_voidSendCommand+0xd0>
    33ce:	14 c0       	rjmp	.+40     	; 0x33f8 <LCD_voidSendCommand+0x120>
			__ticks --;
		}
		return;
	}
	else
		__ticks = (uint16_t)__tmp;
    33d0:	6f 81       	ldd	r22, Y+7	; 0x07
    33d2:	78 85       	ldd	r23, Y+8	; 0x08
    33d4:	89 85       	ldd	r24, Y+9	; 0x09
    33d6:	9a 85       	ldd	r25, Y+10	; 0x0a
    33d8:	0e 94 49 00 	call	0x92	; 0x92 <__fixunssfsi>
    33dc:	dc 01       	movw	r26, r24
    33de:	cb 01       	movw	r24, r22
    33e0:	9e 83       	std	Y+6, r25	; 0x06
    33e2:	8d 83       	std	Y+5, r24	; 0x05
    33e4:	8d 81       	ldd	r24, Y+5	; 0x05
    33e6:	9e 81       	ldd	r25, Y+6	; 0x06
    33e8:	9a 83       	std	Y+2, r25	; 0x02
    33ea:	89 83       	std	Y+1, r24	; 0x01
    33ec:	89 81       	ldd	r24, Y+1	; 0x01
    33ee:	9a 81       	ldd	r25, Y+2	; 0x02
    33f0:	01 97       	sbiw	r24, 0x01	; 1
    33f2:	f1 f7       	brne	.-4      	; 0x33f0 <LCD_voidSendCommand+0x118>
    33f4:	9a 83       	std	Y+2, r25	; 0x02
    33f6:	89 83       	std	Y+1, r24	; 0x01
	_delay_ms(2);
	DIO_u8SetPinValue(LCD_CONTROL_PORT,LCD_E_PIN,DIO_u8PIN_LOW);
    33f8:	83 e0       	ldi	r24, 0x03	; 3
    33fa:	63 e0       	ldi	r22, 0x03	; 3
    33fc:	40 e0       	ldi	r20, 0x00	; 0
    33fe:	0e 94 b2 13 	call	0x2764	; 0x2764 <DIO_u8SetPinValue>

}
    3402:	2f 96       	adiw	r28, 0x0f	; 15
    3404:	0f b6       	in	r0, 0x3f	; 63
    3406:	f8 94       	cli
    3408:	de bf       	out	0x3e, r29	; 62
    340a:	0f be       	out	0x3f, r0	; 63
    340c:	cd bf       	out	0x3d, r28	; 61
    340e:	cf 91       	pop	r28
    3410:	df 91       	pop	r29
    3412:	08 95       	ret

00003414 <LCD_voidSendData>:

void LCD_voidSendData(u8 Copy_u8Character)
{
    3414:	df 93       	push	r29
    3416:	cf 93       	push	r28
    3418:	cd b7       	in	r28, 0x3d	; 61
    341a:	de b7       	in	r29, 0x3e	; 62
    341c:	2f 97       	sbiw	r28, 0x0f	; 15
    341e:	0f b6       	in	r0, 0x3f	; 63
    3420:	f8 94       	cli
    3422:	de bf       	out	0x3e, r29	; 62
    3424:	0f be       	out	0x3f, r0	; 63
    3426:	cd bf       	out	0x3d, r28	; 61
    3428:	8f 87       	std	Y+15, r24	; 0x0f
	/*To send Data,Set RS pin to HIGH*/
	DIO_u8SetPinValue(LCD_CONTROL_PORT,LCD_RS_PIN,DIO_u8PIN_HIGH);
    342a:	83 e0       	ldi	r24, 0x03	; 3
    342c:	67 e0       	ldi	r22, 0x07	; 7
    342e:	41 e0       	ldi	r20, 0x01	; 1
    3430:	0e 94 b2 13 	call	0x2764	; 0x2764 <DIO_u8SetPinValue>

	/*Enable Write mode, Set RW pin to LOW*/
	DIO_u8SetPinValue(LCD_CONTROL_PORT,LCD_RW_PIN,DIO_u8PIN_LOW);
    3434:	83 e0       	ldi	r24, 0x03	; 3
    3436:	64 e0       	ldi	r22, 0x04	; 4
    3438:	40 e0       	ldi	r20, 0x00	; 0
    343a:	0e 94 b2 13 	call	0x2764	; 0x2764 <DIO_u8SetPinValue>

	/*Set the Data Port*/
	DIO_u8SetPortValue(LCD_DATA_PORT,Copy_u8Character);
    343e:	82 e0       	ldi	r24, 0x02	; 2
    3440:	6f 85       	ldd	r22, Y+15	; 0x0f
    3442:	0e 94 c4 14 	call	0x2988	; 0x2988 <DIO_u8SetPortValue>

	/*Enable Puls*/
	DIO_u8SetPinValue(LCD_CONTROL_PORT,LCD_E_PIN,DIO_u8PIN_HIGH);
    3446:	83 e0       	ldi	r24, 0x03	; 3
    3448:	63 e0       	ldi	r22, 0x03	; 3
    344a:	41 e0       	ldi	r20, 0x01	; 1
    344c:	0e 94 b2 13 	call	0x2764	; 0x2764 <DIO_u8SetPinValue>
    3450:	80 e0       	ldi	r24, 0x00	; 0
    3452:	90 e0       	ldi	r25, 0x00	; 0
    3454:	a0 e0       	ldi	r26, 0x00	; 0
    3456:	b0 e4       	ldi	r27, 0x40	; 64
    3458:	8b 87       	std	Y+11, r24	; 0x0b
    345a:	9c 87       	std	Y+12, r25	; 0x0c
    345c:	ad 87       	std	Y+13, r26	; 0x0d
    345e:	be 87       	std	Y+14, r27	; 0x0e
 */
void
_delay_ms(double __ms)
{
	uint16_t __ticks;
	double __tmp = ((F_CPU) / 4e3) * __ms;
    3460:	6b 85       	ldd	r22, Y+11	; 0x0b
    3462:	7c 85       	ldd	r23, Y+12	; 0x0c
    3464:	8d 85       	ldd	r24, Y+13	; 0x0d
    3466:	9e 85       	ldd	r25, Y+14	; 0x0e
    3468:	20 e0       	ldi	r18, 0x00	; 0
    346a:	30 e0       	ldi	r19, 0x00	; 0
    346c:	4a ef       	ldi	r20, 0xFA	; 250
    346e:	54 e4       	ldi	r21, 0x44	; 68
    3470:	0e 94 1f 02 	call	0x43e	; 0x43e <__mulsf3>
    3474:	dc 01       	movw	r26, r24
    3476:	cb 01       	movw	r24, r22
    3478:	8f 83       	std	Y+7, r24	; 0x07
    347a:	98 87       	std	Y+8, r25	; 0x08
    347c:	a9 87       	std	Y+9, r26	; 0x09
    347e:	ba 87       	std	Y+10, r27	; 0x0a
	if (__tmp < 1.0)
    3480:	6f 81       	ldd	r22, Y+7	; 0x07
    3482:	78 85       	ldd	r23, Y+8	; 0x08
    3484:	89 85       	ldd	r24, Y+9	; 0x09
    3486:	9a 85       	ldd	r25, Y+10	; 0x0a
    3488:	20 e0       	ldi	r18, 0x00	; 0
    348a:	30 e0       	ldi	r19, 0x00	; 0
    348c:	40 e8       	ldi	r20, 0x80	; 128
    348e:	5f e3       	ldi	r21, 0x3F	; 63
    3490:	0e 94 25 04 	call	0x84a	; 0x84a <__ltsf2>
    3494:	88 23       	and	r24, r24
    3496:	2c f4       	brge	.+10     	; 0x34a2 <LCD_voidSendData+0x8e>
		__ticks = 1;
    3498:	81 e0       	ldi	r24, 0x01	; 1
    349a:	90 e0       	ldi	r25, 0x00	; 0
    349c:	9e 83       	std	Y+6, r25	; 0x06
    349e:	8d 83       	std	Y+5, r24	; 0x05
    34a0:	3f c0       	rjmp	.+126    	; 0x3520 <LCD_voidSendData+0x10c>
	else if (__tmp > 65535)
    34a2:	6f 81       	ldd	r22, Y+7	; 0x07
    34a4:	78 85       	ldd	r23, Y+8	; 0x08
    34a6:	89 85       	ldd	r24, Y+9	; 0x09
    34a8:	9a 85       	ldd	r25, Y+10	; 0x0a
    34aa:	20 e0       	ldi	r18, 0x00	; 0
    34ac:	3f ef       	ldi	r19, 0xFF	; 255
    34ae:	4f e7       	ldi	r20, 0x7F	; 127
    34b0:	57 e4       	ldi	r21, 0x47	; 71
    34b2:	0e 94 c5 03 	call	0x78a	; 0x78a <__gtsf2>
    34b6:	18 16       	cp	r1, r24
    34b8:	4c f5       	brge	.+82     	; 0x350c <LCD_voidSendData+0xf8>
	{
		//	__ticks = requested delay in 1/10 ms
		__ticks = (uint16_t) (__ms * 10.0);
    34ba:	6b 85       	ldd	r22, Y+11	; 0x0b
    34bc:	7c 85       	ldd	r23, Y+12	; 0x0c
    34be:	8d 85       	ldd	r24, Y+13	; 0x0d
    34c0:	9e 85       	ldd	r25, Y+14	; 0x0e
    34c2:	20 e0       	ldi	r18, 0x00	; 0
    34c4:	30 e0       	ldi	r19, 0x00	; 0
    34c6:	40 e2       	ldi	r20, 0x20	; 32
    34c8:	51 e4       	ldi	r21, 0x41	; 65
    34ca:	0e 94 1f 02 	call	0x43e	; 0x43e <__mulsf3>
    34ce:	dc 01       	movw	r26, r24
    34d0:	cb 01       	movw	r24, r22
    34d2:	bc 01       	movw	r22, r24
    34d4:	cd 01       	movw	r24, r26
    34d6:	0e 94 49 00 	call	0x92	; 0x92 <__fixunssfsi>
    34da:	dc 01       	movw	r26, r24
    34dc:	cb 01       	movw	r24, r22
    34de:	9e 83       	std	Y+6, r25	; 0x06
    34e0:	8d 83       	std	Y+5, r24	; 0x05
    34e2:	0f c0       	rjmp	.+30     	; 0x3502 <LCD_voidSendData+0xee>
    34e4:	88 ec       	ldi	r24, 0xC8	; 200
    34e6:	90 e0       	ldi	r25, 0x00	; 0
    34e8:	9c 83       	std	Y+4, r25	; 0x04
    34ea:	8b 83       	std	Y+3, r24	; 0x03
    34ec:	8b 81       	ldd	r24, Y+3	; 0x03
    34ee:	9c 81       	ldd	r25, Y+4	; 0x04
    34f0:	01 97       	sbiw	r24, 0x01	; 1
    34f2:	f1 f7       	brne	.-4      	; 0x34f0 <LCD_voidSendData+0xdc>
    34f4:	9c 83       	std	Y+4, r25	; 0x04
    34f6:	8b 83       	std	Y+3, r24	; 0x03
		while(__ticks)
		{
			// wait 1/10 ms
			_delay_loop_2(((F_CPU) / 4e3) / 10);
			__ticks --;
    34f8:	8d 81       	ldd	r24, Y+5	; 0x05
    34fa:	9e 81       	ldd	r25, Y+6	; 0x06
    34fc:	01 97       	sbiw	r24, 0x01	; 1
    34fe:	9e 83       	std	Y+6, r25	; 0x06
    3500:	8d 83       	std	Y+5, r24	; 0x05
		__ticks = 1;
	else if (__tmp > 65535)
	{
		//	__ticks = requested delay in 1/10 ms
		__ticks = (uint16_t) (__ms * 10.0);
		while(__ticks)
    3502:	8d 81       	ldd	r24, Y+5	; 0x05
    3504:	9e 81       	ldd	r25, Y+6	; 0x06
    3506:	00 97       	sbiw	r24, 0x00	; 0
    3508:	69 f7       	brne	.-38     	; 0x34e4 <LCD_voidSendData+0xd0>
    350a:	14 c0       	rjmp	.+40     	; 0x3534 <LCD_voidSendData+0x120>
			__ticks --;
		}
		return;
	}
	else
		__ticks = (uint16_t)__tmp;
    350c:	6f 81       	ldd	r22, Y+7	; 0x07
    350e:	78 85       	ldd	r23, Y+8	; 0x08
    3510:	89 85       	ldd	r24, Y+9	; 0x09
    3512:	9a 85       	ldd	r25, Y+10	; 0x0a
    3514:	0e 94 49 00 	call	0x92	; 0x92 <__fixunssfsi>
    3518:	dc 01       	movw	r26, r24
    351a:	cb 01       	movw	r24, r22
    351c:	9e 83       	std	Y+6, r25	; 0x06
    351e:	8d 83       	std	Y+5, r24	; 0x05
    3520:	8d 81       	ldd	r24, Y+5	; 0x05
    3522:	9e 81       	ldd	r25, Y+6	; 0x06
    3524:	9a 83       	std	Y+2, r25	; 0x02
    3526:	89 83       	std	Y+1, r24	; 0x01
    3528:	89 81       	ldd	r24, Y+1	; 0x01
    352a:	9a 81       	ldd	r25, Y+2	; 0x02
    352c:	01 97       	sbiw	r24, 0x01	; 1
    352e:	f1 f7       	brne	.-4      	; 0x352c <LCD_voidSendData+0x118>
    3530:	9a 83       	std	Y+2, r25	; 0x02
    3532:	89 83       	std	Y+1, r24	; 0x01
	_delay_ms(2);
	DIO_u8SetPinValue(LCD_CONTROL_PORT,LCD_E_PIN,DIO_u8PIN_LOW);
    3534:	83 e0       	ldi	r24, 0x03	; 3
    3536:	63 e0       	ldi	r22, 0x03	; 3
    3538:	40 e0       	ldi	r20, 0x00	; 0
    353a:	0e 94 b2 13 	call	0x2764	; 0x2764 <DIO_u8SetPinValue>


}
    353e:	2f 96       	adiw	r28, 0x0f	; 15
    3540:	0f b6       	in	r0, 0x3f	; 63
    3542:	f8 94       	cli
    3544:	de bf       	out	0x3e, r29	; 62
    3546:	0f be       	out	0x3f, r0	; 63
    3548:	cd bf       	out	0x3d, r28	; 61
    354a:	cf 91       	pop	r28
    354c:	df 91       	pop	r29
    354e:	08 95       	ret

00003550 <LCD_voidSendString>:

void LCD_voidSendString(const char* Copy_pu8String,u8 Copy_u8Row,u8 Copy_u8Col)
{
    3550:	df 93       	push	r29
    3552:	cf 93       	push	r28
    3554:	cd b7       	in	r28, 0x3d	; 61
    3556:	de b7       	in	r29, 0x3e	; 62
    3558:	27 97       	sbiw	r28, 0x07	; 7
    355a:	0f b6       	in	r0, 0x3f	; 63
    355c:	f8 94       	cli
    355e:	de bf       	out	0x3e, r29	; 62
    3560:	0f be       	out	0x3f, r0	; 63
    3562:	cd bf       	out	0x3d, r28	; 61
    3564:	9d 83       	std	Y+5, r25	; 0x05
    3566:	8c 83       	std	Y+4, r24	; 0x04
    3568:	6e 83       	std	Y+6, r22	; 0x06
    356a:	4f 83       	std	Y+7, r20	; 0x07
	u8 Local_u8StringLen;
	/*Split the Statememnt into Several Words*/
	u8 *Local_pu8Token = strtok(Copy_pu8String," ");
    356c:	8c 81       	ldd	r24, Y+4	; 0x04
    356e:	9d 81       	ldd	r25, Y+5	; 0x05
    3570:	29 ef       	ldi	r18, 0xF9	; 249
    3572:	30 e0       	ldi	r19, 0x00	; 0
    3574:	b9 01       	movw	r22, r18
    3576:	0e 94 8f 3d 	call	0x7b1e	; 0x7b1e <strtok>
    357a:	9a 83       	std	Y+2, r25	; 0x02
    357c:	89 83       	std	Y+1, r24	; 0x01
    357e:	5d c0       	rjmp	.+186    	; 0x363a <LCD_voidSendString+0xea>
	/*Loop until the End of Statement*/
	while(Local_pu8Token != NULL)
	{
		/*To Find the length of the one Token*/
		Local_u8StringLen=strlen(Local_pu8Token);
    3580:	89 81       	ldd	r24, Y+1	; 0x01
    3582:	9a 81       	ldd	r25, Y+2	; 0x02
    3584:	0e 94 94 3d 	call	0x7b28	; 0x7b28 <strlen>
    3588:	8b 83       	std	Y+3, r24	; 0x03
		/*Check if there is a space to complete writing in the first row*/
		if((16-Copy_u8Col) >= Local_u8StringLen)
    358a:	8f 81       	ldd	r24, Y+7	; 0x07
    358c:	28 2f       	mov	r18, r24
    358e:	30 e0       	ldi	r19, 0x00	; 0
    3590:	80 e1       	ldi	r24, 0x10	; 16
    3592:	90 e0       	ldi	r25, 0x00	; 0
    3594:	ac 01       	movw	r20, r24
    3596:	42 1b       	sub	r20, r18
    3598:	53 0b       	sbc	r21, r19
    359a:	9a 01       	movw	r18, r20
    359c:	8b 81       	ldd	r24, Y+3	; 0x03
    359e:	88 2f       	mov	r24, r24
    35a0:	90 e0       	ldi	r25, 0x00	; 0
    35a2:	28 17       	cp	r18, r24
    35a4:	39 07       	cpc	r19, r25
    35a6:	fc f0       	brlt	.+62     	; 0x35e6 <LCD_voidSendString+0x96>
    35a8:	11 c0       	rjmp	.+34     	; 0x35cc <LCD_voidSendString+0x7c>
		{
			/*To write the one Token*/
			while(*Local_pu8Token!='\0')
			{
				LCD_voidPositionSet(Copy_u8Row,Copy_u8Col);
    35aa:	8e 81       	ldd	r24, Y+6	; 0x06
    35ac:	6f 81       	ldd	r22, Y+7	; 0x07
    35ae:	0e 94 2b 1b 	call	0x3656	; 0x3656 <LCD_voidPositionSet>
				LCD_voidSendData(*Local_pu8Token);
    35b2:	e9 81       	ldd	r30, Y+1	; 0x01
    35b4:	fa 81       	ldd	r31, Y+2	; 0x02
    35b6:	80 81       	ld	r24, Z
    35b8:	0e 94 0a 1a 	call	0x3414	; 0x3414 <LCD_voidSendData>
				Local_pu8Token++;
    35bc:	89 81       	ldd	r24, Y+1	; 0x01
    35be:	9a 81       	ldd	r25, Y+2	; 0x02
    35c0:	01 96       	adiw	r24, 0x01	; 1
    35c2:	9a 83       	std	Y+2, r25	; 0x02
    35c4:	89 83       	std	Y+1, r24	; 0x01
				Copy_u8Col++;
    35c6:	8f 81       	ldd	r24, Y+7	; 0x07
    35c8:	8f 5f       	subi	r24, 0xFF	; 255
    35ca:	8f 83       	std	Y+7, r24	; 0x07
		Local_u8StringLen=strlen(Local_pu8Token);
		/*Check if there is a space to complete writing in the first row*/
		if((16-Copy_u8Col) >= Local_u8StringLen)
		{
			/*To write the one Token*/
			while(*Local_pu8Token!='\0')
    35cc:	e9 81       	ldd	r30, Y+1	; 0x01
    35ce:	fa 81       	ldd	r31, Y+2	; 0x02
    35d0:	80 81       	ld	r24, Z
    35d2:	88 23       	and	r24, r24
    35d4:	51 f7       	brne	.-44     	; 0x35aa <LCD_voidSendString+0x5a>
				Local_pu8Token++;
				Copy_u8Col++;
			}

			/*Space Between the Tokens*/
			LCD_voidPositionSet(Copy_u8Row,Copy_u8Col);
    35d6:	8e 81       	ldd	r24, Y+6	; 0x06
    35d8:	6f 81       	ldd	r22, Y+7	; 0x07
    35da:	0e 94 2b 1b 	call	0x3656	; 0x3656 <LCD_voidPositionSet>
			LCD_voidSendData(' ');
    35de:	80 e2       	ldi	r24, 0x20	; 32
    35e0:	0e 94 0a 1a 	call	0x3414	; 0x3414 <LCD_voidSendData>
    35e4:	1a c0       	rjmp	.+52     	; 0x361a <LCD_voidSendString+0xca>
		}
		/*No space in first row, so we need to write in Second Row*/
		else
		{
			/*Set the second row to write at it*/
			Copy_u8Row=one;
    35e6:	81 e0       	ldi	r24, 0x01	; 1
    35e8:	8e 83       	std	Y+6, r24	; 0x06
			Copy_u8Col=0;
    35ea:	1f 82       	std	Y+7, r1	; 0x07
    35ec:	11 c0       	rjmp	.+34     	; 0x3610 <LCD_voidSendString+0xc0>
			/*To write the one Token*/
			while(*Local_pu8Token!='\0')
			{
				LCD_voidPositionSet(Copy_u8Row,Copy_u8Col);
    35ee:	8e 81       	ldd	r24, Y+6	; 0x06
    35f0:	6f 81       	ldd	r22, Y+7	; 0x07
    35f2:	0e 94 2b 1b 	call	0x3656	; 0x3656 <LCD_voidPositionSet>
				LCD_voidSendData(*Local_pu8Token);
    35f6:	e9 81       	ldd	r30, Y+1	; 0x01
    35f8:	fa 81       	ldd	r31, Y+2	; 0x02
    35fa:	80 81       	ld	r24, Z
    35fc:	0e 94 0a 1a 	call	0x3414	; 0x3414 <LCD_voidSendData>
				Local_pu8Token++;
    3600:	89 81       	ldd	r24, Y+1	; 0x01
    3602:	9a 81       	ldd	r25, Y+2	; 0x02
    3604:	01 96       	adiw	r24, 0x01	; 1
    3606:	9a 83       	std	Y+2, r25	; 0x02
    3608:	89 83       	std	Y+1, r24	; 0x01
				Copy_u8Col++;
    360a:	8f 81       	ldd	r24, Y+7	; 0x07
    360c:	8f 5f       	subi	r24, 0xFF	; 255
    360e:	8f 83       	std	Y+7, r24	; 0x07
		{
			/*Set the second row to write at it*/
			Copy_u8Row=one;
			Copy_u8Col=0;
			/*To write the one Token*/
			while(*Local_pu8Token!='\0')
    3610:	e9 81       	ldd	r30, Y+1	; 0x01
    3612:	fa 81       	ldd	r31, Y+2	; 0x02
    3614:	80 81       	ld	r24, Z
    3616:	88 23       	and	r24, r24
    3618:	51 f7       	brne	.-44     	; 0x35ee <LCD_voidSendString+0x9e>
				Copy_u8Col++;
			}

		}
		/*Space Between the Tokens*/
		LCD_voidPositionSet(Copy_u8Row,Copy_u8Col);
    361a:	8e 81       	ldd	r24, Y+6	; 0x06
    361c:	6f 81       	ldd	r22, Y+7	; 0x07
    361e:	0e 94 2b 1b 	call	0x3656	; 0x3656 <LCD_voidPositionSet>
		LCD_voidSendData(' ');
    3622:	80 e2       	ldi	r24, 0x20	; 32
    3624:	0e 94 0a 1a 	call	0x3414	; 0x3414 <LCD_voidSendData>
		Local_pu8Token = strtok(NULL," ");
    3628:	29 ef       	ldi	r18, 0xF9	; 249
    362a:	30 e0       	ldi	r19, 0x00	; 0
    362c:	80 e0       	ldi	r24, 0x00	; 0
    362e:	90 e0       	ldi	r25, 0x00	; 0
    3630:	b9 01       	movw	r22, r18
    3632:	0e 94 8f 3d 	call	0x7b1e	; 0x7b1e <strtok>
    3636:	9a 83       	std	Y+2, r25	; 0x02
    3638:	89 83       	std	Y+1, r24	; 0x01
{
	u8 Local_u8StringLen;
	/*Split the Statememnt into Several Words*/
	u8 *Local_pu8Token = strtok(Copy_pu8String," ");
	/*Loop until the End of Statement*/
	while(Local_pu8Token != NULL)
    363a:	89 81       	ldd	r24, Y+1	; 0x01
    363c:	9a 81       	ldd	r25, Y+2	; 0x02
    363e:	00 97       	sbiw	r24, 0x00	; 0
    3640:	09 f0       	breq	.+2      	; 0x3644 <LCD_voidSendString+0xf4>
    3642:	9e cf       	rjmp	.-196    	; 0x3580 <LCD_voidSendString+0x30>
		LCD_voidSendData(' ');
		Local_pu8Token = strtok(NULL," ");

	}

}
    3644:	27 96       	adiw	r28, 0x07	; 7
    3646:	0f b6       	in	r0, 0x3f	; 63
    3648:	f8 94       	cli
    364a:	de bf       	out	0x3e, r29	; 62
    364c:	0f be       	out	0x3f, r0	; 63
    364e:	cd bf       	out	0x3d, r28	; 61
    3650:	cf 91       	pop	r28
    3652:	df 91       	pop	r29
    3654:	08 95       	ret

00003656 <LCD_voidPositionSet>:

void LCD_voidPositionSet(u8 Copy_u8RowPos,u8 Copy_u8ColPos)
{
    3656:	df 93       	push	r29
    3658:	cf 93       	push	r28
    365a:	00 d0       	rcall	.+0      	; 0x365c <LCD_voidPositionSet+0x6>
    365c:	0f 92       	push	r0
    365e:	cd b7       	in	r28, 0x3d	; 61
    3660:	de b7       	in	r29, 0x3e	; 62
    3662:	8a 83       	std	Y+2, r24	; 0x02
    3664:	6b 83       	std	Y+3, r22	; 0x03

	u8 Local_u8DDRAMAddress;
	/*Check the Row to select the right DDRAM Address*/
	if(Copy_u8RowPos==0)
    3666:	8a 81       	ldd	r24, Y+2	; 0x02
    3668:	88 23       	and	r24, r24
    366a:	19 f4       	brne	.+6      	; 0x3672 <LCD_voidPositionSet+0x1c>
	{
		/*DDRAN Address for the first ROW*/
		Local_u8DDRAMAddress=Copy_u8ColPos;
    366c:	8b 81       	ldd	r24, Y+3	; 0x03
    366e:	89 83       	std	Y+1, r24	; 0x01
    3670:	06 c0       	rjmp	.+12     	; 0x367e <LCD_voidPositionSet+0x28>
	}
	else if(Copy_u8RowPos==1)
    3672:	8a 81       	ldd	r24, Y+2	; 0x02
    3674:	81 30       	cpi	r24, 0x01	; 1
    3676:	19 f4       	brne	.+6      	; 0x367e <LCD_voidPositionSet+0x28>
	{
		/*DDRAN Address for the second ROW*/
		Local_u8DDRAMAddress=Copy_u8ColPos+0x40;
    3678:	8b 81       	ldd	r24, Y+3	; 0x03
    367a:	80 5c       	subi	r24, 0xC0	; 192
    367c:	89 83       	std	Y+1, r24	; 0x01
	}
	/*Select the right Address to write in LCD*/
	/*NOTE!, The MSB must be ONE(Datasheet)*/
	LCD_voidSendCommand(Local_u8DDRAMAddress+128);
    367e:	89 81       	ldd	r24, Y+1	; 0x01
    3680:	80 58       	subi	r24, 0x80	; 128
    3682:	0e 94 6c 19 	call	0x32d8	; 0x32d8 <LCD_voidSendCommand>

}
    3686:	0f 90       	pop	r0
    3688:	0f 90       	pop	r0
    368a:	0f 90       	pop	r0
    368c:	cf 91       	pop	r28
    368e:	df 91       	pop	r29
    3690:	08 95       	ret

00003692 <LCD_voidSendSpeacialCharacter>:
/*Function to send Speacial Characters to LCD*/
void LCD_voidSendSpeacialCharacter(u8* Copy_u8Pattern, u8 Copy_u8PatternNumber, u8 Copy_u8Row,u8 Copy_u8Col)
{
    3692:	df 93       	push	r29
    3694:	cf 93       	push	r28
    3696:	cd b7       	in	r28, 0x3d	; 61
    3698:	de b7       	in	r29, 0x3e	; 62
    369a:	27 97       	sbiw	r28, 0x07	; 7
    369c:	0f b6       	in	r0, 0x3f	; 63
    369e:	f8 94       	cli
    36a0:	de bf       	out	0x3e, r29	; 62
    36a2:	0f be       	out	0x3f, r0	; 63
    36a4:	cd bf       	out	0x3d, r28	; 61
    36a6:	9c 83       	std	Y+4, r25	; 0x04
    36a8:	8b 83       	std	Y+3, r24	; 0x03
    36aa:	6d 83       	std	Y+5, r22	; 0x05
    36ac:	4e 83       	std	Y+6, r20	; 0x06
    36ae:	2f 83       	std	Y+7, r18	; 0x07
	/*Loop Counter*/
	u8 Local_u8Counter;

	/*No overwrite on any Location*/
	/*Calculate the CGRAM Address*/
	Local_u8CGRAMAddress=Copy_u8PatternNumber*8;
    36b0:	8d 81       	ldd	r24, Y+5	; 0x05
    36b2:	88 2f       	mov	r24, r24
    36b4:	90 e0       	ldi	r25, 0x00	; 0
    36b6:	88 0f       	add	r24, r24
    36b8:	99 1f       	adc	r25, r25
    36ba:	88 0f       	add	r24, r24
    36bc:	99 1f       	adc	r25, r25
    36be:	88 0f       	add	r24, r24
    36c0:	99 1f       	adc	r25, r25
    36c2:	8a 83       	std	Y+2, r24	; 0x02
	/*Set CGRAM Address Command to LCD with Setting Bit 6,and Clearing Bit 7 (Datasheet)*/
	LCD_voidSendCommand(Local_u8CGRAMAddress+64);
    36c4:	8a 81       	ldd	r24, Y+2	; 0x02
    36c6:	80 5c       	subi	r24, 0xC0	; 192
    36c8:	0e 94 6c 19 	call	0x32d8	; 0x32d8 <LCD_voidSendCommand>
	/*Write each Byte of (8 Bytes) in the Pattern(Character)*/
	for(Local_u8Counter=0; Local_u8Counter<8; Local_u8Counter++)
    36cc:	19 82       	std	Y+1, r1	; 0x01
    36ce:	0e c0       	rjmp	.+28     	; 0x36ec <LCD_voidSendSpeacialCharacter+0x5a>
	{
		LCD_voidSendData(Copy_u8Pattern[Local_u8Counter]);
    36d0:	89 81       	ldd	r24, Y+1	; 0x01
    36d2:	28 2f       	mov	r18, r24
    36d4:	30 e0       	ldi	r19, 0x00	; 0
    36d6:	8b 81       	ldd	r24, Y+3	; 0x03
    36d8:	9c 81       	ldd	r25, Y+4	; 0x04
    36da:	fc 01       	movw	r30, r24
    36dc:	e2 0f       	add	r30, r18
    36de:	f3 1f       	adc	r31, r19
    36e0:	80 81       	ld	r24, Z
    36e2:	0e 94 0a 1a 	call	0x3414	; 0x3414 <LCD_voidSendData>
	/*Calculate the CGRAM Address*/
	Local_u8CGRAMAddress=Copy_u8PatternNumber*8;
	/*Set CGRAM Address Command to LCD with Setting Bit 6,and Clearing Bit 7 (Datasheet)*/
	LCD_voidSendCommand(Local_u8CGRAMAddress+64);
	/*Write each Byte of (8 Bytes) in the Pattern(Character)*/
	for(Local_u8Counter=0; Local_u8Counter<8; Local_u8Counter++)
    36e6:	89 81       	ldd	r24, Y+1	; 0x01
    36e8:	8f 5f       	subi	r24, 0xFF	; 255
    36ea:	89 83       	std	Y+1, r24	; 0x01
    36ec:	89 81       	ldd	r24, Y+1	; 0x01
    36ee:	88 30       	cpi	r24, 0x08	; 8
    36f0:	78 f3       	brcs	.-34     	; 0x36d0 <LCD_voidSendSpeacialCharacter+0x3e>
	{
		LCD_voidSendData(Copy_u8Pattern[Local_u8Counter]);
	}
	/*Select the Position that you want to Write on it the Pattern */
	LCD_voidPositionSet(Copy_u8Row,Copy_u8Col);
    36f2:	8e 81       	ldd	r24, Y+6	; 0x06
    36f4:	6f 81       	ldd	r22, Y+7	; 0x07
    36f6:	0e 94 2b 1b 	call	0x3656	; 0x3656 <LCD_voidPositionSet>
	/*Write data to CGRAM or DDRAM(Datasheet)*/
	LCD_voidSendData(Copy_u8PatternNumber);
    36fa:	8d 81       	ldd	r24, Y+5	; 0x05
    36fc:	0e 94 0a 1a 	call	0x3414	; 0x3414 <LCD_voidSendData>

	/*Overwrite Location to Overwrite on it*/
}
    3700:	27 96       	adiw	r28, 0x07	; 7
    3702:	0f b6       	in	r0, 0x3f	; 63
    3704:	f8 94       	cli
    3706:	de bf       	out	0x3e, r29	; 62
    3708:	0f be       	out	0x3f, r0	; 63
    370a:	cd bf       	out	0x3d, r28	; 61
    370c:	cf 91       	pop	r28
    370e:	df 91       	pop	r29
    3710:	08 95       	ret

00003712 <LCD_voidSendNumber>:
/*Function to Send Number to LCD*/
void LCD_voidSendNumber(u32 Copy_u32Number)     //123
{
    3712:	0f 93       	push	r16
    3714:	1f 93       	push	r17
    3716:	df 93       	push	r29
    3718:	cf 93       	push	r28
    371a:	cd b7       	in	r28, 0x3d	; 61
    371c:	de b7       	in	r29, 0x3e	; 62
    371e:	68 97       	sbiw	r28, 0x18	; 24
    3720:	0f b6       	in	r0, 0x3f	; 63
    3722:	f8 94       	cli
    3724:	de bf       	out	0x3e, r29	; 62
    3726:	0f be       	out	0x3f, r0	; 63
    3728:	cd bf       	out	0x3d, r28	; 61
    372a:	6b 8b       	std	Y+19, r22	; 0x13
    372c:	7c 8b       	std	Y+20, r23	; 0x14
    372e:	8d 8b       	std	Y+21, r24	; 0x15
    3730:	9e 8b       	std	Y+22, r25	; 0x16
	u8  Local_u8ArrNumber[LCD_MAX_ARR_SIZE];
	s8 Local_u8Counter=0,Local_u8ArrSize=0;
    3732:	1a 82       	std	Y+2, r1	; 0x02
    3734:	19 82       	std	Y+1, r1	; 0x01

	if(Copy_u32Number==0)
    3736:	8b 89       	ldd	r24, Y+19	; 0x13
    3738:	9c 89       	ldd	r25, Y+20	; 0x14
    373a:	ad 89       	ldd	r26, Y+21	; 0x15
    373c:	be 89       	ldd	r27, Y+22	; 0x16
    373e:	00 97       	sbiw	r24, 0x00	; 0
    3740:	a1 05       	cpc	r26, r1
    3742:	b1 05       	cpc	r27, r1
    3744:	b1 f5       	brne	.+108    	; 0x37b2 <LCD_voidSendNumber+0xa0>
	{
		LCD_voidSendData(0b00110000);
    3746:	80 e3       	ldi	r24, 0x30	; 48
    3748:	0e 94 0a 1a 	call	0x3414	; 0x3414 <LCD_voidSendData>
    374c:	c0 c0       	rjmp	.+384    	; 0x38ce <LCD_voidSendNumber+0x1bc>
	}
	else
	{
		while(Copy_u32Number>0)
		{
			Local_u8ArrNumber[Local_u8Counter]=Copy_u32Number % 10; //123%10=3=(ARR[0]) -- 12%10=2=(ARR[1]) -- 1%10=1=(ARR[2])
    374e:	8a 81       	ldd	r24, Y+2	; 0x02
    3750:	08 2f       	mov	r16, r24
    3752:	11 27       	eor	r17, r17
    3754:	07 fd       	sbrc	r16, 7
    3756:	10 95       	com	r17
    3758:	8b 89       	ldd	r24, Y+19	; 0x13
    375a:	9c 89       	ldd	r25, Y+20	; 0x14
    375c:	ad 89       	ldd	r26, Y+21	; 0x15
    375e:	be 89       	ldd	r27, Y+22	; 0x16
    3760:	2a e0       	ldi	r18, 0x0A	; 10
    3762:	30 e0       	ldi	r19, 0x00	; 0
    3764:	40 e0       	ldi	r20, 0x00	; 0
    3766:	50 e0       	ldi	r21, 0x00	; 0
    3768:	bc 01       	movw	r22, r24
    376a:	cd 01       	movw	r24, r26
    376c:	0e 94 1b 3d 	call	0x7a36	; 0x7a36 <__udivmodsi4>
    3770:	dc 01       	movw	r26, r24
    3772:	cb 01       	movw	r24, r22
    3774:	28 2f       	mov	r18, r24
    3776:	ce 01       	movw	r24, r28
    3778:	03 96       	adiw	r24, 0x03	; 3
    377a:	fc 01       	movw	r30, r24
    377c:	e0 0f       	add	r30, r16
    377e:	f1 1f       	adc	r31, r17
    3780:	20 83       	st	Z, r18
			Copy_u32Number =Copy_u32Number /10 ;                    //123/10=12-- 12/10=1 -- 1/10=0
    3782:	8b 89       	ldd	r24, Y+19	; 0x13
    3784:	9c 89       	ldd	r25, Y+20	; 0x14
    3786:	ad 89       	ldd	r26, Y+21	; 0x15
    3788:	be 89       	ldd	r27, Y+22	; 0x16
    378a:	2a e0       	ldi	r18, 0x0A	; 10
    378c:	30 e0       	ldi	r19, 0x00	; 0
    378e:	40 e0       	ldi	r20, 0x00	; 0
    3790:	50 e0       	ldi	r21, 0x00	; 0
    3792:	bc 01       	movw	r22, r24
    3794:	cd 01       	movw	r24, r26
    3796:	0e 94 1b 3d 	call	0x7a36	; 0x7a36 <__udivmodsi4>
    379a:	da 01       	movw	r26, r20
    379c:	c9 01       	movw	r24, r18
    379e:	8b 8b       	std	Y+19, r24	; 0x13
    37a0:	9c 8b       	std	Y+20, r25	; 0x14
    37a2:	ad 8b       	std	Y+21, r26	; 0x15
    37a4:	be 8b       	std	Y+22, r27	; 0x16
			Local_u8Counter++;                                      //1 -- 2 -- 3
    37a6:	8a 81       	ldd	r24, Y+2	; 0x02
    37a8:	8f 5f       	subi	r24, 0xFF	; 255
    37aa:	8a 83       	std	Y+2, r24	; 0x02
			Local_u8ArrSize++;                                      //1 -- 2 -- 3
    37ac:	89 81       	ldd	r24, Y+1	; 0x01
    37ae:	8f 5f       	subi	r24, 0xFF	; 255
    37b0:	89 83       	std	Y+1, r24	; 0x01
	{
		LCD_voidSendData(0b00110000);
	}
	else
	{
		while(Copy_u32Number>0)
    37b2:	8b 89       	ldd	r24, Y+19	; 0x13
    37b4:	9c 89       	ldd	r25, Y+20	; 0x14
    37b6:	ad 89       	ldd	r26, Y+21	; 0x15
    37b8:	be 89       	ldd	r27, Y+22	; 0x16
    37ba:	00 97       	sbiw	r24, 0x00	; 0
    37bc:	a1 05       	cpc	r26, r1
    37be:	b1 05       	cpc	r27, r1
    37c0:	31 f6       	brne	.-116    	; 0x374e <LCD_voidSendNumber+0x3c>
			Copy_u32Number =Copy_u32Number /10 ;                    //123/10=12-- 12/10=1 -- 1/10=0
			Local_u8Counter++;                                      //1 -- 2 -- 3
			Local_u8ArrSize++;                                      //1 -- 2 -- 3
		}

		for(Local_u8Counter=Local_u8ArrSize-1 ; Local_u8Counter>=0 ; Local_u8Counter--)
    37c2:	89 81       	ldd	r24, Y+1	; 0x01
    37c4:	81 50       	subi	r24, 0x01	; 1
    37c6:	8a 83       	std	Y+2, r24	; 0x02
    37c8:	7e c0       	rjmp	.+252    	; 0x38c6 <LCD_voidSendNumber+0x1b4>
		{
			switch(Local_u8ArrNumber[Local_u8Counter])     //ARR[2]=1   -- ARR[1]=2 -- ARR[0]=3
    37ca:	8a 81       	ldd	r24, Y+2	; 0x02
    37cc:	28 2f       	mov	r18, r24
    37ce:	33 27       	eor	r19, r19
    37d0:	27 fd       	sbrc	r18, 7
    37d2:	30 95       	com	r19
    37d4:	ce 01       	movw	r24, r28
    37d6:	03 96       	adiw	r24, 0x03	; 3
    37d8:	fc 01       	movw	r30, r24
    37da:	e2 0f       	add	r30, r18
    37dc:	f3 1f       	adc	r31, r19
    37de:	80 81       	ld	r24, Z
    37e0:	28 2f       	mov	r18, r24
    37e2:	30 e0       	ldi	r19, 0x00	; 0
    37e4:	38 8f       	std	Y+24, r19	; 0x18
    37e6:	2f 8b       	std	Y+23, r18	; 0x17
    37e8:	8f 89       	ldd	r24, Y+23	; 0x17
    37ea:	98 8d       	ldd	r25, Y+24	; 0x18
    37ec:	84 30       	cpi	r24, 0x04	; 4
    37ee:	91 05       	cpc	r25, r1
    37f0:	09 f4       	brne	.+2      	; 0x37f4 <LCD_voidSendNumber+0xe2>
    37f2:	4f c0       	rjmp	.+158    	; 0x3892 <LCD_voidSendNumber+0x180>
    37f4:	2f 89       	ldd	r18, Y+23	; 0x17
    37f6:	38 8d       	ldd	r19, Y+24	; 0x18
    37f8:	25 30       	cpi	r18, 0x05	; 5
    37fa:	31 05       	cpc	r19, r1
    37fc:	d4 f4       	brge	.+52     	; 0x3832 <LCD_voidSendNumber+0x120>
    37fe:	8f 89       	ldd	r24, Y+23	; 0x17
    3800:	98 8d       	ldd	r25, Y+24	; 0x18
    3802:	81 30       	cpi	r24, 0x01	; 1
    3804:	91 05       	cpc	r25, r1
    3806:	c9 f1       	breq	.+114    	; 0x387a <LCD_voidSendNumber+0x168>
    3808:	2f 89       	ldd	r18, Y+23	; 0x17
    380a:	38 8d       	ldd	r19, Y+24	; 0x18
    380c:	22 30       	cpi	r18, 0x02	; 2
    380e:	31 05       	cpc	r19, r1
    3810:	2c f4       	brge	.+10     	; 0x381c <LCD_voidSendNumber+0x10a>
    3812:	8f 89       	ldd	r24, Y+23	; 0x17
    3814:	98 8d       	ldd	r25, Y+24	; 0x18
    3816:	00 97       	sbiw	r24, 0x00	; 0
    3818:	61 f1       	breq	.+88     	; 0x3872 <LCD_voidSendNumber+0x160>
    381a:	52 c0       	rjmp	.+164    	; 0x38c0 <LCD_voidSendNumber+0x1ae>
    381c:	2f 89       	ldd	r18, Y+23	; 0x17
    381e:	38 8d       	ldd	r19, Y+24	; 0x18
    3820:	22 30       	cpi	r18, 0x02	; 2
    3822:	31 05       	cpc	r19, r1
    3824:	71 f1       	breq	.+92     	; 0x3882 <LCD_voidSendNumber+0x170>
    3826:	8f 89       	ldd	r24, Y+23	; 0x17
    3828:	98 8d       	ldd	r25, Y+24	; 0x18
    382a:	83 30       	cpi	r24, 0x03	; 3
    382c:	91 05       	cpc	r25, r1
    382e:	69 f1       	breq	.+90     	; 0x388a <LCD_voidSendNumber+0x178>
    3830:	47 c0       	rjmp	.+142    	; 0x38c0 <LCD_voidSendNumber+0x1ae>
    3832:	2f 89       	ldd	r18, Y+23	; 0x17
    3834:	38 8d       	ldd	r19, Y+24	; 0x18
    3836:	27 30       	cpi	r18, 0x07	; 7
    3838:	31 05       	cpc	r19, r1
    383a:	b9 f1       	breq	.+110    	; 0x38aa <LCD_voidSendNumber+0x198>
    383c:	8f 89       	ldd	r24, Y+23	; 0x17
    383e:	98 8d       	ldd	r25, Y+24	; 0x18
    3840:	88 30       	cpi	r24, 0x08	; 8
    3842:	91 05       	cpc	r25, r1
    3844:	5c f4       	brge	.+22     	; 0x385c <LCD_voidSendNumber+0x14a>
    3846:	2f 89       	ldd	r18, Y+23	; 0x17
    3848:	38 8d       	ldd	r19, Y+24	; 0x18
    384a:	25 30       	cpi	r18, 0x05	; 5
    384c:	31 05       	cpc	r19, r1
    384e:	29 f1       	breq	.+74     	; 0x389a <LCD_voidSendNumber+0x188>
    3850:	8f 89       	ldd	r24, Y+23	; 0x17
    3852:	98 8d       	ldd	r25, Y+24	; 0x18
    3854:	86 30       	cpi	r24, 0x06	; 6
    3856:	91 05       	cpc	r25, r1
    3858:	21 f1       	breq	.+72     	; 0x38a2 <LCD_voidSendNumber+0x190>
    385a:	32 c0       	rjmp	.+100    	; 0x38c0 <LCD_voidSendNumber+0x1ae>
    385c:	2f 89       	ldd	r18, Y+23	; 0x17
    385e:	38 8d       	ldd	r19, Y+24	; 0x18
    3860:	28 30       	cpi	r18, 0x08	; 8
    3862:	31 05       	cpc	r19, r1
    3864:	31 f1       	breq	.+76     	; 0x38b2 <LCD_voidSendNumber+0x1a0>
    3866:	8f 89       	ldd	r24, Y+23	; 0x17
    3868:	98 8d       	ldd	r25, Y+24	; 0x18
    386a:	89 30       	cpi	r24, 0x09	; 9
    386c:	91 05       	cpc	r25, r1
    386e:	29 f1       	breq	.+74     	; 0x38ba <LCD_voidSendNumber+0x1a8>
    3870:	27 c0       	rjmp	.+78     	; 0x38c0 <LCD_voidSendNumber+0x1ae>
			{
			case 0: LCD_voidSendData(0b00110000);
    3872:	80 e3       	ldi	r24, 0x30	; 48
    3874:	0e 94 0a 1a 	call	0x3414	; 0x3414 <LCD_voidSendData>
    3878:	23 c0       	rjmp	.+70     	; 0x38c0 <LCD_voidSendNumber+0x1ae>
			break;
			case 1: LCD_voidSendData(0b00110001);
    387a:	81 e3       	ldi	r24, 0x31	; 49
    387c:	0e 94 0a 1a 	call	0x3414	; 0x3414 <LCD_voidSendData>
    3880:	1f c0       	rjmp	.+62     	; 0x38c0 <LCD_voidSendNumber+0x1ae>
			break;
			case 2: LCD_voidSendData(0b00110010);
    3882:	82 e3       	ldi	r24, 0x32	; 50
    3884:	0e 94 0a 1a 	call	0x3414	; 0x3414 <LCD_voidSendData>
    3888:	1b c0       	rjmp	.+54     	; 0x38c0 <LCD_voidSendNumber+0x1ae>
			break;
			case 3: LCD_voidSendData(0b00110011);
    388a:	83 e3       	ldi	r24, 0x33	; 51
    388c:	0e 94 0a 1a 	call	0x3414	; 0x3414 <LCD_voidSendData>
    3890:	17 c0       	rjmp	.+46     	; 0x38c0 <LCD_voidSendNumber+0x1ae>
			break;
			case 4: LCD_voidSendData(0b00110100);
    3892:	84 e3       	ldi	r24, 0x34	; 52
    3894:	0e 94 0a 1a 	call	0x3414	; 0x3414 <LCD_voidSendData>
    3898:	13 c0       	rjmp	.+38     	; 0x38c0 <LCD_voidSendNumber+0x1ae>
			break;
			case 5: LCD_voidSendData(0b00110101);
    389a:	85 e3       	ldi	r24, 0x35	; 53
    389c:	0e 94 0a 1a 	call	0x3414	; 0x3414 <LCD_voidSendData>
    38a0:	0f c0       	rjmp	.+30     	; 0x38c0 <LCD_voidSendNumber+0x1ae>
			break;
			case 6: LCD_voidSendData(0b00110110);
    38a2:	86 e3       	ldi	r24, 0x36	; 54
    38a4:	0e 94 0a 1a 	call	0x3414	; 0x3414 <LCD_voidSendData>
    38a8:	0b c0       	rjmp	.+22     	; 0x38c0 <LCD_voidSendNumber+0x1ae>
			break;
			case 7: LCD_voidSendData(0b00110111);
    38aa:	87 e3       	ldi	r24, 0x37	; 55
    38ac:	0e 94 0a 1a 	call	0x3414	; 0x3414 <LCD_voidSendData>
    38b0:	07 c0       	rjmp	.+14     	; 0x38c0 <LCD_voidSendNumber+0x1ae>
			break;
			case 8: LCD_voidSendData(0b00111000);
    38b2:	88 e3       	ldi	r24, 0x38	; 56
    38b4:	0e 94 0a 1a 	call	0x3414	; 0x3414 <LCD_voidSendData>
    38b8:	03 c0       	rjmp	.+6      	; 0x38c0 <LCD_voidSendNumber+0x1ae>
			break;
			case 9: LCD_voidSendData(0b00111001);
    38ba:	89 e3       	ldi	r24, 0x39	; 57
    38bc:	0e 94 0a 1a 	call	0x3414	; 0x3414 <LCD_voidSendData>
			Copy_u32Number =Copy_u32Number /10 ;                    //123/10=12-- 12/10=1 -- 1/10=0
			Local_u8Counter++;                                      //1 -- 2 -- 3
			Local_u8ArrSize++;                                      //1 -- 2 -- 3
		}

		for(Local_u8Counter=Local_u8ArrSize-1 ; Local_u8Counter>=0 ; Local_u8Counter--)
    38c0:	8a 81       	ldd	r24, Y+2	; 0x02
    38c2:	81 50       	subi	r24, 0x01	; 1
    38c4:	8a 83       	std	Y+2, r24	; 0x02
    38c6:	8a 81       	ldd	r24, Y+2	; 0x02
    38c8:	88 23       	and	r24, r24
    38ca:	0c f0       	brlt	.+2      	; 0x38ce <LCD_voidSendNumber+0x1bc>
    38cc:	7e cf       	rjmp	.-260    	; 0x37ca <LCD_voidSendNumber+0xb8>
			break;
			}
		}
	}

}
    38ce:	68 96       	adiw	r28, 0x18	; 24
    38d0:	0f b6       	in	r0, 0x3f	; 63
    38d2:	f8 94       	cli
    38d4:	de bf       	out	0x3e, r29	; 62
    38d6:	0f be       	out	0x3f, r0	; 63
    38d8:	cd bf       	out	0x3d, r28	; 61
    38da:	cf 91       	pop	r28
    38dc:	df 91       	pop	r29
    38de:	1f 91       	pop	r17
    38e0:	0f 91       	pop	r16
    38e2:	08 95       	ret

000038e4 <LCD_voidClearDisplay>:
	}

}*/
/*Function to Clear LCD*/
void LCD_voidClearDisplay()
{
    38e4:	df 93       	push	r29
    38e6:	cf 93       	push	r28
    38e8:	cd b7       	in	r28, 0x3d	; 61
    38ea:	de b7       	in	r29, 0x3e	; 62
	/* Clear the Display */
	LCD_voidSendCommand(0b00000001);
    38ec:	81 e0       	ldi	r24, 0x01	; 1
    38ee:	0e 94 6c 19 	call	0x32d8	; 0x32d8 <LCD_voidSendCommand>
}
    38f2:	cf 91       	pop	r28
    38f4:	df 91       	pop	r29
    38f6:	08 95       	ret

000038f8 <LCD_voidSendString2>:

void LCD_voidSendString2(const char* Copy_pu8String)
{
    38f8:	df 93       	push	r29
    38fa:	cf 93       	push	r28
    38fc:	00 d0       	rcall	.+0      	; 0x38fe <LCD_voidSendString2+0x6>
    38fe:	cd b7       	in	r28, 0x3d	; 61
    3900:	de b7       	in	r29, 0x3e	; 62
    3902:	9a 83       	std	Y+2, r25	; 0x02
    3904:	89 83       	std	Y+1, r24	; 0x01
    3906:	0a c0       	rjmp	.+20     	; 0x391c <LCD_voidSendString2+0x24>

	while(*Copy_pu8String!='\0')

	{
		LCD_voidSendData(*Copy_pu8String);
    3908:	e9 81       	ldd	r30, Y+1	; 0x01
    390a:	fa 81       	ldd	r31, Y+2	; 0x02
    390c:	80 81       	ld	r24, Z
    390e:	0e 94 0a 1a 	call	0x3414	; 0x3414 <LCD_voidSendData>
		Copy_pu8String++;
    3912:	89 81       	ldd	r24, Y+1	; 0x01
    3914:	9a 81       	ldd	r25, Y+2	; 0x02
    3916:	01 96       	adiw	r24, 0x01	; 1
    3918:	9a 83       	std	Y+2, r25	; 0x02
    391a:	89 83       	std	Y+1, r24	; 0x01
}

void LCD_voidSendString2(const char* Copy_pu8String)
{

	while(*Copy_pu8String!='\0')
    391c:	e9 81       	ldd	r30, Y+1	; 0x01
    391e:	fa 81       	ldd	r31, Y+2	; 0x02
    3920:	80 81       	ld	r24, Z
    3922:	88 23       	and	r24, r24
    3924:	89 f7       	brne	.-30     	; 0x3908 <LCD_voidSendString2+0x10>
	{
		LCD_voidSendData(*Copy_pu8String);
		Copy_pu8String++;
	}

}
    3926:	0f 90       	pop	r0
    3928:	0f 90       	pop	r0
    392a:	cf 91       	pop	r28
    392c:	df 91       	pop	r29
    392e:	08 95       	ret

00003930 <LDR_u8GetDigitalReading>:
#include <avr/delay.h>


/*Function to start the conversion*/
u8 LDR_u8GetDigitalReading(u8 Copy_u8Channel, u16* Copy_pu16ADCDigitalReading)
{
    3930:	df 93       	push	r29
    3932:	cf 93       	push	r28
    3934:	00 d0       	rcall	.+0      	; 0x3936 <LDR_u8GetDigitalReading+0x6>
    3936:	00 d0       	rcall	.+0      	; 0x3938 <LDR_u8GetDigitalReading+0x8>
    3938:	00 d0       	rcall	.+0      	; 0x393a <LDR_u8GetDigitalReading+0xa>
    393a:	cd b7       	in	r28, 0x3d	; 61
    393c:	de b7       	in	r29, 0x3e	; 62
    393e:	8a 83       	std	Y+2, r24	; 0x02
    3940:	7c 83       	std	Y+4, r23	; 0x04
    3942:	6b 83       	std	Y+3, r22	; 0x03
	u8 Local_u8ErrorState=OK;
    3944:	19 82       	std	Y+1, r1	; 0x01
	if(Copy_pu16ADCDigitalReading != NULL)
    3946:	8b 81       	ldd	r24, Y+3	; 0x03
    3948:	9c 81       	ldd	r25, Y+4	; 0x04
    394a:	00 97       	sbiw	r24, 0x00	; 0
    394c:	09 f4       	brne	.+2      	; 0x3950 <LDR_u8GetDigitalReading+0x20>
    394e:	6f c0       	rjmp	.+222    	; 0x3a2e <LDR_u8GetDigitalReading+0xfe>
	{
		switch(Copy_u8Channel)
    3950:	8a 81       	ldd	r24, Y+2	; 0x02
    3952:	28 2f       	mov	r18, r24
    3954:	30 e0       	ldi	r19, 0x00	; 0
    3956:	3e 83       	std	Y+6, r19	; 0x06
    3958:	2d 83       	std	Y+5, r18	; 0x05
    395a:	8d 81       	ldd	r24, Y+5	; 0x05
    395c:	9e 81       	ldd	r25, Y+6	; 0x06
    395e:	83 30       	cpi	r24, 0x03	; 3
    3960:	91 05       	cpc	r25, r1
    3962:	09 f4       	brne	.+2      	; 0x3966 <LDR_u8GetDigitalReading+0x36>
    3964:	3e c0       	rjmp	.+124    	; 0x39e2 <LDR_u8GetDigitalReading+0xb2>
    3966:	2d 81       	ldd	r18, Y+5	; 0x05
    3968:	3e 81       	ldd	r19, Y+6	; 0x06
    396a:	24 30       	cpi	r18, 0x04	; 4
    396c:	31 05       	cpc	r19, r1
    396e:	7c f4       	brge	.+30     	; 0x398e <LDR_u8GetDigitalReading+0x5e>
    3970:	8d 81       	ldd	r24, Y+5	; 0x05
    3972:	9e 81       	ldd	r25, Y+6	; 0x06
    3974:	81 30       	cpi	r24, 0x01	; 1
    3976:	91 05       	cpc	r25, r1
    3978:	31 f1       	breq	.+76     	; 0x39c6 <LDR_u8GetDigitalReading+0x96>
    397a:	2d 81       	ldd	r18, Y+5	; 0x05
    397c:	3e 81       	ldd	r19, Y+6	; 0x06
    397e:	22 30       	cpi	r18, 0x02	; 2
    3980:	31 05       	cpc	r19, r1
    3982:	44 f5       	brge	.+80     	; 0x39d4 <LDR_u8GetDigitalReading+0xa4>
    3984:	8d 81       	ldd	r24, Y+5	; 0x05
    3986:	9e 81       	ldd	r25, Y+6	; 0x06
    3988:	00 97       	sbiw	r24, 0x00	; 0
    398a:	b1 f0       	breq	.+44     	; 0x39b8 <LDR_u8GetDigitalReading+0x88>
    398c:	4d c0       	rjmp	.+154    	; 0x3a28 <LDR_u8GetDigitalReading+0xf8>
    398e:	2d 81       	ldd	r18, Y+5	; 0x05
    3990:	3e 81       	ldd	r19, Y+6	; 0x06
    3992:	25 30       	cpi	r18, 0x05	; 5
    3994:	31 05       	cpc	r19, r1
    3996:	99 f1       	breq	.+102    	; 0x39fe <LDR_u8GetDigitalReading+0xce>
    3998:	8d 81       	ldd	r24, Y+5	; 0x05
    399a:	9e 81       	ldd	r25, Y+6	; 0x06
    399c:	85 30       	cpi	r24, 0x05	; 5
    399e:	91 05       	cpc	r25, r1
    39a0:	3c f1       	brlt	.+78     	; 0x39f0 <LDR_u8GetDigitalReading+0xc0>
    39a2:	2d 81       	ldd	r18, Y+5	; 0x05
    39a4:	3e 81       	ldd	r19, Y+6	; 0x06
    39a6:	26 30       	cpi	r18, 0x06	; 6
    39a8:	31 05       	cpc	r19, r1
    39aa:	81 f1       	breq	.+96     	; 0x3a0c <LDR_u8GetDigitalReading+0xdc>
    39ac:	8d 81       	ldd	r24, Y+5	; 0x05
    39ae:	9e 81       	ldd	r25, Y+6	; 0x06
    39b0:	87 30       	cpi	r24, 0x07	; 7
    39b2:	91 05       	cpc	r25, r1
    39b4:	91 f1       	breq	.+100    	; 0x3a1a <LDR_u8GetDigitalReading+0xea>
    39b6:	38 c0       	rjmp	.+112    	; 0x3a28 <LDR_u8GetDigitalReading+0xf8>
		{
		case LDR_u8ADC_CHANNEL0:ADC_u8StartConversionSynch(ADC_SINGLE_ENDED_ADC0,Copy_pu16ADCDigitalReading); break;
    39b8:	2b 81       	ldd	r18, Y+3	; 0x03
    39ba:	3c 81       	ldd	r19, Y+4	; 0x04
    39bc:	80 e0       	ldi	r24, 0x00	; 0
    39be:	b9 01       	movw	r22, r18
    39c0:	0e 94 56 07 	call	0xeac	; 0xeac <ADC_u8StartConversionSynch>
    39c4:	36 c0       	rjmp	.+108    	; 0x3a32 <LDR_u8GetDigitalReading+0x102>
		case LDR_u8ADC_CHANNEL1:ADC_u8StartConversionSynch(ADC_SINGLE_ENDED_ADC1,Copy_pu16ADCDigitalReading); break;
    39c6:	2b 81       	ldd	r18, Y+3	; 0x03
    39c8:	3c 81       	ldd	r19, Y+4	; 0x04
    39ca:	81 e0       	ldi	r24, 0x01	; 1
    39cc:	b9 01       	movw	r22, r18
    39ce:	0e 94 56 07 	call	0xeac	; 0xeac <ADC_u8StartConversionSynch>
    39d2:	2f c0       	rjmp	.+94     	; 0x3a32 <LDR_u8GetDigitalReading+0x102>
		case LDR_u8ADC_CHANNEL2:ADC_u8StartConversionSynch(ADC_SINGLE_ENDED_ADC2,Copy_pu16ADCDigitalReading); break;
    39d4:	2b 81       	ldd	r18, Y+3	; 0x03
    39d6:	3c 81       	ldd	r19, Y+4	; 0x04
    39d8:	82 e0       	ldi	r24, 0x02	; 2
    39da:	b9 01       	movw	r22, r18
    39dc:	0e 94 56 07 	call	0xeac	; 0xeac <ADC_u8StartConversionSynch>
    39e0:	28 c0       	rjmp	.+80     	; 0x3a32 <LDR_u8GetDigitalReading+0x102>
		case LDR_u8ADC_CHANNEL3:ADC_u8StartConversionSynch(ADC_SINGLE_ENDED_ADC3,Copy_pu16ADCDigitalReading); break;
    39e2:	2b 81       	ldd	r18, Y+3	; 0x03
    39e4:	3c 81       	ldd	r19, Y+4	; 0x04
    39e6:	83 e0       	ldi	r24, 0x03	; 3
    39e8:	b9 01       	movw	r22, r18
    39ea:	0e 94 56 07 	call	0xeac	; 0xeac <ADC_u8StartConversionSynch>
    39ee:	21 c0       	rjmp	.+66     	; 0x3a32 <LDR_u8GetDigitalReading+0x102>
		case LDR_u8ADC_CHANNEL4:ADC_u8StartConversionSynch(ADC_SINGLE_ENDED_ADC4,Copy_pu16ADCDigitalReading); break;
    39f0:	2b 81       	ldd	r18, Y+3	; 0x03
    39f2:	3c 81       	ldd	r19, Y+4	; 0x04
    39f4:	84 e0       	ldi	r24, 0x04	; 4
    39f6:	b9 01       	movw	r22, r18
    39f8:	0e 94 56 07 	call	0xeac	; 0xeac <ADC_u8StartConversionSynch>
    39fc:	1a c0       	rjmp	.+52     	; 0x3a32 <LDR_u8GetDigitalReading+0x102>
		case LDR_u8ADC_CHANNEL5:ADC_u8StartConversionSynch(ADC_SINGLE_ENDED_ADC5,Copy_pu16ADCDigitalReading); break;
    39fe:	2b 81       	ldd	r18, Y+3	; 0x03
    3a00:	3c 81       	ldd	r19, Y+4	; 0x04
    3a02:	85 e0       	ldi	r24, 0x05	; 5
    3a04:	b9 01       	movw	r22, r18
    3a06:	0e 94 56 07 	call	0xeac	; 0xeac <ADC_u8StartConversionSynch>
    3a0a:	13 c0       	rjmp	.+38     	; 0x3a32 <LDR_u8GetDigitalReading+0x102>
		case LDR_u8ADC_CHANNEL6:ADC_u8StartConversionSynch(ADC_SINGLE_ENDED_ADC6,Copy_pu16ADCDigitalReading); break;
    3a0c:	2b 81       	ldd	r18, Y+3	; 0x03
    3a0e:	3c 81       	ldd	r19, Y+4	; 0x04
    3a10:	86 e0       	ldi	r24, 0x06	; 6
    3a12:	b9 01       	movw	r22, r18
    3a14:	0e 94 56 07 	call	0xeac	; 0xeac <ADC_u8StartConversionSynch>
    3a18:	0c c0       	rjmp	.+24     	; 0x3a32 <LDR_u8GetDigitalReading+0x102>
		case LDR_u8ADC_CHANNEL7:ADC_u8StartConversionSynch(ADC_SINGLE_ENDED_ADC7,Copy_pu16ADCDigitalReading); break;
    3a1a:	2b 81       	ldd	r18, Y+3	; 0x03
    3a1c:	3c 81       	ldd	r19, Y+4	; 0x04
    3a1e:	87 e0       	ldi	r24, 0x07	; 7
    3a20:	b9 01       	movw	r22, r18
    3a22:	0e 94 56 07 	call	0xeac	; 0xeac <ADC_u8StartConversionSynch>
    3a26:	05 c0       	rjmp	.+10     	; 0x3a32 <LDR_u8GetDigitalReading+0x102>
		default: Local_u8ErrorState=NOK;
    3a28:	81 e0       	ldi	r24, 0x01	; 1
    3a2a:	89 83       	std	Y+1, r24	; 0x01
    3a2c:	02 c0       	rjmp	.+4      	; 0x3a32 <LDR_u8GetDigitalReading+0x102>
		}
	}
	else
	{
		Local_u8ErrorState=NULL_POINTER;
    3a2e:	82 e0       	ldi	r24, 0x02	; 2
    3a30:	89 83       	std	Y+1, r24	; 0x01
	}
	return Local_u8ErrorState;
    3a32:	89 81       	ldd	r24, Y+1	; 0x01
}
    3a34:	26 96       	adiw	r28, 0x06	; 6
    3a36:	0f b6       	in	r0, 0x3f	; 63
    3a38:	f8 94       	cli
    3a3a:	de bf       	out	0x3e, r29	; 62
    3a3c:	0f be       	out	0x3f, r0	; 63
    3a3e:	cd bf       	out	0x3d, r28	; 61
    3a40:	cf 91       	pop	r28
    3a42:	df 91       	pop	r29
    3a44:	08 95       	ret

00003a46 <LDR_u8TurnedOnLEDsNumber>:



/*Function to turn ON  LEDs depend on ADC Digital Value*/
u8 LDR_u8TurnedOnLEDsNumber(u16* Copy_pu16ADCDigitalReading)
{
    3a46:	af 92       	push	r10
    3a48:	bf 92       	push	r11
    3a4a:	cf 92       	push	r12
    3a4c:	df 92       	push	r13
    3a4e:	ef 92       	push	r14
    3a50:	ff 92       	push	r15
    3a52:	0f 93       	push	r16
    3a54:	1f 93       	push	r17
    3a56:	df 93       	push	r29
    3a58:	cf 93       	push	r28
    3a5a:	cd b7       	in	r28, 0x3d	; 61
    3a5c:	de b7       	in	r29, 0x3e	; 62
    3a5e:	60 97       	sbiw	r28, 0x10	; 16
    3a60:	0f b6       	in	r0, 0x3f	; 63
    3a62:	f8 94       	cli
    3a64:	de bf       	out	0x3e, r29	; 62
    3a66:	0f be       	out	0x3f, r0	; 63
    3a68:	cd bf       	out	0x3d, r28	; 61
    3a6a:	9b 87       	std	Y+11, r25	; 0x0b
    3a6c:	8a 87       	std	Y+10, r24	; 0x0a
	u8 Local_u8ErrorState=OK;
    3a6e:	1c 82       	std	Y+4, r1	; 0x04
	if(Copy_pu16ADCDigitalReading != NULL)
    3a70:	8a 85       	ldd	r24, Y+10	; 0x0a
    3a72:	9b 85       	ldd	r25, Y+11	; 0x0b
    3a74:	00 97       	sbiw	r24, 0x00	; 0
    3a76:	09 f4       	brne	.+2      	; 0x3a7a <LDR_u8TurnedOnLEDsNumber+0x34>
    3a78:	96 c0       	rjmp	.+300    	; 0x3ba6 <LDR_u8TurnedOnLEDsNumber+0x160>
		 *
		 *If the Current ADC Reading value is greater than ADC Max Reading value,
		 *Returned value will be negative number!
		 *
		 **/
		Local_u8LEDsMappingNumber=MATH_s32Map(LDR_MIN_READING,LDR_MAX_READING,LDR_MIN_LEDsNumber,LDR_MAX_LEDsNumber,*Copy_pu16ADCDigitalReading);
    3a7a:	ea 85       	ldd	r30, Y+10	; 0x0a
    3a7c:	fb 85       	ldd	r31, Y+11	; 0x0b
    3a7e:	80 81       	ld	r24, Z
    3a80:	91 81       	ldd	r25, Z+1	; 0x01
    3a82:	cc 01       	movw	r24, r24
    3a84:	a0 e0       	ldi	r26, 0x00	; 0
    3a86:	b0 e0       	ldi	r27, 0x00	; 0
    3a88:	00 d0       	rcall	.+0      	; 0x3a8a <LDR_u8TurnedOnLEDsNumber+0x44>
    3a8a:	00 d0       	rcall	.+0      	; 0x3a8c <LDR_u8TurnedOnLEDsNumber+0x46>
    3a8c:	ed b7       	in	r30, 0x3d	; 61
    3a8e:	fe b7       	in	r31, 0x3e	; 62
    3a90:	31 96       	adiw	r30, 0x01	; 1
    3a92:	80 83       	st	Z, r24
    3a94:	91 83       	std	Z+1, r25	; 0x01
    3a96:	a2 83       	std	Z+2, r26	; 0x02
    3a98:	b3 83       	std	Z+3, r27	; 0x03
    3a9a:	60 e0       	ldi	r22, 0x00	; 0
    3a9c:	70 e0       	ldi	r23, 0x00	; 0
    3a9e:	80 e0       	ldi	r24, 0x00	; 0
    3aa0:	90 e0       	ldi	r25, 0x00	; 0
    3aa2:	20 ef       	ldi	r18, 0xF0	; 240
    3aa4:	30 e0       	ldi	r19, 0x00	; 0
    3aa6:	40 e0       	ldi	r20, 0x00	; 0
    3aa8:	50 e0       	ldi	r21, 0x00	; 0
    3aaa:	ee 24       	eor	r14, r14
    3aac:	ff 24       	eor	r15, r15
    3aae:	87 01       	movw	r16, r14
    3ab0:	aa 24       	eor	r10, r10
    3ab2:	bb 24       	eor	r11, r11
    3ab4:	65 01       	movw	r12, r10
    3ab6:	68 94       	set
    3ab8:	a2 f8       	bld	r10, 2
    3aba:	0e 94 e7 1d 	call	0x3bce	; 0x3bce <MATH_s32Map>
    3abe:	0f 90       	pop	r0
    3ac0:	0f 90       	pop	r0
    3ac2:	0f 90       	pop	r0
    3ac4:	0f 90       	pop	r0
    3ac6:	dc 01       	movw	r26, r24
    3ac8:	cb 01       	movw	r24, r22
    3aca:	8b 83       	std	Y+3, r24	; 0x03
		Local_u8ONLEDsNumber=LDR_MAX_LEDsNumber-Local_u8LEDsMappingNumber;
    3acc:	94 e0       	ldi	r25, 0x04	; 4
    3ace:	8b 81       	ldd	r24, Y+3	; 0x03
    3ad0:	29 2f       	mov	r18, r25
    3ad2:	28 1b       	sub	r18, r24
    3ad4:	82 2f       	mov	r24, r18
    3ad6:	8a 83       	std	Y+2, r24	; 0x02

		DIO_u8SetPortValue(LDR_LEDs_PORT,DIO_u8PORT_LOW);
    3ad8:	80 e0       	ldi	r24, 0x00	; 0
    3ada:	60 e0       	ldi	r22, 0x00	; 0
    3adc:	0e 94 c4 14 	call	0x2988	; 0x2988 <DIO_u8SetPortValue>
		for(Local_u8Counter=0; Local_u8Counter<Local_u8ONLEDsNumber; Local_u8Counter++)
    3ae0:	19 82       	std	Y+1, r1	; 0x01
    3ae2:	08 c0       	rjmp	.+16     	; 0x3af4 <LDR_u8TurnedOnLEDsNumber+0xae>
		{
			DIO_u8SetPinValue(LDR_LEDs_PORT,Local_u8Counter,DIO_u8PIN_HIGH);
    3ae4:	80 e0       	ldi	r24, 0x00	; 0
    3ae6:	69 81       	ldd	r22, Y+1	; 0x01
    3ae8:	41 e0       	ldi	r20, 0x01	; 1
    3aea:	0e 94 b2 13 	call	0x2764	; 0x2764 <DIO_u8SetPinValue>
		 **/
		Local_u8LEDsMappingNumber=MATH_s32Map(LDR_MIN_READING,LDR_MAX_READING,LDR_MIN_LEDsNumber,LDR_MAX_LEDsNumber,*Copy_pu16ADCDigitalReading);
		Local_u8ONLEDsNumber=LDR_MAX_LEDsNumber-Local_u8LEDsMappingNumber;

		DIO_u8SetPortValue(LDR_LEDs_PORT,DIO_u8PORT_LOW);
		for(Local_u8Counter=0; Local_u8Counter<Local_u8ONLEDsNumber; Local_u8Counter++)
    3aee:	89 81       	ldd	r24, Y+1	; 0x01
    3af0:	8f 5f       	subi	r24, 0xFF	; 255
    3af2:	89 83       	std	Y+1, r24	; 0x01
    3af4:	99 81       	ldd	r25, Y+1	; 0x01
    3af6:	8a 81       	ldd	r24, Y+2	; 0x02
    3af8:	98 17       	cp	r25, r24
    3afa:	a0 f3       	brcs	.-24     	; 0x3ae4 <LDR_u8TurnedOnLEDsNumber+0x9e>
		{
			DIO_u8SetPinValue(LDR_LEDs_PORT,Local_u8Counter,DIO_u8PIN_HIGH);
		}
		/*Display the Digital value of ADC reading on LCD*/
		LCD_voidSendString2("ADC Reading:");
    3afc:	8b ef       	ldi	r24, 0xFB	; 251
    3afe:	90 e0       	ldi	r25, 0x00	; 0
    3b00:	0e 94 7c 1c 	call	0x38f8	; 0x38f8 <LCD_voidSendString2>
		LCD_voidPositionSet(0,12);
    3b04:	80 e0       	ldi	r24, 0x00	; 0
    3b06:	6c e0       	ldi	r22, 0x0C	; 12
    3b08:	0e 94 2b 1b 	call	0x3656	; 0x3656 <LCD_voidPositionSet>
		LCD_voidSendNumber(*Copy_pu16ADCDigitalReading);
    3b0c:	ea 85       	ldd	r30, Y+10	; 0x0a
    3b0e:	fb 85       	ldd	r31, Y+11	; 0x0b
    3b10:	80 81       	ld	r24, Z
    3b12:	91 81       	ldd	r25, Z+1	; 0x01
    3b14:	cc 01       	movw	r24, r24
    3b16:	a0 e0       	ldi	r26, 0x00	; 0
    3b18:	b0 e0       	ldi	r27, 0x00	; 0
    3b1a:	bc 01       	movw	r22, r24
    3b1c:	cd 01       	movw	r24, r26
    3b1e:	0e 94 89 1b 	call	0x3712	; 0x3712 <LCD_voidSendNumber>
		LCD_voidPositionSet(1,0);
    3b22:	81 e0       	ldi	r24, 0x01	; 1
    3b24:	60 e0       	ldi	r22, 0x00	; 0
    3b26:	0e 94 2b 1b 	call	0x3656	; 0x3656 <LCD_voidPositionSet>
		LCD_voidSendString2("ON LEDs:");
    3b2a:	88 e0       	ldi	r24, 0x08	; 8
    3b2c:	91 e0       	ldi	r25, 0x01	; 1
    3b2e:	0e 94 7c 1c 	call	0x38f8	; 0x38f8 <LCD_voidSendString2>
		LCD_voidPositionSet(1,12);
    3b32:	81 e0       	ldi	r24, 0x01	; 1
    3b34:	6c e0       	ldi	r22, 0x0C	; 12
    3b36:	0e 94 2b 1b 	call	0x3656	; 0x3656 <LCD_voidPositionSet>
		LCD_voidSendNumber(Local_u8ONLEDsNumber);
    3b3a:	8a 81       	ldd	r24, Y+2	; 0x02
    3b3c:	88 2f       	mov	r24, r24
    3b3e:	90 e0       	ldi	r25, 0x00	; 0
    3b40:	a0 e0       	ldi	r26, 0x00	; 0
    3b42:	b0 e0       	ldi	r27, 0x00	; 0
    3b44:	bc 01       	movw	r22, r24
    3b46:	cd 01       	movw	r24, r26
    3b48:	0e 94 89 1b 	call	0x3712	; 0x3712 <LCD_voidSendNumber>

		/*Delay in ms using Timer2*/
		Timer_t Timer2= {TIMER_CTC,PRSCLR_DIV_BY_8,OCM_DISCONNECT,INT_DISABLE,INT_DISABLE};
    3b4c:	ce 01       	movw	r24, r28
    3b4e:	05 96       	adiw	r24, 0x05	; 5
    3b50:	9d 87       	std	Y+13, r25	; 0x0d
    3b52:	8c 87       	std	Y+12, r24	; 0x0c
    3b54:	e8 e2       	ldi	r30, 0x28	; 40
    3b56:	f3 e0       	ldi	r31, 0x03	; 3
    3b58:	ff 87       	std	Y+15, r31	; 0x0f
    3b5a:	ee 87       	std	Y+14, r30	; 0x0e
    3b5c:	f5 e0       	ldi	r31, 0x05	; 5
    3b5e:	f8 8b       	std	Y+16, r31	; 0x10
    3b60:	ee 85       	ldd	r30, Y+14	; 0x0e
    3b62:	ff 85       	ldd	r31, Y+15	; 0x0f
    3b64:	00 80       	ld	r0, Z
    3b66:	8e 85       	ldd	r24, Y+14	; 0x0e
    3b68:	9f 85       	ldd	r25, Y+15	; 0x0f
    3b6a:	01 96       	adiw	r24, 0x01	; 1
    3b6c:	9f 87       	std	Y+15, r25	; 0x0f
    3b6e:	8e 87       	std	Y+14, r24	; 0x0e
    3b70:	ec 85       	ldd	r30, Y+12	; 0x0c
    3b72:	fd 85       	ldd	r31, Y+13	; 0x0d
    3b74:	00 82       	st	Z, r0
    3b76:	8c 85       	ldd	r24, Y+12	; 0x0c
    3b78:	9d 85       	ldd	r25, Y+13	; 0x0d
    3b7a:	01 96       	adiw	r24, 0x01	; 1
    3b7c:	9d 87       	std	Y+13, r25	; 0x0d
    3b7e:	8c 87       	std	Y+12, r24	; 0x0c
    3b80:	98 89       	ldd	r25, Y+16	; 0x10
    3b82:	91 50       	subi	r25, 0x01	; 1
    3b84:	98 8b       	std	Y+16, r25	; 0x10
    3b86:	e8 89       	ldd	r30, Y+16	; 0x10
    3b88:	ee 23       	and	r30, r30
    3b8a:	51 f7       	brne	.-44     	; 0x3b60 <LDR_u8TurnedOnLEDsNumber+0x11a>
		TIMER2_u8Init(&Timer2);
    3b8c:	ce 01       	movw	r24, r28
    3b8e:	05 96       	adiw	r24, 0x05	; 5
    3b90:	0e 94 f3 26 	call	0x4de6	; 0x4de6 <TIMER2_u8Init>
		TIMER2_delay_ms(&Timer2,250);
    3b94:	ce 01       	movw	r24, r28
    3b96:	05 96       	adiw	r24, 0x05	; 5
    3b98:	6a ef       	ldi	r22, 0xFA	; 250
    3b9a:	70 e0       	ldi	r23, 0x00	; 0
    3b9c:	0e 94 31 28 	call	0x5062	; 0x5062 <TIMER2_delay_ms>
		LCD_voidClearDisplay();
    3ba0:	0e 94 72 1c 	call	0x38e4	; 0x38e4 <LCD_voidClearDisplay>
    3ba4:	02 c0       	rjmp	.+4      	; 0x3baa <LDR_u8TurnedOnLEDsNumber+0x164>
	}
	else
	{
		Local_u8ErrorState=NOK;
    3ba6:	81 e0       	ldi	r24, 0x01	; 1
    3ba8:	8c 83       	std	Y+4, r24	; 0x04
	}
	return Local_u8ErrorState;
    3baa:	8c 81       	ldd	r24, Y+4	; 0x04
}
    3bac:	60 96       	adiw	r28, 0x10	; 16
    3bae:	0f b6       	in	r0, 0x3f	; 63
    3bb0:	f8 94       	cli
    3bb2:	de bf       	out	0x3e, r29	; 62
    3bb4:	0f be       	out	0x3f, r0	; 63
    3bb6:	cd bf       	out	0x3d, r28	; 61
    3bb8:	cf 91       	pop	r28
    3bba:	df 91       	pop	r29
    3bbc:	1f 91       	pop	r17
    3bbe:	0f 91       	pop	r16
    3bc0:	ff 90       	pop	r15
    3bc2:	ef 90       	pop	r14
    3bc4:	df 90       	pop	r13
    3bc6:	cf 90       	pop	r12
    3bc8:	bf 90       	pop	r11
    3bca:	af 90       	pop	r10
    3bcc:	08 95       	ret

00003bce <MATH_s32Map>:
 */
#include "STD_TYPES.h"
#include "BIT_MATH.h"
#include "MATH_HELPER.h"

s32 MATH_s32Map(s32 Copy_s32InputMin,s32 Copy_s32InputMax,s32 Copy_s32OutputMin,s32 Copy_s32OutputMax,s32 Copy_s32InputVal){
    3bce:	af 92       	push	r10
    3bd0:	bf 92       	push	r11
    3bd2:	cf 92       	push	r12
    3bd4:	df 92       	push	r13
    3bd6:	ef 92       	push	r14
    3bd8:	ff 92       	push	r15
    3bda:	0f 93       	push	r16
    3bdc:	1f 93       	push	r17
    3bde:	df 93       	push	r29
    3be0:	cf 93       	push	r28
    3be2:	cd b7       	in	r28, 0x3d	; 61
    3be4:	de b7       	in	r29, 0x3e	; 62
    3be6:	64 97       	sbiw	r28, 0x14	; 20
    3be8:	0f b6       	in	r0, 0x3f	; 63
    3bea:	f8 94       	cli
    3bec:	de bf       	out	0x3e, r29	; 62
    3bee:	0f be       	out	0x3f, r0	; 63
    3bf0:	cd bf       	out	0x3d, r28	; 61
    3bf2:	6d 83       	std	Y+5, r22	; 0x05
    3bf4:	7e 83       	std	Y+6, r23	; 0x06
    3bf6:	8f 83       	std	Y+7, r24	; 0x07
    3bf8:	98 87       	std	Y+8, r25	; 0x08
    3bfa:	29 87       	std	Y+9, r18	; 0x09
    3bfc:	3a 87       	std	Y+10, r19	; 0x0a
    3bfe:	4b 87       	std	Y+11, r20	; 0x0b
    3c00:	5c 87       	std	Y+12, r21	; 0x0c
    3c02:	ed 86       	std	Y+13, r14	; 0x0d
    3c04:	fe 86       	std	Y+14, r15	; 0x0e
    3c06:	0f 87       	std	Y+15, r16	; 0x0f
    3c08:	18 8b       	std	Y+16, r17	; 0x10
    3c0a:	a9 8a       	std	Y+17, r10	; 0x11
    3c0c:	ba 8a       	std	Y+18, r11	; 0x12
    3c0e:	cb 8a       	std	Y+19, r12	; 0x13
    3c10:	dc 8a       	std	Y+20, r13	; 0x14

	s32 Local_s32OutputVal;

    Local_s32OutputVal=(((Copy_s32OutputMax-Copy_s32OutputMin)*(Copy_s32InputVal-Copy_s32InputMin))/(Copy_s32InputMax-Copy_s32InputMin))+Copy_s32OutputMin;
    3c12:	29 89       	ldd	r18, Y+17	; 0x11
    3c14:	3a 89       	ldd	r19, Y+18	; 0x12
    3c16:	4b 89       	ldd	r20, Y+19	; 0x13
    3c18:	5c 89       	ldd	r21, Y+20	; 0x14
    3c1a:	8d 85       	ldd	r24, Y+13	; 0x0d
    3c1c:	9e 85       	ldd	r25, Y+14	; 0x0e
    3c1e:	af 85       	ldd	r26, Y+15	; 0x0f
    3c20:	b8 89       	ldd	r27, Y+16	; 0x10
    3c22:	79 01       	movw	r14, r18
    3c24:	8a 01       	movw	r16, r20
    3c26:	e8 1a       	sub	r14, r24
    3c28:	f9 0a       	sbc	r15, r25
    3c2a:	0a 0b       	sbc	r16, r26
    3c2c:	1b 0b       	sbc	r17, r27
    3c2e:	29 a1       	ldd	r18, Y+33	; 0x21
    3c30:	3a a1       	ldd	r19, Y+34	; 0x22
    3c32:	4b a1       	ldd	r20, Y+35	; 0x23
    3c34:	5c a1       	ldd	r21, Y+36	; 0x24
    3c36:	8d 81       	ldd	r24, Y+5	; 0x05
    3c38:	9e 81       	ldd	r25, Y+6	; 0x06
    3c3a:	af 81       	ldd	r26, Y+7	; 0x07
    3c3c:	b8 85       	ldd	r27, Y+8	; 0x08
    3c3e:	28 1b       	sub	r18, r24
    3c40:	39 0b       	sbc	r19, r25
    3c42:	4a 0b       	sbc	r20, r26
    3c44:	5b 0b       	sbc	r21, r27
    3c46:	c8 01       	movw	r24, r16
    3c48:	b7 01       	movw	r22, r14
    3c4a:	0e 94 e8 3c 	call	0x79d0	; 0x79d0 <__mulsi3>
    3c4e:	7b 01       	movw	r14, r22
    3c50:	8c 01       	movw	r16, r24
    3c52:	29 85       	ldd	r18, Y+9	; 0x09
    3c54:	3a 85       	ldd	r19, Y+10	; 0x0a
    3c56:	4b 85       	ldd	r20, Y+11	; 0x0b
    3c58:	5c 85       	ldd	r21, Y+12	; 0x0c
    3c5a:	8d 81       	ldd	r24, Y+5	; 0x05
    3c5c:	9e 81       	ldd	r25, Y+6	; 0x06
    3c5e:	af 81       	ldd	r26, Y+7	; 0x07
    3c60:	b8 85       	ldd	r27, Y+8	; 0x08
    3c62:	28 1b       	sub	r18, r24
    3c64:	39 0b       	sbc	r19, r25
    3c66:	4a 0b       	sbc	r20, r26
    3c68:	5b 0b       	sbc	r21, r27
    3c6a:	c8 01       	movw	r24, r16
    3c6c:	b7 01       	movw	r22, r14
    3c6e:	0e 94 3d 3d 	call	0x7a7a	; 0x7a7a <__divmodsi4>
    3c72:	da 01       	movw	r26, r20
    3c74:	c9 01       	movw	r24, r18
    3c76:	9c 01       	movw	r18, r24
    3c78:	ad 01       	movw	r20, r26
    3c7a:	8d 85       	ldd	r24, Y+13	; 0x0d
    3c7c:	9e 85       	ldd	r25, Y+14	; 0x0e
    3c7e:	af 85       	ldd	r26, Y+15	; 0x0f
    3c80:	b8 89       	ldd	r27, Y+16	; 0x10
    3c82:	82 0f       	add	r24, r18
    3c84:	93 1f       	adc	r25, r19
    3c86:	a4 1f       	adc	r26, r20
    3c88:	b5 1f       	adc	r27, r21
    3c8a:	89 83       	std	Y+1, r24	; 0x01
    3c8c:	9a 83       	std	Y+2, r25	; 0x02
    3c8e:	ab 83       	std	Y+3, r26	; 0x03
    3c90:	bc 83       	std	Y+4, r27	; 0x04

    return Local_s32OutputVal;
    3c92:	89 81       	ldd	r24, Y+1	; 0x01
    3c94:	9a 81       	ldd	r25, Y+2	; 0x02
    3c96:	ab 81       	ldd	r26, Y+3	; 0x03
    3c98:	bc 81       	ldd	r27, Y+4	; 0x04
}
    3c9a:	bc 01       	movw	r22, r24
    3c9c:	cd 01       	movw	r24, r26
    3c9e:	64 96       	adiw	r28, 0x14	; 20
    3ca0:	0f b6       	in	r0, 0x3f	; 63
    3ca2:	f8 94       	cli
    3ca4:	de bf       	out	0x3e, r29	; 62
    3ca6:	0f be       	out	0x3f, r0	; 63
    3ca8:	cd bf       	out	0x3d, r28	; 61
    3caa:	cf 91       	pop	r28
    3cac:	df 91       	pop	r29
    3cae:	1f 91       	pop	r17
    3cb0:	0f 91       	pop	r16
    3cb2:	ff 90       	pop	r15
    3cb4:	ef 90       	pop	r14
    3cb6:	df 90       	pop	r13
    3cb8:	cf 90       	pop	r12
    3cba:	bf 90       	pop	r11
    3cbc:	af 90       	pop	r10
    3cbe:	08 95       	ret

00003cc0 <PORT_voidInit>:
#include "PORT_interface.h"


/**/
void PORT_voidInit(void)
{
    3cc0:	df 93       	push	r29
    3cc2:	cf 93       	push	r28
    3cc4:	cd b7       	in	r28, 0x3d	; 61
    3cc6:	de b7       	in	r29, 0x3e	; 62
	DDRA = PORTA_DIR;
    3cc8:	ea e3       	ldi	r30, 0x3A	; 58
    3cca:	f0 e0       	ldi	r31, 0x00	; 0
    3ccc:	8f ee       	ldi	r24, 0xEF	; 239
    3cce:	80 83       	st	Z, r24
	DDRB = PORTB_DIR;
    3cd0:	e7 e3       	ldi	r30, 0x37	; 55
    3cd2:	f0 e0       	ldi	r31, 0x00	; 0
    3cd4:	8f e0       	ldi	r24, 0x0F	; 15
    3cd6:	80 83       	st	Z, r24
	DDRC = PORTC_DIR;
    3cd8:	e4 e3       	ldi	r30, 0x34	; 52
    3cda:	f0 e0       	ldi	r31, 0x00	; 0
    3cdc:	8f ef       	ldi	r24, 0xFF	; 255
    3cde:	80 83       	st	Z, r24
	DDRD = PORTD_DIR;
    3ce0:	e1 e3       	ldi	r30, 0x31	; 49
    3ce2:	f0 e0       	ldi	r31, 0x00	; 0
    3ce4:	8a eb       	ldi	r24, 0xBA	; 186
    3ce6:	80 83       	st	Z, r24

	PORTA = PORTA_INITIAL_VALUE;
    3ce8:	eb e3       	ldi	r30, 0x3B	; 59
    3cea:	f0 e0       	ldi	r31, 0x00	; 0
    3cec:	10 82       	st	Z, r1
	PORTB = PORTB_INITIAL_VALUE;
    3cee:	e8 e3       	ldi	r30, 0x38	; 56
    3cf0:	f0 e0       	ldi	r31, 0x00	; 0
    3cf2:	8f ef       	ldi	r24, 0xFF	; 255
    3cf4:	80 83       	st	Z, r24
	PORTC = PORTC_INITIAL_VALUE;
    3cf6:	e5 e3       	ldi	r30, 0x35	; 53
    3cf8:	f0 e0       	ldi	r31, 0x00	; 0
    3cfa:	8f ef       	ldi	r24, 0xFF	; 255
    3cfc:	80 83       	st	Z, r24
	PORTD = PORTD_INITIAL_VALUE;
    3cfe:	e2 e3       	ldi	r30, 0x32	; 50
    3d00:	f0 e0       	ldi	r31, 0x00	; 0
    3d02:	8c ef       	ldi	r24, 0xFC	; 252
    3d04:	80 83       	st	Z, r24
}
    3d06:	cf 91       	pop	r28
    3d08:	df 91       	pop	r29
    3d0a:	08 95       	ret

00003d0c <SERVO_u8Rotate>:
#include "MATH_HELPER.h"

#include "TIMER_interface.h"

u8 SERVO_u8Rotate(u8 Copy_u8Degree,Timer1_t* Copy_psTimer)
{
    3d0c:	af 92       	push	r10
    3d0e:	bf 92       	push	r11
    3d10:	cf 92       	push	r12
    3d12:	df 92       	push	r13
    3d14:	ef 92       	push	r14
    3d16:	ff 92       	push	r15
    3d18:	0f 93       	push	r16
    3d1a:	1f 93       	push	r17
    3d1c:	df 93       	push	r29
    3d1e:	cf 93       	push	r28
    3d20:	00 d0       	rcall	.+0      	; 0x3d22 <SERVO_u8Rotate+0x16>
    3d22:	00 d0       	rcall	.+0      	; 0x3d24 <SERVO_u8Rotate+0x18>
    3d24:	00 d0       	rcall	.+0      	; 0x3d26 <SERVO_u8Rotate+0x1a>
    3d26:	cd b7       	in	r28, 0x3d	; 61
    3d28:	de b7       	in	r29, 0x3e	; 62
    3d2a:	8c 83       	std	Y+4, r24	; 0x04
    3d2c:	7e 83       	std	Y+6, r23	; 0x06
    3d2e:	6d 83       	std	Y+5, r22	; 0x05
	u8 Local_u8ErrorState;
	if(Copy_psTimer!=NULL)
    3d30:	8d 81       	ldd	r24, Y+5	; 0x05
    3d32:	9e 81       	ldd	r25, Y+6	; 0x06
    3d34:	00 97       	sbiw	r24, 0x00	; 0
    3d36:	f1 f1       	breq	.+124    	; 0x3db4 <SERVO_u8Rotate+0xa8>
	{
		u16 Local_u16OnTime=MATH_s32Map(0,180,400,2700,Copy_u8Degree);
    3d38:	8c 81       	ldd	r24, Y+4	; 0x04
    3d3a:	88 2f       	mov	r24, r24
    3d3c:	90 e0       	ldi	r25, 0x00	; 0
    3d3e:	a0 e0       	ldi	r26, 0x00	; 0
    3d40:	b0 e0       	ldi	r27, 0x00	; 0
    3d42:	00 d0       	rcall	.+0      	; 0x3d44 <SERVO_u8Rotate+0x38>
    3d44:	00 d0       	rcall	.+0      	; 0x3d46 <SERVO_u8Rotate+0x3a>
    3d46:	ed b7       	in	r30, 0x3d	; 61
    3d48:	fe b7       	in	r31, 0x3e	; 62
    3d4a:	31 96       	adiw	r30, 0x01	; 1
    3d4c:	80 83       	st	Z, r24
    3d4e:	91 83       	std	Z+1, r25	; 0x01
    3d50:	a2 83       	std	Z+2, r26	; 0x02
    3d52:	b3 83       	std	Z+3, r27	; 0x03
    3d54:	60 e0       	ldi	r22, 0x00	; 0
    3d56:	70 e0       	ldi	r23, 0x00	; 0
    3d58:	80 e0       	ldi	r24, 0x00	; 0
    3d5a:	90 e0       	ldi	r25, 0x00	; 0
    3d5c:	24 eb       	ldi	r18, 0xB4	; 180
    3d5e:	30 e0       	ldi	r19, 0x00	; 0
    3d60:	40 e0       	ldi	r20, 0x00	; 0
    3d62:	50 e0       	ldi	r21, 0x00	; 0
    3d64:	0f 2e       	mov	r0, r31
    3d66:	f0 e9       	ldi	r31, 0x90	; 144
    3d68:	ef 2e       	mov	r14, r31
    3d6a:	f1 e0       	ldi	r31, 0x01	; 1
    3d6c:	ff 2e       	mov	r15, r31
    3d6e:	f0 e0       	ldi	r31, 0x00	; 0
    3d70:	0f 2f       	mov	r16, r31
    3d72:	f0 e0       	ldi	r31, 0x00	; 0
    3d74:	1f 2f       	mov	r17, r31
    3d76:	f0 2d       	mov	r31, r0
    3d78:	0f 2e       	mov	r0, r31
    3d7a:	fc e8       	ldi	r31, 0x8C	; 140
    3d7c:	af 2e       	mov	r10, r31
    3d7e:	fa e0       	ldi	r31, 0x0A	; 10
    3d80:	bf 2e       	mov	r11, r31
    3d82:	f0 e0       	ldi	r31, 0x00	; 0
    3d84:	cf 2e       	mov	r12, r31
    3d86:	f0 e0       	ldi	r31, 0x00	; 0
    3d88:	df 2e       	mov	r13, r31
    3d8a:	f0 2d       	mov	r31, r0
    3d8c:	0e 94 e7 1d 	call	0x3bce	; 0x3bce <MATH_s32Map>
    3d90:	0f 90       	pop	r0
    3d92:	0f 90       	pop	r0
    3d94:	0f 90       	pop	r0
    3d96:	0f 90       	pop	r0
    3d98:	dc 01       	movw	r26, r24
    3d9a:	cb 01       	movw	r24, r22
    3d9c:	9a 83       	std	Y+2, r25	; 0x02
    3d9e:	89 83       	std	Y+1, r24	; 0x01
		TIMER1_u8HWPWMGenerate(Copy_psTimer,20000,Local_u16OnTime);
    3da0:	8d 81       	ldd	r24, Y+5	; 0x05
    3da2:	9e 81       	ldd	r25, Y+6	; 0x06
    3da4:	29 81       	ldd	r18, Y+1	; 0x01
    3da6:	3a 81       	ldd	r19, Y+2	; 0x02
    3da8:	60 e2       	ldi	r22, 0x20	; 32
    3daa:	7e e4       	ldi	r23, 0x4E	; 78
    3dac:	a9 01       	movw	r20, r18
    3dae:	0e 94 72 25 	call	0x4ae4	; 0x4ae4 <TIMER1_u8HWPWMGenerate>
    3db2:	02 c0       	rjmp	.+4      	; 0x3db8 <SERVO_u8Rotate+0xac>
	}
	else
	{
		Local_u8ErrorState=NULL_POINTER;
    3db4:	82 e0       	ldi	r24, 0x02	; 2
    3db6:	8b 83       	std	Y+3, r24	; 0x03
	}
	return Local_u8ErrorState;
    3db8:	8b 81       	ldd	r24, Y+3	; 0x03
}
    3dba:	26 96       	adiw	r28, 0x06	; 6
    3dbc:	0f b6       	in	r0, 0x3f	; 63
    3dbe:	f8 94       	cli
    3dc0:	de bf       	out	0x3e, r29	; 62
    3dc2:	0f be       	out	0x3f, r0	; 63
    3dc4:	cd bf       	out	0x3d, r28	; 61
    3dc6:	cf 91       	pop	r28
    3dc8:	df 91       	pop	r29
    3dca:	1f 91       	pop	r17
    3dcc:	0f 91       	pop	r16
    3dce:	ff 90       	pop	r15
    3dd0:	ef 90       	pop	r14
    3dd2:	df 90       	pop	r13
    3dd4:	cf 90       	pop	r12
    3dd6:	bf 90       	pop	r11
    3dd8:	af 90       	pop	r10
    3dda:	08 95       	ret

00003ddc <TIMER2_voidScheduleFunc>:
static u32 TIMER_u32ScheduleCompMatchCount;
static u8 TIMER_u8ScheduleRepeatability;

/*************************************************************************************************************************/
static void TIMER2_voidScheduleFunc(void)
{
    3ddc:	df 93       	push	r29
    3dde:	cf 93       	push	r28
    3de0:	cd b7       	in	r28, 0x3d	; 61
    3de2:	de b7       	in	r29, 0x3e	; 62
	static u32 Local_u32Counter=0;
	Local_u32Counter++;
    3de4:	80 91 74 03 	lds	r24, 0x0374
    3de8:	90 91 75 03 	lds	r25, 0x0375
    3dec:	a0 91 76 03 	lds	r26, 0x0376
    3df0:	b0 91 77 03 	lds	r27, 0x0377
    3df4:	01 96       	adiw	r24, 0x01	; 1
    3df6:	a1 1d       	adc	r26, r1
    3df8:	b1 1d       	adc	r27, r1
    3dfa:	80 93 74 03 	sts	0x0374, r24
    3dfe:	90 93 75 03 	sts	0x0375, r25
    3e02:	a0 93 76 03 	sts	0x0376, r26
    3e06:	b0 93 77 03 	sts	0x0377, r27
	if(Local_u32Counter==TIMER_u32ScheduleCompMatchCount)
    3e0a:	20 91 74 03 	lds	r18, 0x0374
    3e0e:	30 91 75 03 	lds	r19, 0x0375
    3e12:	40 91 76 03 	lds	r20, 0x0376
    3e16:	50 91 77 03 	lds	r21, 0x0377
    3e1a:	80 91 78 03 	lds	r24, 0x0378
    3e1e:	90 91 79 03 	lds	r25, 0x0379
    3e22:	a0 91 7a 03 	lds	r26, 0x037A
    3e26:	b0 91 7b 03 	lds	r27, 0x037B
    3e2a:	28 17       	cp	r18, r24
    3e2c:	39 07       	cpc	r19, r25
    3e2e:	4a 07       	cpc	r20, r26
    3e30:	5b 07       	cpc	r21, r27
    3e32:	f1 f4       	brne	.+60     	; 0x3e70 <TIMER2_voidScheduleFunc+0x94>
	{
		TIMER2_pvScheduleFunc();
    3e34:	e0 91 72 03 	lds	r30, 0x0372
    3e38:	f0 91 73 03 	lds	r31, 0x0373
    3e3c:	09 95       	icall
		Local_u32Counter=0;
    3e3e:	10 92 74 03 	sts	0x0374, r1
    3e42:	10 92 75 03 	sts	0x0375, r1
    3e46:	10 92 76 03 	sts	0x0376, r1
    3e4a:	10 92 77 03 	sts	0x0377, r1
		if(TIMER_u8ScheduleRepeatability==REPEAT_ONCE)
    3e4e:	80 91 7c 03 	lds	r24, 0x037C
    3e52:	81 30       	cpi	r24, 0x01	; 1
    3e54:	29 f4       	brne	.+10     	; 0x3e60 <TIMER2_voidScheduleFunc+0x84>
		{
			TIMER_u8SetIntStatus(INT_TIMER2_COMP,INT_DISABLE);
    3e56:	80 e0       	ldi	r24, 0x00	; 0
    3e58:	62 e0       	ldi	r22, 0x02	; 2
    3e5a:	0e 94 2f 20 	call	0x405e	; 0x405e <TIMER_u8SetIntStatus>
    3e5e:	08 c0       	rjmp	.+16     	; 0x3e70 <TIMER2_voidScheduleFunc+0x94>
		}
		else if(TIMER_u8ScheduleRepeatability==REPEAT_PERIODIC)
    3e60:	80 91 7c 03 	lds	r24, 0x037C
    3e64:	82 30       	cpi	r24, 0x02	; 2
    3e66:	21 f4       	brne	.+8      	; 0x3e70 <TIMER2_voidScheduleFunc+0x94>
		{
			TIMER_u8SetIntStatus(INT_TIMER2_COMP,INT_ENABLE);
    3e68:	80 e0       	ldi	r24, 0x00	; 0
    3e6a:	61 e0       	ldi	r22, 0x01	; 1
    3e6c:	0e 94 2f 20 	call	0x405e	; 0x405e <TIMER_u8SetIntStatus>
		}
	}
}
    3e70:	cf 91       	pop	r28
    3e72:	df 91       	pop	r29
    3e74:	08 95       	ret

00003e76 <TIMER_u8SetTimerVal>:

/********************************************************GENERAL TIMER FUNCTIONS*****************************************/
/************************************************************************************************************************/
/*This Function Generally Accesses -> TIMER COUNTER Register */
u8 TIMER_u8SetTimerVal(u8 Copy_u8TimerID,u16 Copy_u16Value)
{
    3e76:	df 93       	push	r29
    3e78:	cf 93       	push	r28
    3e7a:	00 d0       	rcall	.+0      	; 0x3e7c <TIMER_u8SetTimerVal+0x6>
    3e7c:	00 d0       	rcall	.+0      	; 0x3e7e <TIMER_u8SetTimerVal+0x8>
    3e7e:	00 d0       	rcall	.+0      	; 0x3e80 <TIMER_u8SetTimerVal+0xa>
    3e80:	cd b7       	in	r28, 0x3d	; 61
    3e82:	de b7       	in	r29, 0x3e	; 62
    3e84:	8a 83       	std	Y+2, r24	; 0x02
    3e86:	7c 83       	std	Y+4, r23	; 0x04
    3e88:	6b 83       	std	Y+3, r22	; 0x03
	u8 Local_u8ErrorState=OK;
    3e8a:	19 82       	std	Y+1, r1	; 0x01
	switch(Copy_u8TimerID)
    3e8c:	8a 81       	ldd	r24, Y+2	; 0x02
    3e8e:	28 2f       	mov	r18, r24
    3e90:	30 e0       	ldi	r19, 0x00	; 0
    3e92:	3e 83       	std	Y+6, r19	; 0x06
    3e94:	2d 83       	std	Y+5, r18	; 0x05
    3e96:	8d 81       	ldd	r24, Y+5	; 0x05
    3e98:	9e 81       	ldd	r25, Y+6	; 0x06
    3e9a:	83 30       	cpi	r24, 0x03	; 3
    3e9c:	91 05       	cpc	r25, r1
    3e9e:	b9 f0       	breq	.+46     	; 0x3ece <TIMER_u8SetTimerVal+0x58>
    3ea0:	2d 81       	ldd	r18, Y+5	; 0x05
    3ea2:	3e 81       	ldd	r19, Y+6	; 0x06
    3ea4:	24 30       	cpi	r18, 0x04	; 4
    3ea6:	31 05       	cpc	r19, r1
    3ea8:	c9 f0       	breq	.+50     	; 0x3edc <TIMER_u8SetTimerVal+0x66>
    3eaa:	8d 81       	ldd	r24, Y+5	; 0x05
    3eac:	9e 81       	ldd	r25, Y+6	; 0x06
    3eae:	00 97       	sbiw	r24, 0x00	; 0
    3eb0:	19 f5       	brne	.+70     	; 0x3ef8 <TIMER_u8SetTimerVal+0x82>
	{
	case TIMER0 : if(Copy_u16Value<256){TCNT0  = Copy_u16Value;} else{Local_u8ErrorState=NOK;} break;
    3eb2:	8b 81       	ldd	r24, Y+3	; 0x03
    3eb4:	9c 81       	ldd	r25, Y+4	; 0x04
    3eb6:	8f 3f       	cpi	r24, 0xFF	; 255
    3eb8:	91 05       	cpc	r25, r1
    3eba:	09 f0       	breq	.+2      	; 0x3ebe <TIMER_u8SetTimerVal+0x48>
    3ebc:	28 f4       	brcc	.+10     	; 0x3ec8 <TIMER_u8SetTimerVal+0x52>
    3ebe:	e2 e5       	ldi	r30, 0x52	; 82
    3ec0:	f0 e0       	ldi	r31, 0x00	; 0
    3ec2:	8b 81       	ldd	r24, Y+3	; 0x03
    3ec4:	80 83       	st	Z, r24
    3ec6:	1a c0       	rjmp	.+52     	; 0x3efc <TIMER_u8SetTimerVal+0x86>
    3ec8:	81 e0       	ldi	r24, 0x01	; 1
    3eca:	89 83       	std	Y+1, r24	; 0x01
    3ecc:	17 c0       	rjmp	.+46     	; 0x3efc <TIMER_u8SetTimerVal+0x86>
	case TIMER1 : TCNT1 = Copy_u16Value; break;
    3ece:	ec e4       	ldi	r30, 0x4C	; 76
    3ed0:	f0 e0       	ldi	r31, 0x00	; 0
    3ed2:	8b 81       	ldd	r24, Y+3	; 0x03
    3ed4:	9c 81       	ldd	r25, Y+4	; 0x04
    3ed6:	91 83       	std	Z+1, r25	; 0x01
    3ed8:	80 83       	st	Z, r24
    3eda:	10 c0       	rjmp	.+32     	; 0x3efc <TIMER_u8SetTimerVal+0x86>
	case TIMER2 : if(Copy_u16Value<256){TCNT2  = Copy_u16Value;} else{Local_u8ErrorState=NOK;} break;
    3edc:	8b 81       	ldd	r24, Y+3	; 0x03
    3ede:	9c 81       	ldd	r25, Y+4	; 0x04
    3ee0:	8f 3f       	cpi	r24, 0xFF	; 255
    3ee2:	91 05       	cpc	r25, r1
    3ee4:	09 f0       	breq	.+2      	; 0x3ee8 <TIMER_u8SetTimerVal+0x72>
    3ee6:	28 f4       	brcc	.+10     	; 0x3ef2 <TIMER_u8SetTimerVal+0x7c>
    3ee8:	e4 e4       	ldi	r30, 0x44	; 68
    3eea:	f0 e0       	ldi	r31, 0x00	; 0
    3eec:	8b 81       	ldd	r24, Y+3	; 0x03
    3eee:	80 83       	st	Z, r24
    3ef0:	05 c0       	rjmp	.+10     	; 0x3efc <TIMER_u8SetTimerVal+0x86>
    3ef2:	81 e0       	ldi	r24, 0x01	; 1
    3ef4:	89 83       	std	Y+1, r24	; 0x01
    3ef6:	02 c0       	rjmp	.+4      	; 0x3efc <TIMER_u8SetTimerVal+0x86>
	default: Local_u8ErrorState=NOK;
    3ef8:	81 e0       	ldi	r24, 0x01	; 1
    3efa:	89 83       	std	Y+1, r24	; 0x01
	}
	return Local_u8ErrorState;
    3efc:	89 81       	ldd	r24, Y+1	; 0x01
}
    3efe:	26 96       	adiw	r28, 0x06	; 6
    3f00:	0f b6       	in	r0, 0x3f	; 63
    3f02:	f8 94       	cli
    3f04:	de bf       	out	0x3e, r29	; 62
    3f06:	0f be       	out	0x3f, r0	; 63
    3f08:	cd bf       	out	0x3d, r28	; 61
    3f0a:	cf 91       	pop	r28
    3f0c:	df 91       	pop	r29
    3f0e:	08 95       	ret

00003f10 <TIMER_u8GetTimerVal>:
/************************************************************************************************************************/
/*This Function Generally Accesses -> TIMER/COUNTER Register */
u8 TIMER_u8GetTimerVal(u8 Copy_u8TimerID,u16* Copy_pu16Value)
{
    3f10:	df 93       	push	r29
    3f12:	cf 93       	push	r28
    3f14:	00 d0       	rcall	.+0      	; 0x3f16 <TIMER_u8GetTimerVal+0x6>
    3f16:	00 d0       	rcall	.+0      	; 0x3f18 <TIMER_u8GetTimerVal+0x8>
    3f18:	00 d0       	rcall	.+0      	; 0x3f1a <TIMER_u8GetTimerVal+0xa>
    3f1a:	cd b7       	in	r28, 0x3d	; 61
    3f1c:	de b7       	in	r29, 0x3e	; 62
    3f1e:	8a 83       	std	Y+2, r24	; 0x02
    3f20:	7c 83       	std	Y+4, r23	; 0x04
    3f22:	6b 83       	std	Y+3, r22	; 0x03
	u8 Local_u8ErrorState=OK;
    3f24:	19 82       	std	Y+1, r1	; 0x01
	switch(Copy_u8TimerID)
    3f26:	8a 81       	ldd	r24, Y+2	; 0x02
    3f28:	28 2f       	mov	r18, r24
    3f2a:	30 e0       	ldi	r19, 0x00	; 0
    3f2c:	3e 83       	std	Y+6, r19	; 0x06
    3f2e:	2d 83       	std	Y+5, r18	; 0x05
    3f30:	8d 81       	ldd	r24, Y+5	; 0x05
    3f32:	9e 81       	ldd	r25, Y+6	; 0x06
    3f34:	83 30       	cpi	r24, 0x03	; 3
    3f36:	91 05       	cpc	r25, r1
    3f38:	99 f0       	breq	.+38     	; 0x3f60 <TIMER_u8GetTimerVal+0x50>
    3f3a:	2d 81       	ldd	r18, Y+5	; 0x05
    3f3c:	3e 81       	ldd	r19, Y+6	; 0x06
    3f3e:	24 30       	cpi	r18, 0x04	; 4
    3f40:	31 05       	cpc	r19, r1
    3f42:	b9 f0       	breq	.+46     	; 0x3f72 <TIMER_u8GetTimerVal+0x62>
    3f44:	8d 81       	ldd	r24, Y+5	; 0x05
    3f46:	9e 81       	ldd	r25, Y+6	; 0x06
    3f48:	00 97       	sbiw	r24, 0x00	; 0
    3f4a:	e9 f4       	brne	.+58     	; 0x3f86 <TIMER_u8GetTimerVal+0x76>
	{
	case TIMER0 : *Copy_pu16Value = TCNT0 ; break;
    3f4c:	e2 e5       	ldi	r30, 0x52	; 82
    3f4e:	f0 e0       	ldi	r31, 0x00	; 0
    3f50:	80 81       	ld	r24, Z
    3f52:	88 2f       	mov	r24, r24
    3f54:	90 e0       	ldi	r25, 0x00	; 0
    3f56:	eb 81       	ldd	r30, Y+3	; 0x03
    3f58:	fc 81       	ldd	r31, Y+4	; 0x04
    3f5a:	91 83       	std	Z+1, r25	; 0x01
    3f5c:	80 83       	st	Z, r24
    3f5e:	15 c0       	rjmp	.+42     	; 0x3f8a <TIMER_u8GetTimerVal+0x7a>
	case TIMER1 : *Copy_pu16Value = TCNT1 ; break;
    3f60:	ec e4       	ldi	r30, 0x4C	; 76
    3f62:	f0 e0       	ldi	r31, 0x00	; 0
    3f64:	80 81       	ld	r24, Z
    3f66:	91 81       	ldd	r25, Z+1	; 0x01
    3f68:	eb 81       	ldd	r30, Y+3	; 0x03
    3f6a:	fc 81       	ldd	r31, Y+4	; 0x04
    3f6c:	91 83       	std	Z+1, r25	; 0x01
    3f6e:	80 83       	st	Z, r24
    3f70:	0c c0       	rjmp	.+24     	; 0x3f8a <TIMER_u8GetTimerVal+0x7a>
	case TIMER2 : *Copy_pu16Value = TCNT2 ; break;
    3f72:	e4 e4       	ldi	r30, 0x44	; 68
    3f74:	f0 e0       	ldi	r31, 0x00	; 0
    3f76:	80 81       	ld	r24, Z
    3f78:	88 2f       	mov	r24, r24
    3f7a:	90 e0       	ldi	r25, 0x00	; 0
    3f7c:	eb 81       	ldd	r30, Y+3	; 0x03
    3f7e:	fc 81       	ldd	r31, Y+4	; 0x04
    3f80:	91 83       	std	Z+1, r25	; 0x01
    3f82:	80 83       	st	Z, r24
    3f84:	02 c0       	rjmp	.+4      	; 0x3f8a <TIMER_u8GetTimerVal+0x7a>
	default: Local_u8ErrorState=NOK;
    3f86:	81 e0       	ldi	r24, 0x01	; 1
    3f88:	89 83       	std	Y+1, r24	; 0x01
	}
	return Local_u8ErrorState;
    3f8a:	89 81       	ldd	r24, Y+1	; 0x01
}
    3f8c:	26 96       	adiw	r28, 0x06	; 6
    3f8e:	0f b6       	in	r0, 0x3f	; 63
    3f90:	f8 94       	cli
    3f92:	de bf       	out	0x3e, r29	; 62
    3f94:	0f be       	out	0x3f, r0	; 63
    3f96:	cd bf       	out	0x3d, r28	; 61
    3f98:	cf 91       	pop	r28
    3f9a:	df 91       	pop	r29
    3f9c:	08 95       	ret

00003f9e <TIMER_u8SetCompMatch>:
/************************************************************************************************************************/
/*This Function Generally Accesses -> Output Compare Register */
u8 TIMER_u8SetCompMatch(u8 Copy_u8TimerID,u16 Copy_u16Value)
{
    3f9e:	df 93       	push	r29
    3fa0:	cf 93       	push	r28
    3fa2:	00 d0       	rcall	.+0      	; 0x3fa4 <TIMER_u8SetCompMatch+0x6>
    3fa4:	00 d0       	rcall	.+0      	; 0x3fa6 <TIMER_u8SetCompMatch+0x8>
    3fa6:	00 d0       	rcall	.+0      	; 0x3fa8 <TIMER_u8SetCompMatch+0xa>
    3fa8:	cd b7       	in	r28, 0x3d	; 61
    3faa:	de b7       	in	r29, 0x3e	; 62
    3fac:	8a 83       	std	Y+2, r24	; 0x02
    3fae:	7c 83       	std	Y+4, r23	; 0x04
    3fb0:	6b 83       	std	Y+3, r22	; 0x03
	u8 Local_u8ErrorState=OK;
    3fb2:	19 82       	std	Y+1, r1	; 0x01
	switch(Copy_u8TimerID)
    3fb4:	8a 81       	ldd	r24, Y+2	; 0x02
    3fb6:	28 2f       	mov	r18, r24
    3fb8:	30 e0       	ldi	r19, 0x00	; 0
    3fba:	3e 83       	std	Y+6, r19	; 0x06
    3fbc:	2d 83       	std	Y+5, r18	; 0x05
    3fbe:	8d 81       	ldd	r24, Y+5	; 0x05
    3fc0:	9e 81       	ldd	r25, Y+6	; 0x06
    3fc2:	81 30       	cpi	r24, 0x01	; 1
    3fc4:	91 05       	cpc	r25, r1
    3fc6:	19 f1       	breq	.+70     	; 0x400e <TIMER_u8SetCompMatch+0x70>
    3fc8:	2d 81       	ldd	r18, Y+5	; 0x05
    3fca:	3e 81       	ldd	r19, Y+6	; 0x06
    3fcc:	22 30       	cpi	r18, 0x02	; 2
    3fce:	31 05       	cpc	r19, r1
    3fd0:	2c f4       	brge	.+10     	; 0x3fdc <TIMER_u8SetCompMatch+0x3e>
    3fd2:	8d 81       	ldd	r24, Y+5	; 0x05
    3fd4:	9e 81       	ldd	r25, Y+6	; 0x06
    3fd6:	00 97       	sbiw	r24, 0x00	; 0
    3fd8:	61 f0       	breq	.+24     	; 0x3ff2 <TIMER_u8SetCompMatch+0x54>
    3fda:	35 c0       	rjmp	.+106    	; 0x4046 <TIMER_u8SetCompMatch+0xa8>
    3fdc:	2d 81       	ldd	r18, Y+5	; 0x05
    3fde:	3e 81       	ldd	r19, Y+6	; 0x06
    3fe0:	22 30       	cpi	r18, 0x02	; 2
    3fe2:	31 05       	cpc	r19, r1
    3fe4:	d9 f0       	breq	.+54     	; 0x401c <TIMER_u8SetCompMatch+0x7e>
    3fe6:	8d 81       	ldd	r24, Y+5	; 0x05
    3fe8:	9e 81       	ldd	r25, Y+6	; 0x06
    3fea:	84 30       	cpi	r24, 0x04	; 4
    3fec:	91 05       	cpc	r25, r1
    3fee:	e9 f0       	breq	.+58     	; 0x402a <TIMER_u8SetCompMatch+0x8c>
    3ff0:	2a c0       	rjmp	.+84     	; 0x4046 <TIMER_u8SetCompMatch+0xa8>
	{
	case TIMER0  : if(Copy_u16Value<256){OCR0  = Copy_u16Value;} else{Local_u8ErrorState=NOK;} break;
    3ff2:	8b 81       	ldd	r24, Y+3	; 0x03
    3ff4:	9c 81       	ldd	r25, Y+4	; 0x04
    3ff6:	8f 3f       	cpi	r24, 0xFF	; 255
    3ff8:	91 05       	cpc	r25, r1
    3ffa:	09 f0       	breq	.+2      	; 0x3ffe <TIMER_u8SetCompMatch+0x60>
    3ffc:	28 f4       	brcc	.+10     	; 0x4008 <TIMER_u8SetCompMatch+0x6a>
    3ffe:	ec e5       	ldi	r30, 0x5C	; 92
    4000:	f0 e0       	ldi	r31, 0x00	; 0
    4002:	8b 81       	ldd	r24, Y+3	; 0x03
    4004:	80 83       	st	Z, r24
    4006:	21 c0       	rjmp	.+66     	; 0x404a <TIMER_u8SetCompMatch+0xac>
    4008:	81 e0       	ldi	r24, 0x01	; 1
    400a:	89 83       	std	Y+1, r24	; 0x01
    400c:	1e c0       	rjmp	.+60     	; 0x404a <TIMER_u8SetCompMatch+0xac>
	case TIMER1A : OCR1A = Copy_u16Value; break;
    400e:	ea e4       	ldi	r30, 0x4A	; 74
    4010:	f0 e0       	ldi	r31, 0x00	; 0
    4012:	8b 81       	ldd	r24, Y+3	; 0x03
    4014:	9c 81       	ldd	r25, Y+4	; 0x04
    4016:	91 83       	std	Z+1, r25	; 0x01
    4018:	80 83       	st	Z, r24
    401a:	17 c0       	rjmp	.+46     	; 0x404a <TIMER_u8SetCompMatch+0xac>
	case TIMER1B : OCR1B = Copy_u16Value; break;
    401c:	e8 e4       	ldi	r30, 0x48	; 72
    401e:	f0 e0       	ldi	r31, 0x00	; 0
    4020:	8b 81       	ldd	r24, Y+3	; 0x03
    4022:	9c 81       	ldd	r25, Y+4	; 0x04
    4024:	91 83       	std	Z+1, r25	; 0x01
    4026:	80 83       	st	Z, r24
    4028:	10 c0       	rjmp	.+32     	; 0x404a <TIMER_u8SetCompMatch+0xac>
	case TIMER2  : if(Copy_u16Value<256){OCR2  = Copy_u16Value;} else{Local_u8ErrorState=NOK;} break;
    402a:	8b 81       	ldd	r24, Y+3	; 0x03
    402c:	9c 81       	ldd	r25, Y+4	; 0x04
    402e:	8f 3f       	cpi	r24, 0xFF	; 255
    4030:	91 05       	cpc	r25, r1
    4032:	09 f0       	breq	.+2      	; 0x4036 <TIMER_u8SetCompMatch+0x98>
    4034:	28 f4       	brcc	.+10     	; 0x4040 <TIMER_u8SetCompMatch+0xa2>
    4036:	e3 e4       	ldi	r30, 0x43	; 67
    4038:	f0 e0       	ldi	r31, 0x00	; 0
    403a:	8b 81       	ldd	r24, Y+3	; 0x03
    403c:	80 83       	st	Z, r24
    403e:	05 c0       	rjmp	.+10     	; 0x404a <TIMER_u8SetCompMatch+0xac>
    4040:	81 e0       	ldi	r24, 0x01	; 1
    4042:	89 83       	std	Y+1, r24	; 0x01
    4044:	02 c0       	rjmp	.+4      	; 0x404a <TIMER_u8SetCompMatch+0xac>
	default: Local_u8ErrorState=NOK;
    4046:	81 e0       	ldi	r24, 0x01	; 1
    4048:	89 83       	std	Y+1, r24	; 0x01
	}
	return Local_u8ErrorState;
    404a:	89 81       	ldd	r24, Y+1	; 0x01
}
    404c:	26 96       	adiw	r28, 0x06	; 6
    404e:	0f b6       	in	r0, 0x3f	; 63
    4050:	f8 94       	cli
    4052:	de bf       	out	0x3e, r29	; 62
    4054:	0f be       	out	0x3f, r0	; 63
    4056:	cd bf       	out	0x3d, r28	; 61
    4058:	cf 91       	pop	r28
    405a:	df 91       	pop	r29
    405c:	08 95       	ret

0000405e <TIMER_u8SetIntStatus>:
/************************************************************************************************************************/
/*This Function Generally Accesses -> Timer/Counter Interrupt Mask Register*/
u8 TIMER_u8SetIntStatus(u8 Copy_u8InterruptID, u8 Copy_u8Status)
{
    405e:	df 93       	push	r29
    4060:	cf 93       	push	r28
    4062:	cd b7       	in	r28, 0x3d	; 61
    4064:	de b7       	in	r29, 0x3e	; 62
    4066:	27 97       	sbiw	r28, 0x07	; 7
    4068:	0f b6       	in	r0, 0x3f	; 63
    406a:	f8 94       	cli
    406c:	de bf       	out	0x3e, r29	; 62
    406e:	0f be       	out	0x3f, r0	; 63
    4070:	cd bf       	out	0x3d, r28	; 61
    4072:	8a 83       	std	Y+2, r24	; 0x02
    4074:	6b 83       	std	Y+3, r22	; 0x03
	u8 Local_u8ErrorState=OK;
    4076:	19 82       	std	Y+1, r1	; 0x01
	if(Copy_u8Status==INT_ENABLE)
    4078:	8b 81       	ldd	r24, Y+3	; 0x03
    407a:	81 30       	cpi	r24, 0x01	; 1
    407c:	09 f0       	breq	.+2      	; 0x4080 <TIMER_u8SetIntStatus+0x22>
    407e:	77 c0       	rjmp	.+238    	; 0x416e <TIMER_u8SetIntStatus+0x110>
	{
		switch(Copy_u8InterruptID)
    4080:	8a 81       	ldd	r24, Y+2	; 0x02
    4082:	28 2f       	mov	r18, r24
    4084:	30 e0       	ldi	r19, 0x00	; 0
    4086:	3f 83       	std	Y+7, r19	; 0x07
    4088:	2e 83       	std	Y+6, r18	; 0x06
    408a:	8e 81       	ldd	r24, Y+6	; 0x06
    408c:	9f 81       	ldd	r25, Y+7	; 0x07
    408e:	83 30       	cpi	r24, 0x03	; 3
    4090:	91 05       	cpc	r25, r1
    4092:	09 f4       	brne	.+2      	; 0x4096 <TIMER_u8SetIntStatus+0x38>
    4094:	41 c0       	rjmp	.+130    	; 0x4118 <TIMER_u8SetIntStatus+0xba>
    4096:	2e 81       	ldd	r18, Y+6	; 0x06
    4098:	3f 81       	ldd	r19, Y+7	; 0x07
    409a:	24 30       	cpi	r18, 0x04	; 4
    409c:	31 05       	cpc	r19, r1
    409e:	7c f4       	brge	.+30     	; 0x40be <TIMER_u8SetIntStatus+0x60>
    40a0:	8e 81       	ldd	r24, Y+6	; 0x06
    40a2:	9f 81       	ldd	r25, Y+7	; 0x07
    40a4:	81 30       	cpi	r24, 0x01	; 1
    40a6:	91 05       	cpc	r25, r1
    40a8:	39 f1       	breq	.+78     	; 0x40f8 <TIMER_u8SetIntStatus+0x9a>
    40aa:	2e 81       	ldd	r18, Y+6	; 0x06
    40ac:	3f 81       	ldd	r19, Y+7	; 0x07
    40ae:	22 30       	cpi	r18, 0x02	; 2
    40b0:	31 05       	cpc	r19, r1
    40b2:	d4 f5       	brge	.+116    	; 0x4128 <TIMER_u8SetIntStatus+0xca>
    40b4:	8e 81       	ldd	r24, Y+6	; 0x06
    40b6:	9f 81       	ldd	r25, Y+7	; 0x07
    40b8:	00 97       	sbiw	r24, 0x00	; 0
    40ba:	b1 f0       	breq	.+44     	; 0x40e8 <TIMER_u8SetIntStatus+0x8a>
    40bc:	55 c0       	rjmp	.+170    	; 0x4168 <TIMER_u8SetIntStatus+0x10a>
    40be:	2e 81       	ldd	r18, Y+6	; 0x06
    40c0:	3f 81       	ldd	r19, Y+7	; 0x07
    40c2:	25 30       	cpi	r18, 0x05	; 5
    40c4:	31 05       	cpc	r19, r1
    40c6:	c1 f1       	breq	.+112    	; 0x4138 <TIMER_u8SetIntStatus+0xda>
    40c8:	8e 81       	ldd	r24, Y+6	; 0x06
    40ca:	9f 81       	ldd	r25, Y+7	; 0x07
    40cc:	85 30       	cpi	r24, 0x05	; 5
    40ce:	91 05       	cpc	r25, r1
    40d0:	dc f0       	brlt	.+54     	; 0x4108 <TIMER_u8SetIntStatus+0xaa>
    40d2:	2e 81       	ldd	r18, Y+6	; 0x06
    40d4:	3f 81       	ldd	r19, Y+7	; 0x07
    40d6:	26 30       	cpi	r18, 0x06	; 6
    40d8:	31 05       	cpc	r19, r1
    40da:	b1 f1       	breq	.+108    	; 0x4148 <TIMER_u8SetIntStatus+0xea>
    40dc:	8e 81       	ldd	r24, Y+6	; 0x06
    40de:	9f 81       	ldd	r25, Y+7	; 0x07
    40e0:	87 30       	cpi	r24, 0x07	; 7
    40e2:	91 05       	cpc	r25, r1
    40e4:	c9 f1       	breq	.+114    	; 0x4158 <TIMER_u8SetIntStatus+0xfa>
    40e6:	40 c0       	rjmp	.+128    	; 0x4168 <TIMER_u8SetIntStatus+0x10a>
		{
		case  INT_TIMER2_COMP	: SET_BIT(TIMSK,TIMSK_OCIE2 );break;
    40e8:	a9 e5       	ldi	r26, 0x59	; 89
    40ea:	b0 e0       	ldi	r27, 0x00	; 0
    40ec:	e9 e5       	ldi	r30, 0x59	; 89
    40ee:	f0 e0       	ldi	r31, 0x00	; 0
    40f0:	80 81       	ld	r24, Z
    40f2:	80 68       	ori	r24, 0x80	; 128
    40f4:	8c 93       	st	X, r24
    40f6:	b8 c0       	rjmp	.+368    	; 0x4268 <TIMER_u8SetIntStatus+0x20a>
		case  INT_TIMER2_OVF	: SET_BIT(TIMSK,TIMSK_TOIE2 );break;
    40f8:	a9 e5       	ldi	r26, 0x59	; 89
    40fa:	b0 e0       	ldi	r27, 0x00	; 0
    40fc:	e9 e5       	ldi	r30, 0x59	; 89
    40fe:	f0 e0       	ldi	r31, 0x00	; 0
    4100:	80 81       	ld	r24, Z
    4102:	80 64       	ori	r24, 0x40	; 64
    4104:	8c 93       	st	X, r24
    4106:	b0 c0       	rjmp	.+352    	; 0x4268 <TIMER_u8SetIntStatus+0x20a>
		case  INT_TIMER1_CAPT	: SET_BIT(TIMSK,TIMSK_TICIE1);break;
    4108:	a9 e5       	ldi	r26, 0x59	; 89
    410a:	b0 e0       	ldi	r27, 0x00	; 0
    410c:	e9 e5       	ldi	r30, 0x59	; 89
    410e:	f0 e0       	ldi	r31, 0x00	; 0
    4110:	80 81       	ld	r24, Z
    4112:	80 62       	ori	r24, 0x20	; 32
    4114:	8c 93       	st	X, r24
    4116:	a8 c0       	rjmp	.+336    	; 0x4268 <TIMER_u8SetIntStatus+0x20a>
		case  INT_TIMER1A_COMP	: SET_BIT(TIMSK,TIMSK_OCIE1A);break;
    4118:	a9 e5       	ldi	r26, 0x59	; 89
    411a:	b0 e0       	ldi	r27, 0x00	; 0
    411c:	e9 e5       	ldi	r30, 0x59	; 89
    411e:	f0 e0       	ldi	r31, 0x00	; 0
    4120:	80 81       	ld	r24, Z
    4122:	80 61       	ori	r24, 0x10	; 16
    4124:	8c 93       	st	X, r24
    4126:	a0 c0       	rjmp	.+320    	; 0x4268 <TIMER_u8SetIntStatus+0x20a>
		case  INT_TIMER1B_COMP  : SET_BIT(TIMSK,TIMSK_OCIE1B);break;
    4128:	a9 e5       	ldi	r26, 0x59	; 89
    412a:	b0 e0       	ldi	r27, 0x00	; 0
    412c:	e9 e5       	ldi	r30, 0x59	; 89
    412e:	f0 e0       	ldi	r31, 0x00	; 0
    4130:	80 81       	ld	r24, Z
    4132:	88 60       	ori	r24, 0x08	; 8
    4134:	8c 93       	st	X, r24
    4136:	98 c0       	rjmp	.+304    	; 0x4268 <TIMER_u8SetIntStatus+0x20a>
		case  INT_TIMER1_OVF 	: SET_BIT(TIMSK,TIMSK_TOIE1 );break;
    4138:	a9 e5       	ldi	r26, 0x59	; 89
    413a:	b0 e0       	ldi	r27, 0x00	; 0
    413c:	e9 e5       	ldi	r30, 0x59	; 89
    413e:	f0 e0       	ldi	r31, 0x00	; 0
    4140:	80 81       	ld	r24, Z
    4142:	84 60       	ori	r24, 0x04	; 4
    4144:	8c 93       	st	X, r24
    4146:	90 c0       	rjmp	.+288    	; 0x4268 <TIMER_u8SetIntStatus+0x20a>
		case  INT_TIMER0_COMP	: SET_BIT(TIMSK,TIMSK_OCIE0 );break;
    4148:	a9 e5       	ldi	r26, 0x59	; 89
    414a:	b0 e0       	ldi	r27, 0x00	; 0
    414c:	e9 e5       	ldi	r30, 0x59	; 89
    414e:	f0 e0       	ldi	r31, 0x00	; 0
    4150:	80 81       	ld	r24, Z
    4152:	82 60       	ori	r24, 0x02	; 2
    4154:	8c 93       	st	X, r24
    4156:	88 c0       	rjmp	.+272    	; 0x4268 <TIMER_u8SetIntStatus+0x20a>
		case  INT_TIMER0_OVF	: SET_BIT(TIMSK,TIMSK_TOIE0 );break;
    4158:	a9 e5       	ldi	r26, 0x59	; 89
    415a:	b0 e0       	ldi	r27, 0x00	; 0
    415c:	e9 e5       	ldi	r30, 0x59	; 89
    415e:	f0 e0       	ldi	r31, 0x00	; 0
    4160:	80 81       	ld	r24, Z
    4162:	81 60       	ori	r24, 0x01	; 1
    4164:	8c 93       	st	X, r24
    4166:	80 c0       	rjmp	.+256    	; 0x4268 <TIMER_u8SetIntStatus+0x20a>
		default : Local_u8ErrorState=NOK;
    4168:	81 e0       	ldi	r24, 0x01	; 1
    416a:	89 83       	std	Y+1, r24	; 0x01
    416c:	7d c0       	rjmp	.+250    	; 0x4268 <TIMER_u8SetIntStatus+0x20a>
		}
	}
	else if(Copy_u8Status==INT_DISABLE)
    416e:	8b 81       	ldd	r24, Y+3	; 0x03
    4170:	82 30       	cpi	r24, 0x02	; 2
    4172:	09 f0       	breq	.+2      	; 0x4176 <TIMER_u8SetIntStatus+0x118>
    4174:	77 c0       	rjmp	.+238    	; 0x4264 <TIMER_u8SetIntStatus+0x206>
	{
		switch(Copy_u8InterruptID)
    4176:	8a 81       	ldd	r24, Y+2	; 0x02
    4178:	28 2f       	mov	r18, r24
    417a:	30 e0       	ldi	r19, 0x00	; 0
    417c:	3d 83       	std	Y+5, r19	; 0x05
    417e:	2c 83       	std	Y+4, r18	; 0x04
    4180:	8c 81       	ldd	r24, Y+4	; 0x04
    4182:	9d 81       	ldd	r25, Y+5	; 0x05
    4184:	83 30       	cpi	r24, 0x03	; 3
    4186:	91 05       	cpc	r25, r1
    4188:	09 f4       	brne	.+2      	; 0x418c <TIMER_u8SetIntStatus+0x12e>
    418a:	41 c0       	rjmp	.+130    	; 0x420e <TIMER_u8SetIntStatus+0x1b0>
    418c:	2c 81       	ldd	r18, Y+4	; 0x04
    418e:	3d 81       	ldd	r19, Y+5	; 0x05
    4190:	24 30       	cpi	r18, 0x04	; 4
    4192:	31 05       	cpc	r19, r1
    4194:	7c f4       	brge	.+30     	; 0x41b4 <TIMER_u8SetIntStatus+0x156>
    4196:	8c 81       	ldd	r24, Y+4	; 0x04
    4198:	9d 81       	ldd	r25, Y+5	; 0x05
    419a:	81 30       	cpi	r24, 0x01	; 1
    419c:	91 05       	cpc	r25, r1
    419e:	39 f1       	breq	.+78     	; 0x41ee <TIMER_u8SetIntStatus+0x190>
    41a0:	2c 81       	ldd	r18, Y+4	; 0x04
    41a2:	3d 81       	ldd	r19, Y+5	; 0x05
    41a4:	22 30       	cpi	r18, 0x02	; 2
    41a6:	31 05       	cpc	r19, r1
    41a8:	d4 f5       	brge	.+116    	; 0x421e <TIMER_u8SetIntStatus+0x1c0>
    41aa:	8c 81       	ldd	r24, Y+4	; 0x04
    41ac:	9d 81       	ldd	r25, Y+5	; 0x05
    41ae:	00 97       	sbiw	r24, 0x00	; 0
    41b0:	b1 f0       	breq	.+44     	; 0x41de <TIMER_u8SetIntStatus+0x180>
    41b2:	55 c0       	rjmp	.+170    	; 0x425e <TIMER_u8SetIntStatus+0x200>
    41b4:	2c 81       	ldd	r18, Y+4	; 0x04
    41b6:	3d 81       	ldd	r19, Y+5	; 0x05
    41b8:	25 30       	cpi	r18, 0x05	; 5
    41ba:	31 05       	cpc	r19, r1
    41bc:	c1 f1       	breq	.+112    	; 0x422e <TIMER_u8SetIntStatus+0x1d0>
    41be:	8c 81       	ldd	r24, Y+4	; 0x04
    41c0:	9d 81       	ldd	r25, Y+5	; 0x05
    41c2:	85 30       	cpi	r24, 0x05	; 5
    41c4:	91 05       	cpc	r25, r1
    41c6:	dc f0       	brlt	.+54     	; 0x41fe <TIMER_u8SetIntStatus+0x1a0>
    41c8:	2c 81       	ldd	r18, Y+4	; 0x04
    41ca:	3d 81       	ldd	r19, Y+5	; 0x05
    41cc:	26 30       	cpi	r18, 0x06	; 6
    41ce:	31 05       	cpc	r19, r1
    41d0:	b1 f1       	breq	.+108    	; 0x423e <TIMER_u8SetIntStatus+0x1e0>
    41d2:	8c 81       	ldd	r24, Y+4	; 0x04
    41d4:	9d 81       	ldd	r25, Y+5	; 0x05
    41d6:	87 30       	cpi	r24, 0x07	; 7
    41d8:	91 05       	cpc	r25, r1
    41da:	c9 f1       	breq	.+114    	; 0x424e <TIMER_u8SetIntStatus+0x1f0>
    41dc:	40 c0       	rjmp	.+128    	; 0x425e <TIMER_u8SetIntStatus+0x200>
		{
		case  INT_TIMER2_COMP	: CLR_BIT(TIMSK,TIMSK_OCIE2 );break;
    41de:	a9 e5       	ldi	r26, 0x59	; 89
    41e0:	b0 e0       	ldi	r27, 0x00	; 0
    41e2:	e9 e5       	ldi	r30, 0x59	; 89
    41e4:	f0 e0       	ldi	r31, 0x00	; 0
    41e6:	80 81       	ld	r24, Z
    41e8:	8f 77       	andi	r24, 0x7F	; 127
    41ea:	8c 93       	st	X, r24
    41ec:	3d c0       	rjmp	.+122    	; 0x4268 <TIMER_u8SetIntStatus+0x20a>
		case  INT_TIMER2_OVF	: CLR_BIT(TIMSK,TIMSK_TOIE2 );break;
    41ee:	a9 e5       	ldi	r26, 0x59	; 89
    41f0:	b0 e0       	ldi	r27, 0x00	; 0
    41f2:	e9 e5       	ldi	r30, 0x59	; 89
    41f4:	f0 e0       	ldi	r31, 0x00	; 0
    41f6:	80 81       	ld	r24, Z
    41f8:	8f 7b       	andi	r24, 0xBF	; 191
    41fa:	8c 93       	st	X, r24
    41fc:	35 c0       	rjmp	.+106    	; 0x4268 <TIMER_u8SetIntStatus+0x20a>
		case  INT_TIMER1_CAPT	: CLR_BIT(TIMSK,TIMSK_TICIE1);break;
    41fe:	a9 e5       	ldi	r26, 0x59	; 89
    4200:	b0 e0       	ldi	r27, 0x00	; 0
    4202:	e9 e5       	ldi	r30, 0x59	; 89
    4204:	f0 e0       	ldi	r31, 0x00	; 0
    4206:	80 81       	ld	r24, Z
    4208:	8f 7d       	andi	r24, 0xDF	; 223
    420a:	8c 93       	st	X, r24
    420c:	2d c0       	rjmp	.+90     	; 0x4268 <TIMER_u8SetIntStatus+0x20a>
		case  INT_TIMER1A_COMP	: CLR_BIT(TIMSK,TIMSK_OCIE1A);break;
    420e:	a9 e5       	ldi	r26, 0x59	; 89
    4210:	b0 e0       	ldi	r27, 0x00	; 0
    4212:	e9 e5       	ldi	r30, 0x59	; 89
    4214:	f0 e0       	ldi	r31, 0x00	; 0
    4216:	80 81       	ld	r24, Z
    4218:	8f 7e       	andi	r24, 0xEF	; 239
    421a:	8c 93       	st	X, r24
    421c:	25 c0       	rjmp	.+74     	; 0x4268 <TIMER_u8SetIntStatus+0x20a>
		case  INT_TIMER1B_COMP  : CLR_BIT(TIMSK,TIMSK_OCIE1B);break;
    421e:	a9 e5       	ldi	r26, 0x59	; 89
    4220:	b0 e0       	ldi	r27, 0x00	; 0
    4222:	e9 e5       	ldi	r30, 0x59	; 89
    4224:	f0 e0       	ldi	r31, 0x00	; 0
    4226:	80 81       	ld	r24, Z
    4228:	87 7f       	andi	r24, 0xF7	; 247
    422a:	8c 93       	st	X, r24
    422c:	1d c0       	rjmp	.+58     	; 0x4268 <TIMER_u8SetIntStatus+0x20a>
		case  INT_TIMER1_OVF 	: CLR_BIT(TIMSK,TIMSK_TOIE1 );break;
    422e:	a9 e5       	ldi	r26, 0x59	; 89
    4230:	b0 e0       	ldi	r27, 0x00	; 0
    4232:	e9 e5       	ldi	r30, 0x59	; 89
    4234:	f0 e0       	ldi	r31, 0x00	; 0
    4236:	80 81       	ld	r24, Z
    4238:	8b 7f       	andi	r24, 0xFB	; 251
    423a:	8c 93       	st	X, r24
    423c:	15 c0       	rjmp	.+42     	; 0x4268 <TIMER_u8SetIntStatus+0x20a>
		case  INT_TIMER0_COMP	: CLR_BIT(TIMSK,TIMSK_OCIE0 );break;
    423e:	a9 e5       	ldi	r26, 0x59	; 89
    4240:	b0 e0       	ldi	r27, 0x00	; 0
    4242:	e9 e5       	ldi	r30, 0x59	; 89
    4244:	f0 e0       	ldi	r31, 0x00	; 0
    4246:	80 81       	ld	r24, Z
    4248:	8d 7f       	andi	r24, 0xFD	; 253
    424a:	8c 93       	st	X, r24
    424c:	0d c0       	rjmp	.+26     	; 0x4268 <TIMER_u8SetIntStatus+0x20a>
		case  INT_TIMER0_OVF	: CLR_BIT(TIMSK,TIMSK_TOIE0 );break;
    424e:	a9 e5       	ldi	r26, 0x59	; 89
    4250:	b0 e0       	ldi	r27, 0x00	; 0
    4252:	e9 e5       	ldi	r30, 0x59	; 89
    4254:	f0 e0       	ldi	r31, 0x00	; 0
    4256:	80 81       	ld	r24, Z
    4258:	8e 7f       	andi	r24, 0xFE	; 254
    425a:	8c 93       	st	X, r24
    425c:	05 c0       	rjmp	.+10     	; 0x4268 <TIMER_u8SetIntStatus+0x20a>
		default : Local_u8ErrorState=NOK;
    425e:	81 e0       	ldi	r24, 0x01	; 1
    4260:	89 83       	std	Y+1, r24	; 0x01
    4262:	02 c0       	rjmp	.+4      	; 0x4268 <TIMER_u8SetIntStatus+0x20a>
		}
	}
	else{
		Local_u8ErrorState=NOK;
    4264:	81 e0       	ldi	r24, 0x01	; 1
    4266:	89 83       	std	Y+1, r24	; 0x01
	}
	return Local_u8ErrorState;
    4268:	89 81       	ldd	r24, Y+1	; 0x01
}
    426a:	27 96       	adiw	r28, 0x07	; 7
    426c:	0f b6       	in	r0, 0x3f	; 63
    426e:	f8 94       	cli
    4270:	de bf       	out	0x3e, r29	; 62
    4272:	0f be       	out	0x3f, r0	; 63
    4274:	cd bf       	out	0x3d, r28	; 61
    4276:	cf 91       	pop	r28
    4278:	df 91       	pop	r29
    427a:	08 95       	ret

0000427c <TIMER0_u8Init>:
/********************************************************TIMER0**********************************************************
 ************************************************************************************************************************/

/*Timer0 Initialization*/
u8 TIMER0_u8Init(Timer_t* Copy_psTimer)
{
    427c:	df 93       	push	r29
    427e:	cf 93       	push	r28
    4280:	00 d0       	rcall	.+0      	; 0x4282 <TIMER0_u8Init+0x6>
    4282:	0f 92       	push	r0
    4284:	cd b7       	in	r28, 0x3d	; 61
    4286:	de b7       	in	r29, 0x3e	; 62
    4288:	9b 83       	std	Y+3, r25	; 0x03
    428a:	8a 83       	std	Y+2, r24	; 0x02
	u8 Local_u8ErrorState=OK;
    428c:	19 82       	std	Y+1, r1	; 0x01
	//Initialize Wave Generation Mode
	if(Copy_psTimer!=NULL)
    428e:	8a 81       	ldd	r24, Y+2	; 0x02
    4290:	9b 81       	ldd	r25, Y+3	; 0x03
    4292:	00 97       	sbiw	r24, 0x00	; 0
    4294:	09 f4       	brne	.+2      	; 0x4298 <TIMER0_u8Init+0x1c>
    4296:	b6 c0       	rjmp	.+364    	; 0x4404 <TIMER0_u8Init+0x188>
	{
		//Wave Generation Mode:-
		if(Copy_psTimer->WaveGenMode==TIMER_NORMAL)
    4298:	ea 81       	ldd	r30, Y+2	; 0x02
    429a:	fb 81       	ldd	r31, Y+3	; 0x03
    429c:	80 81       	ld	r24, Z
    429e:	81 30       	cpi	r24, 0x01	; 1
    42a0:	79 f4       	brne	.+30     	; 0x42c0 <TIMER0_u8Init+0x44>
		{
			CLR_BIT(TCCR0,TCCR0_WGM01);
    42a2:	a3 e5       	ldi	r26, 0x53	; 83
    42a4:	b0 e0       	ldi	r27, 0x00	; 0
    42a6:	e3 e5       	ldi	r30, 0x53	; 83
    42a8:	f0 e0       	ldi	r31, 0x00	; 0
    42aa:	80 81       	ld	r24, Z
    42ac:	87 7f       	andi	r24, 0xF7	; 247
    42ae:	8c 93       	st	X, r24
			CLR_BIT(TCCR0,TCCR0_WGM00);
    42b0:	a3 e5       	ldi	r26, 0x53	; 83
    42b2:	b0 e0       	ldi	r27, 0x00	; 0
    42b4:	e3 e5       	ldi	r30, 0x53	; 83
    42b6:	f0 e0       	ldi	r31, 0x00	; 0
    42b8:	80 81       	ld	r24, Z
    42ba:	8f 7b       	andi	r24, 0xBF	; 191
    42bc:	8c 93       	st	X, r24
    42be:	3e c0       	rjmp	.+124    	; 0x433c <TIMER0_u8Init+0xc0>
		}
		else if(Copy_psTimer->WaveGenMode==TIMER_PHC_PWM)
    42c0:	ea 81       	ldd	r30, Y+2	; 0x02
    42c2:	fb 81       	ldd	r31, Y+3	; 0x03
    42c4:	80 81       	ld	r24, Z
    42c6:	82 30       	cpi	r24, 0x02	; 2
    42c8:	79 f4       	brne	.+30     	; 0x42e8 <TIMER0_u8Init+0x6c>
		{
			CLR_BIT(TCCR0,TCCR0_WGM01);
    42ca:	a3 e5       	ldi	r26, 0x53	; 83
    42cc:	b0 e0       	ldi	r27, 0x00	; 0
    42ce:	e3 e5       	ldi	r30, 0x53	; 83
    42d0:	f0 e0       	ldi	r31, 0x00	; 0
    42d2:	80 81       	ld	r24, Z
    42d4:	87 7f       	andi	r24, 0xF7	; 247
    42d6:	8c 93       	st	X, r24
			SET_BIT(TCCR0,TCCR0_WGM00);
    42d8:	a3 e5       	ldi	r26, 0x53	; 83
    42da:	b0 e0       	ldi	r27, 0x00	; 0
    42dc:	e3 e5       	ldi	r30, 0x53	; 83
    42de:	f0 e0       	ldi	r31, 0x00	; 0
    42e0:	80 81       	ld	r24, Z
    42e2:	80 64       	ori	r24, 0x40	; 64
    42e4:	8c 93       	st	X, r24
    42e6:	2a c0       	rjmp	.+84     	; 0x433c <TIMER0_u8Init+0xc0>
		}
		else if(Copy_psTimer->WaveGenMode==TIMER_CTC)
    42e8:	ea 81       	ldd	r30, Y+2	; 0x02
    42ea:	fb 81       	ldd	r31, Y+3	; 0x03
    42ec:	80 81       	ld	r24, Z
    42ee:	83 30       	cpi	r24, 0x03	; 3
    42f0:	79 f4       	brne	.+30     	; 0x4310 <TIMER0_u8Init+0x94>
		{
			SET_BIT(TCCR0,TCCR0_WGM01);
    42f2:	a3 e5       	ldi	r26, 0x53	; 83
    42f4:	b0 e0       	ldi	r27, 0x00	; 0
    42f6:	e3 e5       	ldi	r30, 0x53	; 83
    42f8:	f0 e0       	ldi	r31, 0x00	; 0
    42fa:	80 81       	ld	r24, Z
    42fc:	88 60       	ori	r24, 0x08	; 8
    42fe:	8c 93       	st	X, r24
			CLR_BIT(TCCR0,TCCR0_WGM00);
    4300:	a3 e5       	ldi	r26, 0x53	; 83
    4302:	b0 e0       	ldi	r27, 0x00	; 0
    4304:	e3 e5       	ldi	r30, 0x53	; 83
    4306:	f0 e0       	ldi	r31, 0x00	; 0
    4308:	80 81       	ld	r24, Z
    430a:	8f 7b       	andi	r24, 0xBF	; 191
    430c:	8c 93       	st	X, r24
    430e:	16 c0       	rjmp	.+44     	; 0x433c <TIMER0_u8Init+0xc0>
		}
		else if(Copy_psTimer->WaveGenMode==TIMER_FAST_PWM)
    4310:	ea 81       	ldd	r30, Y+2	; 0x02
    4312:	fb 81       	ldd	r31, Y+3	; 0x03
    4314:	80 81       	ld	r24, Z
    4316:	84 30       	cpi	r24, 0x04	; 4
    4318:	79 f4       	brne	.+30     	; 0x4338 <TIMER0_u8Init+0xbc>
		{
			SET_BIT(TCCR0,TCCR0_WGM01);
    431a:	a3 e5       	ldi	r26, 0x53	; 83
    431c:	b0 e0       	ldi	r27, 0x00	; 0
    431e:	e3 e5       	ldi	r30, 0x53	; 83
    4320:	f0 e0       	ldi	r31, 0x00	; 0
    4322:	80 81       	ld	r24, Z
    4324:	88 60       	ori	r24, 0x08	; 8
    4326:	8c 93       	st	X, r24
			SET_BIT(TCCR0,TCCR0_WGM00);
    4328:	a3 e5       	ldi	r26, 0x53	; 83
    432a:	b0 e0       	ldi	r27, 0x00	; 0
    432c:	e3 e5       	ldi	r30, 0x53	; 83
    432e:	f0 e0       	ldi	r31, 0x00	; 0
    4330:	80 81       	ld	r24, Z
    4332:	80 64       	ori	r24, 0x40	; 64
    4334:	8c 93       	st	X, r24
    4336:	02 c0       	rjmp	.+4      	; 0x433c <TIMER0_u8Init+0xc0>
		}
		else
		{
			Local_u8ErrorState=NOK;
    4338:	81 e0       	ldi	r24, 0x01	; 1
    433a:	89 83       	std	Y+1, r24	; 0x01
		}
		//Initialize Compare Match Output Mode
		TCCR0&=COMP_MATCH_OUT_MASK;
    433c:	a3 e5       	ldi	r26, 0x53	; 83
    433e:	b0 e0       	ldi	r27, 0x00	; 0
    4340:	e3 e5       	ldi	r30, 0x53	; 83
    4342:	f0 e0       	ldi	r31, 0x00	; 0
    4344:	80 81       	ld	r24, Z
    4346:	8f 7c       	andi	r24, 0xCF	; 207
    4348:	8c 93       	st	X, r24
		//Set Comparea Match Mode:-
		TCCR0|=((Copy_psTimer->CompareMatchOutputMode)<<4);
    434a:	a3 e5       	ldi	r26, 0x53	; 83
    434c:	b0 e0       	ldi	r27, 0x00	; 0
    434e:	e3 e5       	ldi	r30, 0x53	; 83
    4350:	f0 e0       	ldi	r31, 0x00	; 0
    4352:	80 81       	ld	r24, Z
    4354:	28 2f       	mov	r18, r24
    4356:	ea 81       	ldd	r30, Y+2	; 0x02
    4358:	fb 81       	ldd	r31, Y+3	; 0x03
    435a:	82 81       	ldd	r24, Z+2	; 0x02
    435c:	88 2f       	mov	r24, r24
    435e:	90 e0       	ldi	r25, 0x00	; 0
    4360:	82 95       	swap	r24
    4362:	92 95       	swap	r25
    4364:	90 7f       	andi	r25, 0xF0	; 240
    4366:	98 27       	eor	r25, r24
    4368:	80 7f       	andi	r24, 0xF0	; 240
    436a:	98 27       	eor	r25, r24
    436c:	82 2b       	or	r24, r18
    436e:	8c 93       	st	X, r24
		//Initialize Interrupt Enable pins
		if(Copy_psTimer->CompareMatchInterrupt==INT_ENABLE)
    4370:	ea 81       	ldd	r30, Y+2	; 0x02
    4372:	fb 81       	ldd	r31, Y+3	; 0x03
    4374:	83 81       	ldd	r24, Z+3	; 0x03
    4376:	81 30       	cpi	r24, 0x01	; 1
    4378:	41 f4       	brne	.+16     	; 0x438a <TIMER0_u8Init+0x10e>
		{
			SET_BIT(TIMSK,TIMSK_OCIE0);
    437a:	a9 e5       	ldi	r26, 0x59	; 89
    437c:	b0 e0       	ldi	r27, 0x00	; 0
    437e:	e9 e5       	ldi	r30, 0x59	; 89
    4380:	f0 e0       	ldi	r31, 0x00	; 0
    4382:	80 81       	ld	r24, Z
    4384:	82 60       	ori	r24, 0x02	; 2
    4386:	8c 93       	st	X, r24
    4388:	0f c0       	rjmp	.+30     	; 0x43a8 <TIMER0_u8Init+0x12c>
		}
		else if(Copy_psTimer->CompareMatchInterrupt==INT_DISABLE)
    438a:	ea 81       	ldd	r30, Y+2	; 0x02
    438c:	fb 81       	ldd	r31, Y+3	; 0x03
    438e:	83 81       	ldd	r24, Z+3	; 0x03
    4390:	82 30       	cpi	r24, 0x02	; 2
    4392:	41 f4       	brne	.+16     	; 0x43a4 <TIMER0_u8Init+0x128>
		{
			CLR_BIT(TIMSK,TIMSK_OCIE0);
    4394:	a9 e5       	ldi	r26, 0x59	; 89
    4396:	b0 e0       	ldi	r27, 0x00	; 0
    4398:	e9 e5       	ldi	r30, 0x59	; 89
    439a:	f0 e0       	ldi	r31, 0x00	; 0
    439c:	80 81       	ld	r24, Z
    439e:	8d 7f       	andi	r24, 0xFD	; 253
    43a0:	8c 93       	st	X, r24
    43a2:	02 c0       	rjmp	.+4      	; 0x43a8 <TIMER0_u8Init+0x12c>
		}
		else
		{
			Local_u8ErrorState=NOK;
    43a4:	81 e0       	ldi	r24, 0x01	; 1
    43a6:	89 83       	std	Y+1, r24	; 0x01
		}

		if(Copy_psTimer->OverFlowInterrupt==INT_ENABLE)
    43a8:	ea 81       	ldd	r30, Y+2	; 0x02
    43aa:	fb 81       	ldd	r31, Y+3	; 0x03
    43ac:	84 81       	ldd	r24, Z+4	; 0x04
    43ae:	81 30       	cpi	r24, 0x01	; 1
    43b0:	41 f4       	brne	.+16     	; 0x43c2 <TIMER0_u8Init+0x146>
		{
			SET_BIT(TIMSK,TIMSK_TOIE0);
    43b2:	a9 e5       	ldi	r26, 0x59	; 89
    43b4:	b0 e0       	ldi	r27, 0x00	; 0
    43b6:	e9 e5       	ldi	r30, 0x59	; 89
    43b8:	f0 e0       	ldi	r31, 0x00	; 0
    43ba:	80 81       	ld	r24, Z
    43bc:	81 60       	ori	r24, 0x01	; 1
    43be:	8c 93       	st	X, r24
    43c0:	0f c0       	rjmp	.+30     	; 0x43e0 <TIMER0_u8Init+0x164>
		}
		else if(Copy_psTimer->OverFlowInterrupt==INT_DISABLE)
    43c2:	ea 81       	ldd	r30, Y+2	; 0x02
    43c4:	fb 81       	ldd	r31, Y+3	; 0x03
    43c6:	84 81       	ldd	r24, Z+4	; 0x04
    43c8:	82 30       	cpi	r24, 0x02	; 2
    43ca:	41 f4       	brne	.+16     	; 0x43dc <TIMER0_u8Init+0x160>
		{
			CLR_BIT(TIMSK,TIMSK_TOIE0);
    43cc:	a9 e5       	ldi	r26, 0x59	; 89
    43ce:	b0 e0       	ldi	r27, 0x00	; 0
    43d0:	e9 e5       	ldi	r30, 0x59	; 89
    43d2:	f0 e0       	ldi	r31, 0x00	; 0
    43d4:	80 81       	ld	r24, Z
    43d6:	8e 7f       	andi	r24, 0xFE	; 254
    43d8:	8c 93       	st	X, r24
    43da:	02 c0       	rjmp	.+4      	; 0x43e0 <TIMER0_u8Init+0x164>
		}
		else{
			Local_u8ErrorState=NOK;
    43dc:	81 e0       	ldi	r24, 0x01	; 1
    43de:	89 83       	std	Y+1, r24	; 0x01
		}

		//Initialize Prescaler->> Start the Timer
		TCCR0&=PRESCALER_MASK;
    43e0:	a3 e5       	ldi	r26, 0x53	; 83
    43e2:	b0 e0       	ldi	r27, 0x00	; 0
    43e4:	e3 e5       	ldi	r30, 0x53	; 83
    43e6:	f0 e0       	ldi	r31, 0x00	; 0
    43e8:	80 81       	ld	r24, Z
    43ea:	88 7f       	andi	r24, 0xF8	; 248
    43ec:	8c 93       	st	X, r24
		TCCR0|=Copy_psTimer->Prescaler;
    43ee:	a3 e5       	ldi	r26, 0x53	; 83
    43f0:	b0 e0       	ldi	r27, 0x00	; 0
    43f2:	e3 e5       	ldi	r30, 0x53	; 83
    43f4:	f0 e0       	ldi	r31, 0x00	; 0
    43f6:	90 81       	ld	r25, Z
    43f8:	ea 81       	ldd	r30, Y+2	; 0x02
    43fa:	fb 81       	ldd	r31, Y+3	; 0x03
    43fc:	81 81       	ldd	r24, Z+1	; 0x01
    43fe:	89 2b       	or	r24, r25
    4400:	8c 93       	st	X, r24
    4402:	02 c0       	rjmp	.+4      	; 0x4408 <TIMER0_u8Init+0x18c>
	}
	else
	{
		Local_u8ErrorState=NULL_POINTER;
    4404:	82 e0       	ldi	r24, 0x02	; 2
    4406:	89 83       	std	Y+1, r24	; 0x01
	}
	return Local_u8ErrorState;
    4408:	89 81       	ldd	r24, Y+1	; 0x01
}
    440a:	0f 90       	pop	r0
    440c:	0f 90       	pop	r0
    440e:	0f 90       	pop	r0
    4410:	cf 91       	pop	r28
    4412:	df 91       	pop	r29
    4414:	08 95       	ret

00004416 <TIMER0_delay_ms>:

/*Timer0 delay_ms[Polling]*/
/*Block The System*/
/*Busy Waiting Function*/
u8 TIMER0_delay_ms(Timer_t* Copy_psTimer,u16 Copy_u16Time)
{
    4416:	df 93       	push	r29
    4418:	cf 93       	push	r28
    441a:	cd b7       	in	r28, 0x3d	; 61
    441c:	de b7       	in	r29, 0x3e	; 62
    441e:	6a 97       	sbiw	r28, 0x1a	; 26
    4420:	0f b6       	in	r0, 0x3f	; 63
    4422:	f8 94       	cli
    4424:	de bf       	out	0x3e, r29	; 62
    4426:	0f be       	out	0x3f, r0	; 63
    4428:	cd bf       	out	0x3d, r28	; 61
    442a:	9b 8b       	std	Y+19, r25	; 0x13
    442c:	8a 8b       	std	Y+18, r24	; 0x12
    442e:	7d 8b       	std	Y+21, r23	; 0x15
    4430:	6c 8b       	std	Y+20, r22	; 0x14
	u8 Local_u8ErrorState=OK,Local_u8Break=1; u16 Local_u16Counter=0;u32 Local_u32usTime,Local_u32CompMatchCount;
    4432:	1c 86       	std	Y+12, r1	; 0x0c
    4434:	81 e0       	ldi	r24, 0x01	; 1
    4436:	8b 87       	std	Y+11, r24	; 0x0b
    4438:	1a 86       	std	Y+10, r1	; 0x0a
    443a:	19 86       	std	Y+9, r1	; 0x09

	if(Copy_psTimer!=NULL)
    443c:	8a 89       	ldd	r24, Y+18	; 0x12
    443e:	9b 89       	ldd	r25, Y+19	; 0x13
    4440:	00 97       	sbiw	r24, 0x00	; 0
    4442:	09 f4       	brne	.+2      	; 0x4446 <TIMER0_delay_ms+0x30>
    4444:	84 c0       	rjmp	.+264    	; 0x454e <TIMER0_delay_ms+0x138>
	{
		/*Timer Object for The mode which I want*/
		Timer_t Timer ={TIMER_CTC,PRSCLR_DIV_BY_8,OCM_DISCONNECT,INT_DISABLE,INT_DISABLE};
    4446:	ce 01       	movw	r24, r28
    4448:	0d 96       	adiw	r24, 0x0d	; 13
    444a:	9f 8b       	std	Y+23, r25	; 0x17
    444c:	8e 8b       	std	Y+22, r24	; 0x16
    444e:	ed e2       	ldi	r30, 0x2D	; 45
    4450:	f3 e0       	ldi	r31, 0x03	; 3
    4452:	f9 8f       	std	Y+25, r31	; 0x19
    4454:	e8 8f       	std	Y+24, r30	; 0x18
    4456:	f5 e0       	ldi	r31, 0x05	; 5
    4458:	fa 8f       	std	Y+26, r31	; 0x1a
    445a:	e8 8d       	ldd	r30, Y+24	; 0x18
    445c:	f9 8d       	ldd	r31, Y+25	; 0x19
    445e:	00 80       	ld	r0, Z
    4460:	88 8d       	ldd	r24, Y+24	; 0x18
    4462:	99 8d       	ldd	r25, Y+25	; 0x19
    4464:	01 96       	adiw	r24, 0x01	; 1
    4466:	99 8f       	std	Y+25, r25	; 0x19
    4468:	88 8f       	std	Y+24, r24	; 0x18
    446a:	ee 89       	ldd	r30, Y+22	; 0x16
    446c:	ff 89       	ldd	r31, Y+23	; 0x17
    446e:	00 82       	st	Z, r0
    4470:	8e 89       	ldd	r24, Y+22	; 0x16
    4472:	9f 89       	ldd	r25, Y+23	; 0x17
    4474:	01 96       	adiw	r24, 0x01	; 1
    4476:	9f 8b       	std	Y+23, r25	; 0x17
    4478:	8e 8b       	std	Y+22, r24	; 0x16
    447a:	9a 8d       	ldd	r25, Y+26	; 0x1a
    447c:	91 50       	subi	r25, 0x01	; 1
    447e:	9a 8f       	std	Y+26, r25	; 0x1a
    4480:	ea 8d       	ldd	r30, Y+26	; 0x1a
    4482:	ee 23       	and	r30, r30
    4484:	51 f7       	brne	.-44     	; 0x445a <TIMER0_delay_ms+0x44>
		/*Set Compare Match Value
		Note That!! ->>> 1000%250=0 
		         &  ->>> 250 is The Largest Number from 0 to 255*/
		TIMER_u8SetCompMatch(TIMER0,250);
    4486:	80 e0       	ldi	r24, 0x00	; 0
    4488:	6a ef       	ldi	r22, 0xFA	; 250
    448a:	70 e0       	ldi	r23, 0x00	; 0
    448c:	0e 94 cf 1f 	call	0x3f9e	; 0x3f9e <TIMER_u8SetCompMatch>
		/*Convert delay time from ms to us*/
		Local_u32usTime=(u32)Copy_u16Time*1000UL;
    4490:	8c 89       	ldd	r24, Y+20	; 0x14
    4492:	9d 89       	ldd	r25, Y+21	; 0x15
    4494:	cc 01       	movw	r24, r24
    4496:	a0 e0       	ldi	r26, 0x00	; 0
    4498:	b0 e0       	ldi	r27, 0x00	; 0
    449a:	28 ee       	ldi	r18, 0xE8	; 232
    449c:	33 e0       	ldi	r19, 0x03	; 3
    449e:	40 e0       	ldi	r20, 0x00	; 0
    44a0:	50 e0       	ldi	r21, 0x00	; 0
    44a2:	bc 01       	movw	r22, r24
    44a4:	cd 01       	movw	r24, r26
    44a6:	0e 94 e8 3c 	call	0x79d0	; 0x79d0 <__mulsi3>
    44aa:	dc 01       	movw	r26, r24
    44ac:	cb 01       	movw	r24, r22
    44ae:	8d 83       	std	Y+5, r24	; 0x05
    44b0:	9e 83       	std	Y+6, r25	; 0x06
    44b2:	af 83       	std	Y+7, r26	; 0x07
    44b4:	b8 87       	std	Y+8, r27	; 0x08
		/*Compare Match Count:-*/
		Local_u32CompMatchCount=Local_u32usTime/250;
    44b6:	8d 81       	ldd	r24, Y+5	; 0x05
    44b8:	9e 81       	ldd	r25, Y+6	; 0x06
    44ba:	af 81       	ldd	r26, Y+7	; 0x07
    44bc:	b8 85       	ldd	r27, Y+8	; 0x08
    44be:	2a ef       	ldi	r18, 0xFA	; 250
    44c0:	30 e0       	ldi	r19, 0x00	; 0
    44c2:	40 e0       	ldi	r20, 0x00	; 0
    44c4:	50 e0       	ldi	r21, 0x00	; 0
    44c6:	bc 01       	movw	r22, r24
    44c8:	cd 01       	movw	r24, r26
    44ca:	0e 94 1b 3d 	call	0x7a36	; 0x7a36 <__udivmodsi4>
    44ce:	da 01       	movw	r26, r20
    44d0:	c9 01       	movw	r24, r18
    44d2:	89 83       	std	Y+1, r24	; 0x01
    44d4:	9a 83       	std	Y+2, r25	; 0x02
    44d6:	ab 83       	std	Y+3, r26	; 0x03
    44d8:	bc 83       	std	Y+4, r27	; 0x04
		/*Initialize the Timer which I need to do Delay*/
		TIMER0_u8Init(&Timer);
    44da:	ce 01       	movw	r24, r28
    44dc:	0d 96       	adiw	r24, 0x0d	; 13
    44de:	0e 94 3e 21 	call	0x427c	; 0x427c <TIMER0_u8Init>
    44e2:	2d c0       	rjmp	.+90     	; 0x453e <TIMER0_delay_ms+0x128>
		//Polling:-
		while(Local_u8Break==1)
		{
			/*check the Compare Match Event*/
			if(GET_BIT(TIFR,TIFR_OCF0)==1)
    44e4:	e8 e5       	ldi	r30, 0x58	; 88
    44e6:	f0 e0       	ldi	r31, 0x00	; 0
    44e8:	80 81       	ld	r24, Z
    44ea:	86 95       	lsr	r24
    44ec:	88 2f       	mov	r24, r24
    44ee:	90 e0       	ldi	r25, 0x00	; 0
    44f0:	81 70       	andi	r24, 0x01	; 1
    44f2:	90 70       	andi	r25, 0x00	; 0
    44f4:	88 23       	and	r24, r24
    44f6:	19 f1       	breq	.+70     	; 0x453e <TIMER0_delay_ms+0x128>
			{
				/*check if Delay Time reches or not*/
				if(Local_u16Counter==Local_u32CompMatchCount)
    44f8:	89 85       	ldd	r24, Y+9	; 0x09
    44fa:	9a 85       	ldd	r25, Y+10	; 0x0a
    44fc:	9c 01       	movw	r18, r24
    44fe:	40 e0       	ldi	r20, 0x00	; 0
    4500:	50 e0       	ldi	r21, 0x00	; 0
    4502:	89 81       	ldd	r24, Y+1	; 0x01
    4504:	9a 81       	ldd	r25, Y+2	; 0x02
    4506:	ab 81       	ldd	r26, Y+3	; 0x03
    4508:	bc 81       	ldd	r27, Y+4	; 0x04
    450a:	28 17       	cp	r18, r24
    450c:	39 07       	cpc	r19, r25
    450e:	4a 07       	cpc	r20, r26
    4510:	5b 07       	cpc	r21, r27
    4512:	49 f4       	brne	.+18     	; 0x4526 <TIMER0_delay_ms+0x110>
				{
					/*Break the loop*/
					Local_u8Break=0;
    4514:	1b 86       	std	Y+11, r1	; 0x0b
					/*Clear Flag*/
					SET_BIT(TIFR,TIFR_OCF0);
    4516:	a8 e5       	ldi	r26, 0x58	; 88
    4518:	b0 e0       	ldi	r27, 0x00	; 0
    451a:	e8 e5       	ldi	r30, 0x58	; 88
    451c:	f0 e0       	ldi	r31, 0x00	; 0
    451e:	80 81       	ld	r24, Z
    4520:	82 60       	ori	r24, 0x02	; 2
    4522:	8c 93       	st	X, r24
    4524:	0c c0       	rjmp	.+24     	; 0x453e <TIMER0_delay_ms+0x128>
				}
				else
				{
					/*Increment the Counter*/
					Local_u16Counter++;
    4526:	89 85       	ldd	r24, Y+9	; 0x09
    4528:	9a 85       	ldd	r25, Y+10	; 0x0a
    452a:	01 96       	adiw	r24, 0x01	; 1
    452c:	9a 87       	std	Y+10, r25	; 0x0a
    452e:	89 87       	std	Y+9, r24	; 0x09
					/*Clear Flag*/
					SET_BIT(TIFR,TIFR_OCF0);
    4530:	a8 e5       	ldi	r26, 0x58	; 88
    4532:	b0 e0       	ldi	r27, 0x00	; 0
    4534:	e8 e5       	ldi	r30, 0x58	; 88
    4536:	f0 e0       	ldi	r31, 0x00	; 0
    4538:	80 81       	ld	r24, Z
    453a:	82 60       	ori	r24, 0x02	; 2
    453c:	8c 93       	st	X, r24
		/*Compare Match Count:-*/
		Local_u32CompMatchCount=Local_u32usTime/250;
		/*Initialize the Timer which I need to do Delay*/
		TIMER0_u8Init(&Timer);
		//Polling:-
		while(Local_u8Break==1)
    453e:	8b 85       	ldd	r24, Y+11	; 0x0b
    4540:	81 30       	cpi	r24, 0x01	; 1
    4542:	81 f2       	breq	.-96     	; 0x44e4 <TIMER0_delay_ms+0xce>
				}
			}
		}
		/*Restore Timer0 to its original settings by passing the pointer to the timer structure to
		TIMER0_u8Init Function*/
		TIMER0_u8Init(Copy_psTimer);
    4544:	8a 89       	ldd	r24, Y+18	; 0x12
    4546:	9b 89       	ldd	r25, Y+19	; 0x13
    4548:	0e 94 3e 21 	call	0x427c	; 0x427c <TIMER0_u8Init>
    454c:	02 c0       	rjmp	.+4      	; 0x4552 <TIMER0_delay_ms+0x13c>

	}
	else
	{
		Local_u8ErrorState=NULL_POINTER;
    454e:	82 e0       	ldi	r24, 0x02	; 2
    4550:	8c 87       	std	Y+12, r24	; 0x0c
	}
	return Local_u8ErrorState;
    4552:	8c 85       	ldd	r24, Y+12	; 0x0c
}
    4554:	6a 96       	adiw	r28, 0x1a	; 26
    4556:	0f b6       	in	r0, 0x3f	; 63
    4558:	f8 94       	cli
    455a:	de bf       	out	0x3e, r29	; 62
    455c:	0f be       	out	0x3f, r0	; 63
    455e:	cd bf       	out	0x3d, r28	; 61
    4560:	cf 91       	pop	r28
    4562:	df 91       	pop	r29
    4564:	08 95       	ret

00004566 <TIMER1_u8Init>:
/********************************************************TIMER1**********************************************************/
/************************************************************************************************************************/

/*Timer1 Initialization*/
u8 TIMER1_u8Init(Timer1_t* Copy_psTimer)
{
    4566:	df 93       	push	r29
    4568:	cf 93       	push	r28
    456a:	00 d0       	rcall	.+0      	; 0x456c <TIMER1_u8Init+0x6>
    456c:	0f 92       	push	r0
    456e:	cd b7       	in	r28, 0x3d	; 61
    4570:	de b7       	in	r29, 0x3e	; 62
    4572:	9b 83       	std	Y+3, r25	; 0x03
    4574:	8a 83       	std	Y+2, r24	; 0x02
	u8 Local_u8ErrorState=OK;
    4576:	19 82       	std	Y+1, r1	; 0x01
	if(Copy_psTimer!=NULL)
    4578:	8a 81       	ldd	r24, Y+2	; 0x02
    457a:	9b 81       	ldd	r25, Y+3	; 0x03
    457c:	00 97       	sbiw	r24, 0x00	; 0
    457e:	09 f4       	brne	.+2      	; 0x4582 <TIMER1_u8Init+0x1c>
    4580:	96 c2       	rjmp	.+1324   	; 0x4aae <TIMER1_u8Init+0x548>
	{
		//Wave generation mode:-
		if(Copy_psTimer->WaveGenMode==TIMER1_NORMAL)
    4582:	ea 81       	ldd	r30, Y+2	; 0x02
    4584:	fb 81       	ldd	r31, Y+3	; 0x03
    4586:	80 81       	ld	r24, Z
    4588:	81 30       	cpi	r24, 0x01	; 1
    458a:	e9 f4       	brne	.+58     	; 0x45c6 <TIMER1_u8Init+0x60>
		{
			CLR_BIT(TCCR1B,TCCR1B_WGM13);
    458c:	ae e4       	ldi	r26, 0x4E	; 78
    458e:	b0 e0       	ldi	r27, 0x00	; 0
    4590:	ee e4       	ldi	r30, 0x4E	; 78
    4592:	f0 e0       	ldi	r31, 0x00	; 0
    4594:	80 81       	ld	r24, Z
    4596:	8f 7e       	andi	r24, 0xEF	; 239
    4598:	8c 93       	st	X, r24
			CLR_BIT(TCCR1B,TCCR1B_WGM12);
    459a:	ae e4       	ldi	r26, 0x4E	; 78
    459c:	b0 e0       	ldi	r27, 0x00	; 0
    459e:	ee e4       	ldi	r30, 0x4E	; 78
    45a0:	f0 e0       	ldi	r31, 0x00	; 0
    45a2:	80 81       	ld	r24, Z
    45a4:	87 7f       	andi	r24, 0xF7	; 247
    45a6:	8c 93       	st	X, r24
			CLR_BIT(TCCR1A,TCCR1A_WGM11);
    45a8:	af e4       	ldi	r26, 0x4F	; 79
    45aa:	b0 e0       	ldi	r27, 0x00	; 0
    45ac:	ef e4       	ldi	r30, 0x4F	; 79
    45ae:	f0 e0       	ldi	r31, 0x00	; 0
    45b0:	80 81       	ld	r24, Z
    45b2:	8d 7f       	andi	r24, 0xFD	; 253
    45b4:	8c 93       	st	X, r24
			CLR_BIT(TCCR1A,TCCR1A_WGM10);
    45b6:	af e4       	ldi	r26, 0x4F	; 79
    45b8:	b0 e0       	ldi	r27, 0x00	; 0
    45ba:	ef e4       	ldi	r30, 0x4F	; 79
    45bc:	f0 e0       	ldi	r31, 0x00	; 0
    45be:	80 81       	ld	r24, Z
    45c0:	8e 7f       	andi	r24, 0xFE	; 254
    45c2:	8c 93       	st	X, r24
    45c4:	de c1       	rjmp	.+956    	; 0x4982 <TIMER1_u8Init+0x41c>
		}
		else if(Copy_psTimer->WaveGenMode==TIMER1_PHC_PWM_8_BIT){
    45c6:	ea 81       	ldd	r30, Y+2	; 0x02
    45c8:	fb 81       	ldd	r31, Y+3	; 0x03
    45ca:	80 81       	ld	r24, Z
    45cc:	82 30       	cpi	r24, 0x02	; 2
    45ce:	e9 f4       	brne	.+58     	; 0x460a <TIMER1_u8Init+0xa4>
			CLR_BIT(TCCR1B,TCCR1B_WGM13);
    45d0:	ae e4       	ldi	r26, 0x4E	; 78
    45d2:	b0 e0       	ldi	r27, 0x00	; 0
    45d4:	ee e4       	ldi	r30, 0x4E	; 78
    45d6:	f0 e0       	ldi	r31, 0x00	; 0
    45d8:	80 81       	ld	r24, Z
    45da:	8f 7e       	andi	r24, 0xEF	; 239
    45dc:	8c 93       	st	X, r24
			CLR_BIT(TCCR1B,TCCR1B_WGM12);
    45de:	ae e4       	ldi	r26, 0x4E	; 78
    45e0:	b0 e0       	ldi	r27, 0x00	; 0
    45e2:	ee e4       	ldi	r30, 0x4E	; 78
    45e4:	f0 e0       	ldi	r31, 0x00	; 0
    45e6:	80 81       	ld	r24, Z
    45e8:	87 7f       	andi	r24, 0xF7	; 247
    45ea:	8c 93       	st	X, r24
			CLR_BIT(TCCR1A,TCCR1A_WGM11);
    45ec:	af e4       	ldi	r26, 0x4F	; 79
    45ee:	b0 e0       	ldi	r27, 0x00	; 0
    45f0:	ef e4       	ldi	r30, 0x4F	; 79
    45f2:	f0 e0       	ldi	r31, 0x00	; 0
    45f4:	80 81       	ld	r24, Z
    45f6:	8d 7f       	andi	r24, 0xFD	; 253
    45f8:	8c 93       	st	X, r24
			SET_BIT(TCCR1A,TCCR1A_WGM10);
    45fa:	af e4       	ldi	r26, 0x4F	; 79
    45fc:	b0 e0       	ldi	r27, 0x00	; 0
    45fe:	ef e4       	ldi	r30, 0x4F	; 79
    4600:	f0 e0       	ldi	r31, 0x00	; 0
    4602:	80 81       	ld	r24, Z
    4604:	81 60       	ori	r24, 0x01	; 1
    4606:	8c 93       	st	X, r24
    4608:	bc c1       	rjmp	.+888    	; 0x4982 <TIMER1_u8Init+0x41c>
		}
		else if(Copy_psTimer->WaveGenMode==TIMER1_PHC_PWM_9_BIT)
    460a:	ea 81       	ldd	r30, Y+2	; 0x02
    460c:	fb 81       	ldd	r31, Y+3	; 0x03
    460e:	80 81       	ld	r24, Z
    4610:	83 30       	cpi	r24, 0x03	; 3
    4612:	e9 f4       	brne	.+58     	; 0x464e <TIMER1_u8Init+0xe8>
		{
			CLR_BIT(TCCR1B,TCCR1B_WGM13);
    4614:	ae e4       	ldi	r26, 0x4E	; 78
    4616:	b0 e0       	ldi	r27, 0x00	; 0
    4618:	ee e4       	ldi	r30, 0x4E	; 78
    461a:	f0 e0       	ldi	r31, 0x00	; 0
    461c:	80 81       	ld	r24, Z
    461e:	8f 7e       	andi	r24, 0xEF	; 239
    4620:	8c 93       	st	X, r24
			CLR_BIT(TCCR1B,TCCR1B_WGM12);
    4622:	ae e4       	ldi	r26, 0x4E	; 78
    4624:	b0 e0       	ldi	r27, 0x00	; 0
    4626:	ee e4       	ldi	r30, 0x4E	; 78
    4628:	f0 e0       	ldi	r31, 0x00	; 0
    462a:	80 81       	ld	r24, Z
    462c:	87 7f       	andi	r24, 0xF7	; 247
    462e:	8c 93       	st	X, r24
			SET_BIT(TCCR1A,TCCR1A_WGM11);
    4630:	af e4       	ldi	r26, 0x4F	; 79
    4632:	b0 e0       	ldi	r27, 0x00	; 0
    4634:	ef e4       	ldi	r30, 0x4F	; 79
    4636:	f0 e0       	ldi	r31, 0x00	; 0
    4638:	80 81       	ld	r24, Z
    463a:	82 60       	ori	r24, 0x02	; 2
    463c:	8c 93       	st	X, r24
			CLR_BIT(TCCR1A,TCCR1A_WGM10);
    463e:	af e4       	ldi	r26, 0x4F	; 79
    4640:	b0 e0       	ldi	r27, 0x00	; 0
    4642:	ef e4       	ldi	r30, 0x4F	; 79
    4644:	f0 e0       	ldi	r31, 0x00	; 0
    4646:	80 81       	ld	r24, Z
    4648:	8e 7f       	andi	r24, 0xFE	; 254
    464a:	8c 93       	st	X, r24
    464c:	9a c1       	rjmp	.+820    	; 0x4982 <TIMER1_u8Init+0x41c>
		}
		else if(Copy_psTimer->WaveGenMode==TIMER1_PHC_PWM_10_BIT)
    464e:	ea 81       	ldd	r30, Y+2	; 0x02
    4650:	fb 81       	ldd	r31, Y+3	; 0x03
    4652:	80 81       	ld	r24, Z
    4654:	84 30       	cpi	r24, 0x04	; 4
    4656:	e9 f4       	brne	.+58     	; 0x4692 <TIMER1_u8Init+0x12c>
		{
			CLR_BIT(TCCR1B,TCCR1B_WGM13);
    4658:	ae e4       	ldi	r26, 0x4E	; 78
    465a:	b0 e0       	ldi	r27, 0x00	; 0
    465c:	ee e4       	ldi	r30, 0x4E	; 78
    465e:	f0 e0       	ldi	r31, 0x00	; 0
    4660:	80 81       	ld	r24, Z
    4662:	8f 7e       	andi	r24, 0xEF	; 239
    4664:	8c 93       	st	X, r24
			CLR_BIT(TCCR1B,TCCR1B_WGM12);
    4666:	ae e4       	ldi	r26, 0x4E	; 78
    4668:	b0 e0       	ldi	r27, 0x00	; 0
    466a:	ee e4       	ldi	r30, 0x4E	; 78
    466c:	f0 e0       	ldi	r31, 0x00	; 0
    466e:	80 81       	ld	r24, Z
    4670:	87 7f       	andi	r24, 0xF7	; 247
    4672:	8c 93       	st	X, r24
			SET_BIT(TCCR1A,TCCR1A_WGM11);
    4674:	af e4       	ldi	r26, 0x4F	; 79
    4676:	b0 e0       	ldi	r27, 0x00	; 0
    4678:	ef e4       	ldi	r30, 0x4F	; 79
    467a:	f0 e0       	ldi	r31, 0x00	; 0
    467c:	80 81       	ld	r24, Z
    467e:	82 60       	ori	r24, 0x02	; 2
    4680:	8c 93       	st	X, r24
			SET_BIT(TCCR1A,TCCR1A_WGM10);
    4682:	af e4       	ldi	r26, 0x4F	; 79
    4684:	b0 e0       	ldi	r27, 0x00	; 0
    4686:	ef e4       	ldi	r30, 0x4F	; 79
    4688:	f0 e0       	ldi	r31, 0x00	; 0
    468a:	80 81       	ld	r24, Z
    468c:	81 60       	ori	r24, 0x01	; 1
    468e:	8c 93       	st	X, r24
    4690:	78 c1       	rjmp	.+752    	; 0x4982 <TIMER1_u8Init+0x41c>
		}
		else if(Copy_psTimer->WaveGenMode==TIMER1_CTC)
    4692:	ea 81       	ldd	r30, Y+2	; 0x02
    4694:	fb 81       	ldd	r31, Y+3	; 0x03
    4696:	80 81       	ld	r24, Z
    4698:	85 30       	cpi	r24, 0x05	; 5
    469a:	e9 f4       	brne	.+58     	; 0x46d6 <TIMER1_u8Init+0x170>
		{
			CLR_BIT(TCCR1B,TCCR1B_WGM13);
    469c:	ae e4       	ldi	r26, 0x4E	; 78
    469e:	b0 e0       	ldi	r27, 0x00	; 0
    46a0:	ee e4       	ldi	r30, 0x4E	; 78
    46a2:	f0 e0       	ldi	r31, 0x00	; 0
    46a4:	80 81       	ld	r24, Z
    46a6:	8f 7e       	andi	r24, 0xEF	; 239
    46a8:	8c 93       	st	X, r24
			SET_BIT(TCCR1B,TCCR1B_WGM12);
    46aa:	ae e4       	ldi	r26, 0x4E	; 78
    46ac:	b0 e0       	ldi	r27, 0x00	; 0
    46ae:	ee e4       	ldi	r30, 0x4E	; 78
    46b0:	f0 e0       	ldi	r31, 0x00	; 0
    46b2:	80 81       	ld	r24, Z
    46b4:	88 60       	ori	r24, 0x08	; 8
    46b6:	8c 93       	st	X, r24
			CLR_BIT(TCCR1A,TCCR1A_WGM11);
    46b8:	af e4       	ldi	r26, 0x4F	; 79
    46ba:	b0 e0       	ldi	r27, 0x00	; 0
    46bc:	ef e4       	ldi	r30, 0x4F	; 79
    46be:	f0 e0       	ldi	r31, 0x00	; 0
    46c0:	80 81       	ld	r24, Z
    46c2:	8d 7f       	andi	r24, 0xFD	; 253
    46c4:	8c 93       	st	X, r24
			CLR_BIT(TCCR1A,TCCR1A_WGM10);
    46c6:	af e4       	ldi	r26, 0x4F	; 79
    46c8:	b0 e0       	ldi	r27, 0x00	; 0
    46ca:	ef e4       	ldi	r30, 0x4F	; 79
    46cc:	f0 e0       	ldi	r31, 0x00	; 0
    46ce:	80 81       	ld	r24, Z
    46d0:	8e 7f       	andi	r24, 0xFE	; 254
    46d2:	8c 93       	st	X, r24
    46d4:	56 c1       	rjmp	.+684    	; 0x4982 <TIMER1_u8Init+0x41c>
		}
		else if(Copy_psTimer->WaveGenMode==TIMER1_FAST_PWM_8_BIT)
    46d6:	ea 81       	ldd	r30, Y+2	; 0x02
    46d8:	fb 81       	ldd	r31, Y+3	; 0x03
    46da:	80 81       	ld	r24, Z
    46dc:	86 30       	cpi	r24, 0x06	; 6
    46de:	e9 f4       	brne	.+58     	; 0x471a <TIMER1_u8Init+0x1b4>
		{
			CLR_BIT(TCCR1B,TCCR1B_WGM13);
    46e0:	ae e4       	ldi	r26, 0x4E	; 78
    46e2:	b0 e0       	ldi	r27, 0x00	; 0
    46e4:	ee e4       	ldi	r30, 0x4E	; 78
    46e6:	f0 e0       	ldi	r31, 0x00	; 0
    46e8:	80 81       	ld	r24, Z
    46ea:	8f 7e       	andi	r24, 0xEF	; 239
    46ec:	8c 93       	st	X, r24
			SET_BIT(TCCR1B,TCCR1B_WGM12);
    46ee:	ae e4       	ldi	r26, 0x4E	; 78
    46f0:	b0 e0       	ldi	r27, 0x00	; 0
    46f2:	ee e4       	ldi	r30, 0x4E	; 78
    46f4:	f0 e0       	ldi	r31, 0x00	; 0
    46f6:	80 81       	ld	r24, Z
    46f8:	88 60       	ori	r24, 0x08	; 8
    46fa:	8c 93       	st	X, r24
			CLR_BIT(TCCR1A,TCCR1A_WGM11);
    46fc:	af e4       	ldi	r26, 0x4F	; 79
    46fe:	b0 e0       	ldi	r27, 0x00	; 0
    4700:	ef e4       	ldi	r30, 0x4F	; 79
    4702:	f0 e0       	ldi	r31, 0x00	; 0
    4704:	80 81       	ld	r24, Z
    4706:	8d 7f       	andi	r24, 0xFD	; 253
    4708:	8c 93       	st	X, r24
			SET_BIT(TCCR1A,TCCR1A_WGM10);
    470a:	af e4       	ldi	r26, 0x4F	; 79
    470c:	b0 e0       	ldi	r27, 0x00	; 0
    470e:	ef e4       	ldi	r30, 0x4F	; 79
    4710:	f0 e0       	ldi	r31, 0x00	; 0
    4712:	80 81       	ld	r24, Z
    4714:	81 60       	ori	r24, 0x01	; 1
    4716:	8c 93       	st	X, r24
    4718:	34 c1       	rjmp	.+616    	; 0x4982 <TIMER1_u8Init+0x41c>
		}
		else if(Copy_psTimer->WaveGenMode==TIMER1_FAST_PWM_9_BIT){
    471a:	ea 81       	ldd	r30, Y+2	; 0x02
    471c:	fb 81       	ldd	r31, Y+3	; 0x03
    471e:	80 81       	ld	r24, Z
    4720:	87 30       	cpi	r24, 0x07	; 7
    4722:	e9 f4       	brne	.+58     	; 0x475e <TIMER1_u8Init+0x1f8>
			CLR_BIT(TCCR1B,TCCR1B_WGM13);
    4724:	ae e4       	ldi	r26, 0x4E	; 78
    4726:	b0 e0       	ldi	r27, 0x00	; 0
    4728:	ee e4       	ldi	r30, 0x4E	; 78
    472a:	f0 e0       	ldi	r31, 0x00	; 0
    472c:	80 81       	ld	r24, Z
    472e:	8f 7e       	andi	r24, 0xEF	; 239
    4730:	8c 93       	st	X, r24
			SET_BIT(TCCR1B,TCCR1B_WGM12);
    4732:	ae e4       	ldi	r26, 0x4E	; 78
    4734:	b0 e0       	ldi	r27, 0x00	; 0
    4736:	ee e4       	ldi	r30, 0x4E	; 78
    4738:	f0 e0       	ldi	r31, 0x00	; 0
    473a:	80 81       	ld	r24, Z
    473c:	88 60       	ori	r24, 0x08	; 8
    473e:	8c 93       	st	X, r24
			SET_BIT(TCCR1A,TCCR1A_WGM11);
    4740:	af e4       	ldi	r26, 0x4F	; 79
    4742:	b0 e0       	ldi	r27, 0x00	; 0
    4744:	ef e4       	ldi	r30, 0x4F	; 79
    4746:	f0 e0       	ldi	r31, 0x00	; 0
    4748:	80 81       	ld	r24, Z
    474a:	82 60       	ori	r24, 0x02	; 2
    474c:	8c 93       	st	X, r24
			CLR_BIT(TCCR1A,TCCR1A_WGM10);
    474e:	af e4       	ldi	r26, 0x4F	; 79
    4750:	b0 e0       	ldi	r27, 0x00	; 0
    4752:	ef e4       	ldi	r30, 0x4F	; 79
    4754:	f0 e0       	ldi	r31, 0x00	; 0
    4756:	80 81       	ld	r24, Z
    4758:	8e 7f       	andi	r24, 0xFE	; 254
    475a:	8c 93       	st	X, r24
    475c:	12 c1       	rjmp	.+548    	; 0x4982 <TIMER1_u8Init+0x41c>
		}
		else if(Copy_psTimer->WaveGenMode==TIMER1_FAST_PWM_10_BIT)
    475e:	ea 81       	ldd	r30, Y+2	; 0x02
    4760:	fb 81       	ldd	r31, Y+3	; 0x03
    4762:	80 81       	ld	r24, Z
    4764:	88 30       	cpi	r24, 0x08	; 8
    4766:	e9 f4       	brne	.+58     	; 0x47a2 <TIMER1_u8Init+0x23c>
		{
			CLR_BIT(TCCR1B,TCCR1B_WGM13);
    4768:	ae e4       	ldi	r26, 0x4E	; 78
    476a:	b0 e0       	ldi	r27, 0x00	; 0
    476c:	ee e4       	ldi	r30, 0x4E	; 78
    476e:	f0 e0       	ldi	r31, 0x00	; 0
    4770:	80 81       	ld	r24, Z
    4772:	8f 7e       	andi	r24, 0xEF	; 239
    4774:	8c 93       	st	X, r24
			SET_BIT(TCCR1B,TCCR1B_WGM12);
    4776:	ae e4       	ldi	r26, 0x4E	; 78
    4778:	b0 e0       	ldi	r27, 0x00	; 0
    477a:	ee e4       	ldi	r30, 0x4E	; 78
    477c:	f0 e0       	ldi	r31, 0x00	; 0
    477e:	80 81       	ld	r24, Z
    4780:	88 60       	ori	r24, 0x08	; 8
    4782:	8c 93       	st	X, r24
			SET_BIT(TCCR1A,TCCR1A_WGM11);
    4784:	af e4       	ldi	r26, 0x4F	; 79
    4786:	b0 e0       	ldi	r27, 0x00	; 0
    4788:	ef e4       	ldi	r30, 0x4F	; 79
    478a:	f0 e0       	ldi	r31, 0x00	; 0
    478c:	80 81       	ld	r24, Z
    478e:	82 60       	ori	r24, 0x02	; 2
    4790:	8c 93       	st	X, r24
			SET_BIT(TCCR1A,TCCR1A_WGM10);
    4792:	af e4       	ldi	r26, 0x4F	; 79
    4794:	b0 e0       	ldi	r27, 0x00	; 0
    4796:	ef e4       	ldi	r30, 0x4F	; 79
    4798:	f0 e0       	ldi	r31, 0x00	; 0
    479a:	80 81       	ld	r24, Z
    479c:	81 60       	ori	r24, 0x01	; 1
    479e:	8c 93       	st	X, r24
    47a0:	f0 c0       	rjmp	.+480    	; 0x4982 <TIMER1_u8Init+0x41c>
		}
		else if(Copy_psTimer->WaveGenMode==TIMER1_PHFC_PWM_CUSTOM_TOP)
    47a2:	ea 81       	ldd	r30, Y+2	; 0x02
    47a4:	fb 81       	ldd	r31, Y+3	; 0x03
    47a6:	80 81       	ld	r24, Z
    47a8:	89 30       	cpi	r24, 0x09	; 9
    47aa:	e9 f4       	brne	.+58     	; 0x47e6 <TIMER1_u8Init+0x280>
		{
			SET_BIT(TCCR1B,TCCR1B_WGM13);
    47ac:	ae e4       	ldi	r26, 0x4E	; 78
    47ae:	b0 e0       	ldi	r27, 0x00	; 0
    47b0:	ee e4       	ldi	r30, 0x4E	; 78
    47b2:	f0 e0       	ldi	r31, 0x00	; 0
    47b4:	80 81       	ld	r24, Z
    47b6:	80 61       	ori	r24, 0x10	; 16
    47b8:	8c 93       	st	X, r24
			CLR_BIT(TCCR1B,TCCR1B_WGM12);
    47ba:	ae e4       	ldi	r26, 0x4E	; 78
    47bc:	b0 e0       	ldi	r27, 0x00	; 0
    47be:	ee e4       	ldi	r30, 0x4E	; 78
    47c0:	f0 e0       	ldi	r31, 0x00	; 0
    47c2:	80 81       	ld	r24, Z
    47c4:	87 7f       	andi	r24, 0xF7	; 247
    47c6:	8c 93       	st	X, r24
			CLR_BIT(TCCR1A,TCCR1A_WGM11);
    47c8:	af e4       	ldi	r26, 0x4F	; 79
    47ca:	b0 e0       	ldi	r27, 0x00	; 0
    47cc:	ef e4       	ldi	r30, 0x4F	; 79
    47ce:	f0 e0       	ldi	r31, 0x00	; 0
    47d0:	80 81       	ld	r24, Z
    47d2:	8d 7f       	andi	r24, 0xFD	; 253
    47d4:	8c 93       	st	X, r24
			CLR_BIT(TCCR1A,TCCR1A_WGM10);
    47d6:	af e4       	ldi	r26, 0x4F	; 79
    47d8:	b0 e0       	ldi	r27, 0x00	; 0
    47da:	ef e4       	ldi	r30, 0x4F	; 79
    47dc:	f0 e0       	ldi	r31, 0x00	; 0
    47de:	80 81       	ld	r24, Z
    47e0:	8e 7f       	andi	r24, 0xFE	; 254
    47e2:	8c 93       	st	X, r24
    47e4:	ce c0       	rjmp	.+412    	; 0x4982 <TIMER1_u8Init+0x41c>
		}
		else if(Copy_psTimer->WaveGenMode==TIMER1_PHFC_PWM)
    47e6:	ea 81       	ldd	r30, Y+2	; 0x02
    47e8:	fb 81       	ldd	r31, Y+3	; 0x03
    47ea:	80 81       	ld	r24, Z
    47ec:	8a 30       	cpi	r24, 0x0A	; 10
    47ee:	e9 f4       	brne	.+58     	; 0x482a <TIMER1_u8Init+0x2c4>
		{
			SET_BIT(TCCR1B,TCCR1B_WGM13);
    47f0:	ae e4       	ldi	r26, 0x4E	; 78
    47f2:	b0 e0       	ldi	r27, 0x00	; 0
    47f4:	ee e4       	ldi	r30, 0x4E	; 78
    47f6:	f0 e0       	ldi	r31, 0x00	; 0
    47f8:	80 81       	ld	r24, Z
    47fa:	80 61       	ori	r24, 0x10	; 16
    47fc:	8c 93       	st	X, r24
			CLR_BIT(TCCR1B,TCCR1B_WGM12);
    47fe:	ae e4       	ldi	r26, 0x4E	; 78
    4800:	b0 e0       	ldi	r27, 0x00	; 0
    4802:	ee e4       	ldi	r30, 0x4E	; 78
    4804:	f0 e0       	ldi	r31, 0x00	; 0
    4806:	80 81       	ld	r24, Z
    4808:	87 7f       	andi	r24, 0xF7	; 247
    480a:	8c 93       	st	X, r24
			CLR_BIT(TCCR1A,TCCR1A_WGM11);
    480c:	af e4       	ldi	r26, 0x4F	; 79
    480e:	b0 e0       	ldi	r27, 0x00	; 0
    4810:	ef e4       	ldi	r30, 0x4F	; 79
    4812:	f0 e0       	ldi	r31, 0x00	; 0
    4814:	80 81       	ld	r24, Z
    4816:	8d 7f       	andi	r24, 0xFD	; 253
    4818:	8c 93       	st	X, r24
			SET_BIT(TCCR1A,TCCR1A_WGM10);
    481a:	af e4       	ldi	r26, 0x4F	; 79
    481c:	b0 e0       	ldi	r27, 0x00	; 0
    481e:	ef e4       	ldi	r30, 0x4F	; 79
    4820:	f0 e0       	ldi	r31, 0x00	; 0
    4822:	80 81       	ld	r24, Z
    4824:	81 60       	ori	r24, 0x01	; 1
    4826:	8c 93       	st	X, r24
    4828:	ac c0       	rjmp	.+344    	; 0x4982 <TIMER1_u8Init+0x41c>
		}
		else if(Copy_psTimer->WaveGenMode==TIMER1_PHC_PWM_CUSTOM_TOP)
    482a:	ea 81       	ldd	r30, Y+2	; 0x02
    482c:	fb 81       	ldd	r31, Y+3	; 0x03
    482e:	80 81       	ld	r24, Z
    4830:	8b 30       	cpi	r24, 0x0B	; 11
    4832:	e9 f4       	brne	.+58     	; 0x486e <TIMER1_u8Init+0x308>
		{
			SET_BIT(TCCR1B,TCCR1B_WGM13);
    4834:	ae e4       	ldi	r26, 0x4E	; 78
    4836:	b0 e0       	ldi	r27, 0x00	; 0
    4838:	ee e4       	ldi	r30, 0x4E	; 78
    483a:	f0 e0       	ldi	r31, 0x00	; 0
    483c:	80 81       	ld	r24, Z
    483e:	80 61       	ori	r24, 0x10	; 16
    4840:	8c 93       	st	X, r24
			CLR_BIT(TCCR1B,TCCR1B_WGM12);
    4842:	ae e4       	ldi	r26, 0x4E	; 78
    4844:	b0 e0       	ldi	r27, 0x00	; 0
    4846:	ee e4       	ldi	r30, 0x4E	; 78
    4848:	f0 e0       	ldi	r31, 0x00	; 0
    484a:	80 81       	ld	r24, Z
    484c:	87 7f       	andi	r24, 0xF7	; 247
    484e:	8c 93       	st	X, r24
			SET_BIT(TCCR1A,TCCR1A_WGM11);
    4850:	af e4       	ldi	r26, 0x4F	; 79
    4852:	b0 e0       	ldi	r27, 0x00	; 0
    4854:	ef e4       	ldi	r30, 0x4F	; 79
    4856:	f0 e0       	ldi	r31, 0x00	; 0
    4858:	80 81       	ld	r24, Z
    485a:	82 60       	ori	r24, 0x02	; 2
    485c:	8c 93       	st	X, r24
			CLR_BIT(TCCR1A,TCCR1A_WGM10);
    485e:	af e4       	ldi	r26, 0x4F	; 79
    4860:	b0 e0       	ldi	r27, 0x00	; 0
    4862:	ef e4       	ldi	r30, 0x4F	; 79
    4864:	f0 e0       	ldi	r31, 0x00	; 0
    4866:	80 81       	ld	r24, Z
    4868:	8e 7f       	andi	r24, 0xFE	; 254
    486a:	8c 93       	st	X, r24
    486c:	8a c0       	rjmp	.+276    	; 0x4982 <TIMER1_u8Init+0x41c>
		}
		else if(Copy_psTimer->WaveGenMode==TIMER1_PHC_PWM)
    486e:	ea 81       	ldd	r30, Y+2	; 0x02
    4870:	fb 81       	ldd	r31, Y+3	; 0x03
    4872:	80 81       	ld	r24, Z
    4874:	8c 30       	cpi	r24, 0x0C	; 12
    4876:	e9 f4       	brne	.+58     	; 0x48b2 <TIMER1_u8Init+0x34c>
		{
			SET_BIT(TCCR1B,TCCR1B_WGM13);
    4878:	ae e4       	ldi	r26, 0x4E	; 78
    487a:	b0 e0       	ldi	r27, 0x00	; 0
    487c:	ee e4       	ldi	r30, 0x4E	; 78
    487e:	f0 e0       	ldi	r31, 0x00	; 0
    4880:	80 81       	ld	r24, Z
    4882:	80 61       	ori	r24, 0x10	; 16
    4884:	8c 93       	st	X, r24
			CLR_BIT(TCCR1B,TCCR1B_WGM12);
    4886:	ae e4       	ldi	r26, 0x4E	; 78
    4888:	b0 e0       	ldi	r27, 0x00	; 0
    488a:	ee e4       	ldi	r30, 0x4E	; 78
    488c:	f0 e0       	ldi	r31, 0x00	; 0
    488e:	80 81       	ld	r24, Z
    4890:	87 7f       	andi	r24, 0xF7	; 247
    4892:	8c 93       	st	X, r24
			SET_BIT(TCCR1A,TCCR1A_WGM11);
    4894:	af e4       	ldi	r26, 0x4F	; 79
    4896:	b0 e0       	ldi	r27, 0x00	; 0
    4898:	ef e4       	ldi	r30, 0x4F	; 79
    489a:	f0 e0       	ldi	r31, 0x00	; 0
    489c:	80 81       	ld	r24, Z
    489e:	82 60       	ori	r24, 0x02	; 2
    48a0:	8c 93       	st	X, r24
			SET_BIT(TCCR1A,TCCR1A_WGM10);
    48a2:	af e4       	ldi	r26, 0x4F	; 79
    48a4:	b0 e0       	ldi	r27, 0x00	; 0
    48a6:	ef e4       	ldi	r30, 0x4F	; 79
    48a8:	f0 e0       	ldi	r31, 0x00	; 0
    48aa:	80 81       	ld	r24, Z
    48ac:	81 60       	ori	r24, 0x01	; 1
    48ae:	8c 93       	st	X, r24
    48b0:	68 c0       	rjmp	.+208    	; 0x4982 <TIMER1_u8Init+0x41c>
		}
		else if(Copy_psTimer->WaveGenMode==TIMER1_CTC_CUSTOM_TOP)
    48b2:	ea 81       	ldd	r30, Y+2	; 0x02
    48b4:	fb 81       	ldd	r31, Y+3	; 0x03
    48b6:	80 81       	ld	r24, Z
    48b8:	8d 30       	cpi	r24, 0x0D	; 13
    48ba:	e9 f4       	brne	.+58     	; 0x48f6 <TIMER1_u8Init+0x390>
		{
			SET_BIT(TCCR1B,TCCR1B_WGM13);
    48bc:	ae e4       	ldi	r26, 0x4E	; 78
    48be:	b0 e0       	ldi	r27, 0x00	; 0
    48c0:	ee e4       	ldi	r30, 0x4E	; 78
    48c2:	f0 e0       	ldi	r31, 0x00	; 0
    48c4:	80 81       	ld	r24, Z
    48c6:	80 61       	ori	r24, 0x10	; 16
    48c8:	8c 93       	st	X, r24
			SET_BIT(TCCR1B,TCCR1B_WGM12);
    48ca:	ae e4       	ldi	r26, 0x4E	; 78
    48cc:	b0 e0       	ldi	r27, 0x00	; 0
    48ce:	ee e4       	ldi	r30, 0x4E	; 78
    48d0:	f0 e0       	ldi	r31, 0x00	; 0
    48d2:	80 81       	ld	r24, Z
    48d4:	88 60       	ori	r24, 0x08	; 8
    48d6:	8c 93       	st	X, r24
			CLR_BIT(TCCR1A,TCCR1A_WGM11);
    48d8:	af e4       	ldi	r26, 0x4F	; 79
    48da:	b0 e0       	ldi	r27, 0x00	; 0
    48dc:	ef e4       	ldi	r30, 0x4F	; 79
    48de:	f0 e0       	ldi	r31, 0x00	; 0
    48e0:	80 81       	ld	r24, Z
    48e2:	8d 7f       	andi	r24, 0xFD	; 253
    48e4:	8c 93       	st	X, r24
			CLR_BIT(TCCR1A,TCCR1A_WGM10);
    48e6:	af e4       	ldi	r26, 0x4F	; 79
    48e8:	b0 e0       	ldi	r27, 0x00	; 0
    48ea:	ef e4       	ldi	r30, 0x4F	; 79
    48ec:	f0 e0       	ldi	r31, 0x00	; 0
    48ee:	80 81       	ld	r24, Z
    48f0:	8e 7f       	andi	r24, 0xFE	; 254
    48f2:	8c 93       	st	X, r24
    48f4:	46 c0       	rjmp	.+140    	; 0x4982 <TIMER1_u8Init+0x41c>
		}
		else if(Copy_psTimer->WaveGenMode==TIMER1_FAST_PWM_CUSTOM_TOP)
    48f6:	ea 81       	ldd	r30, Y+2	; 0x02
    48f8:	fb 81       	ldd	r31, Y+3	; 0x03
    48fa:	80 81       	ld	r24, Z
    48fc:	8e 30       	cpi	r24, 0x0E	; 14
    48fe:	e9 f4       	brne	.+58     	; 0x493a <TIMER1_u8Init+0x3d4>
		{
			SET_BIT(TCCR1B,TCCR1B_WGM13);
    4900:	ae e4       	ldi	r26, 0x4E	; 78
    4902:	b0 e0       	ldi	r27, 0x00	; 0
    4904:	ee e4       	ldi	r30, 0x4E	; 78
    4906:	f0 e0       	ldi	r31, 0x00	; 0
    4908:	80 81       	ld	r24, Z
    490a:	80 61       	ori	r24, 0x10	; 16
    490c:	8c 93       	st	X, r24
			SET_BIT(TCCR1B,TCCR1B_WGM12);
    490e:	ae e4       	ldi	r26, 0x4E	; 78
    4910:	b0 e0       	ldi	r27, 0x00	; 0
    4912:	ee e4       	ldi	r30, 0x4E	; 78
    4914:	f0 e0       	ldi	r31, 0x00	; 0
    4916:	80 81       	ld	r24, Z
    4918:	88 60       	ori	r24, 0x08	; 8
    491a:	8c 93       	st	X, r24
			SET_BIT(TCCR1A,TCCR1A_WGM11);
    491c:	af e4       	ldi	r26, 0x4F	; 79
    491e:	b0 e0       	ldi	r27, 0x00	; 0
    4920:	ef e4       	ldi	r30, 0x4F	; 79
    4922:	f0 e0       	ldi	r31, 0x00	; 0
    4924:	80 81       	ld	r24, Z
    4926:	82 60       	ori	r24, 0x02	; 2
    4928:	8c 93       	st	X, r24
			CLR_BIT(TCCR1A,TCCR1A_WGM10);
    492a:	af e4       	ldi	r26, 0x4F	; 79
    492c:	b0 e0       	ldi	r27, 0x00	; 0
    492e:	ef e4       	ldi	r30, 0x4F	; 79
    4930:	f0 e0       	ldi	r31, 0x00	; 0
    4932:	80 81       	ld	r24, Z
    4934:	8e 7f       	andi	r24, 0xFE	; 254
    4936:	8c 93       	st	X, r24
    4938:	24 c0       	rjmp	.+72     	; 0x4982 <TIMER1_u8Init+0x41c>
		}
		else if(Copy_psTimer->WaveGenMode==TIMER1_FAST_PWM)
    493a:	ea 81       	ldd	r30, Y+2	; 0x02
    493c:	fb 81       	ldd	r31, Y+3	; 0x03
    493e:	80 81       	ld	r24, Z
    4940:	8f 30       	cpi	r24, 0x0F	; 15
    4942:	e9 f4       	brne	.+58     	; 0x497e <TIMER1_u8Init+0x418>
		{
			SET_BIT(TCCR1B,TCCR1B_WGM13);
    4944:	ae e4       	ldi	r26, 0x4E	; 78
    4946:	b0 e0       	ldi	r27, 0x00	; 0
    4948:	ee e4       	ldi	r30, 0x4E	; 78
    494a:	f0 e0       	ldi	r31, 0x00	; 0
    494c:	80 81       	ld	r24, Z
    494e:	80 61       	ori	r24, 0x10	; 16
    4950:	8c 93       	st	X, r24
			SET_BIT(TCCR1B,TCCR1B_WGM12);
    4952:	ae e4       	ldi	r26, 0x4E	; 78
    4954:	b0 e0       	ldi	r27, 0x00	; 0
    4956:	ee e4       	ldi	r30, 0x4E	; 78
    4958:	f0 e0       	ldi	r31, 0x00	; 0
    495a:	80 81       	ld	r24, Z
    495c:	88 60       	ori	r24, 0x08	; 8
    495e:	8c 93       	st	X, r24
			SET_BIT(TCCR1A,TCCR1A_WGM11);
    4960:	af e4       	ldi	r26, 0x4F	; 79
    4962:	b0 e0       	ldi	r27, 0x00	; 0
    4964:	ef e4       	ldi	r30, 0x4F	; 79
    4966:	f0 e0       	ldi	r31, 0x00	; 0
    4968:	80 81       	ld	r24, Z
    496a:	82 60       	ori	r24, 0x02	; 2
    496c:	8c 93       	st	X, r24
			SET_BIT(TCCR1A,TCCR1A_WGM10);
    496e:	af e4       	ldi	r26, 0x4F	; 79
    4970:	b0 e0       	ldi	r27, 0x00	; 0
    4972:	ef e4       	ldi	r30, 0x4F	; 79
    4974:	f0 e0       	ldi	r31, 0x00	; 0
    4976:	80 81       	ld	r24, Z
    4978:	81 60       	ori	r24, 0x01	; 1
    497a:	8c 93       	st	X, r24
    497c:	02 c0       	rjmp	.+4      	; 0x4982 <TIMER1_u8Init+0x41c>
		}
		else
		{
			Local_u8ErrorState=NOK;
    497e:	81 e0       	ldi	r24, 0x01	; 1
    4980:	89 83       	std	Y+1, r24	; 0x01
		}
		//Set Match Compare Output Mode for both channel A and B
		TCCR1A&=T1_COMP_MATCH_OUT_MASK;
    4982:	af e4       	ldi	r26, 0x4F	; 79
    4984:	b0 e0       	ldi	r27, 0x00	; 0
    4986:	ef e4       	ldi	r30, 0x4F	; 79
    4988:	f0 e0       	ldi	r31, 0x00	; 0
    498a:	80 81       	ld	r24, Z
    498c:	8f 70       	andi	r24, 0x0F	; 15
    498e:	8c 93       	st	X, r24
		TCCR1A|=((Copy_psTimer->CompareMatchOutputMode_B)<<4);
    4990:	af e4       	ldi	r26, 0x4F	; 79
    4992:	b0 e0       	ldi	r27, 0x00	; 0
    4994:	ef e4       	ldi	r30, 0x4F	; 79
    4996:	f0 e0       	ldi	r31, 0x00	; 0
    4998:	80 81       	ld	r24, Z
    499a:	28 2f       	mov	r18, r24
    499c:	ea 81       	ldd	r30, Y+2	; 0x02
    499e:	fb 81       	ldd	r31, Y+3	; 0x03
    49a0:	83 81       	ldd	r24, Z+3	; 0x03
    49a2:	88 2f       	mov	r24, r24
    49a4:	90 e0       	ldi	r25, 0x00	; 0
    49a6:	82 95       	swap	r24
    49a8:	92 95       	swap	r25
    49aa:	90 7f       	andi	r25, 0xF0	; 240
    49ac:	98 27       	eor	r25, r24
    49ae:	80 7f       	andi	r24, 0xF0	; 240
    49b0:	98 27       	eor	r25, r24
    49b2:	82 2b       	or	r24, r18
    49b4:	8c 93       	st	X, r24
		TCCR1A|=((Copy_psTimer->CompareMatchOutputMode_A)<<6);
    49b6:	af e4       	ldi	r26, 0x4F	; 79
    49b8:	b0 e0       	ldi	r27, 0x00	; 0
    49ba:	ef e4       	ldi	r30, 0x4F	; 79
    49bc:	f0 e0       	ldi	r31, 0x00	; 0
    49be:	80 81       	ld	r24, Z
    49c0:	28 2f       	mov	r18, r24
    49c2:	ea 81       	ldd	r30, Y+2	; 0x02
    49c4:	fb 81       	ldd	r31, Y+3	; 0x03
    49c6:	82 81       	ldd	r24, Z+2	; 0x02
    49c8:	88 2f       	mov	r24, r24
    49ca:	90 e0       	ldi	r25, 0x00	; 0
    49cc:	00 24       	eor	r0, r0
    49ce:	96 95       	lsr	r25
    49d0:	87 95       	ror	r24
    49d2:	07 94       	ror	r0
    49d4:	96 95       	lsr	r25
    49d6:	87 95       	ror	r24
    49d8:	07 94       	ror	r0
    49da:	98 2f       	mov	r25, r24
    49dc:	80 2d       	mov	r24, r0
    49de:	82 2b       	or	r24, r18
    49e0:	8c 93       	st	X, r24


		//Initialize Interrupt Enable pins
		if(Copy_psTimer->CompareMatchInterrupt_A==INT_ENABLE)
    49e2:	ea 81       	ldd	r30, Y+2	; 0x02
    49e4:	fb 81       	ldd	r31, Y+3	; 0x03
    49e6:	84 81       	ldd	r24, Z+4	; 0x04
    49e8:	81 30       	cpi	r24, 0x01	; 1
    49ea:	41 f4       	brne	.+16     	; 0x49fc <TIMER1_u8Init+0x496>
		{
			SET_BIT(TIMSK,TIMSK_OCIE1A);
    49ec:	a9 e5       	ldi	r26, 0x59	; 89
    49ee:	b0 e0       	ldi	r27, 0x00	; 0
    49f0:	e9 e5       	ldi	r30, 0x59	; 89
    49f2:	f0 e0       	ldi	r31, 0x00	; 0
    49f4:	80 81       	ld	r24, Z
    49f6:	80 61       	ori	r24, 0x10	; 16
    49f8:	8c 93       	st	X, r24
    49fa:	0f c0       	rjmp	.+30     	; 0x4a1a <TIMER1_u8Init+0x4b4>
		}
		else if(Copy_psTimer->CompareMatchInterrupt_A==INT_DISABLE)
    49fc:	ea 81       	ldd	r30, Y+2	; 0x02
    49fe:	fb 81       	ldd	r31, Y+3	; 0x03
    4a00:	84 81       	ldd	r24, Z+4	; 0x04
    4a02:	82 30       	cpi	r24, 0x02	; 2
    4a04:	41 f4       	brne	.+16     	; 0x4a16 <TIMER1_u8Init+0x4b0>
		{
			CLR_BIT(TIMSK,TIMSK_OCIE1A);
    4a06:	a9 e5       	ldi	r26, 0x59	; 89
    4a08:	b0 e0       	ldi	r27, 0x00	; 0
    4a0a:	e9 e5       	ldi	r30, 0x59	; 89
    4a0c:	f0 e0       	ldi	r31, 0x00	; 0
    4a0e:	80 81       	ld	r24, Z
    4a10:	8f 7e       	andi	r24, 0xEF	; 239
    4a12:	8c 93       	st	X, r24
    4a14:	02 c0       	rjmp	.+4      	; 0x4a1a <TIMER1_u8Init+0x4b4>
		}
		else
		{
			Local_u8ErrorState=NOK;
    4a16:	81 e0       	ldi	r24, 0x01	; 1
    4a18:	89 83       	std	Y+1, r24	; 0x01
		}

		//Compare Match Interrupt
		if(Copy_psTimer->CompareMatchInterrupt_B==INT_ENABLE)
    4a1a:	ea 81       	ldd	r30, Y+2	; 0x02
    4a1c:	fb 81       	ldd	r31, Y+3	; 0x03
    4a1e:	85 81       	ldd	r24, Z+5	; 0x05
    4a20:	81 30       	cpi	r24, 0x01	; 1
    4a22:	41 f4       	brne	.+16     	; 0x4a34 <TIMER1_u8Init+0x4ce>
		{
			SET_BIT(TIMSK,TIMSK_OCIE1B);
    4a24:	a9 e5       	ldi	r26, 0x59	; 89
    4a26:	b0 e0       	ldi	r27, 0x00	; 0
    4a28:	e9 e5       	ldi	r30, 0x59	; 89
    4a2a:	f0 e0       	ldi	r31, 0x00	; 0
    4a2c:	80 81       	ld	r24, Z
    4a2e:	88 60       	ori	r24, 0x08	; 8
    4a30:	8c 93       	st	X, r24
    4a32:	0f c0       	rjmp	.+30     	; 0x4a52 <TIMER1_u8Init+0x4ec>
		}
		else if(Copy_psTimer->CompareMatchInterrupt_B==INT_DISABLE)
    4a34:	ea 81       	ldd	r30, Y+2	; 0x02
    4a36:	fb 81       	ldd	r31, Y+3	; 0x03
    4a38:	85 81       	ldd	r24, Z+5	; 0x05
    4a3a:	82 30       	cpi	r24, 0x02	; 2
    4a3c:	41 f4       	brne	.+16     	; 0x4a4e <TIMER1_u8Init+0x4e8>
		{
			CLR_BIT(TIMSK,TIMSK_OCIE1B);
    4a3e:	a9 e5       	ldi	r26, 0x59	; 89
    4a40:	b0 e0       	ldi	r27, 0x00	; 0
    4a42:	e9 e5       	ldi	r30, 0x59	; 89
    4a44:	f0 e0       	ldi	r31, 0x00	; 0
    4a46:	80 81       	ld	r24, Z
    4a48:	87 7f       	andi	r24, 0xF7	; 247
    4a4a:	8c 93       	st	X, r24
    4a4c:	02 c0       	rjmp	.+4      	; 0x4a52 <TIMER1_u8Init+0x4ec>
		}
		else{
			Local_u8ErrorState=NOK;
    4a4e:	81 e0       	ldi	r24, 0x01	; 1
    4a50:	89 83       	std	Y+1, r24	; 0x01
		}

		//OverFlow Interrupt
		if(Copy_psTimer->OverFlowInterrupt==INT_ENABLE)
    4a52:	ea 81       	ldd	r30, Y+2	; 0x02
    4a54:	fb 81       	ldd	r31, Y+3	; 0x03
    4a56:	86 81       	ldd	r24, Z+6	; 0x06
    4a58:	81 30       	cpi	r24, 0x01	; 1
    4a5a:	41 f4       	brne	.+16     	; 0x4a6c <TIMER1_u8Init+0x506>
		{
			SET_BIT(TIMSK,TIMSK_TOIE1);
    4a5c:	a9 e5       	ldi	r26, 0x59	; 89
    4a5e:	b0 e0       	ldi	r27, 0x00	; 0
    4a60:	e9 e5       	ldi	r30, 0x59	; 89
    4a62:	f0 e0       	ldi	r31, 0x00	; 0
    4a64:	80 81       	ld	r24, Z
    4a66:	84 60       	ori	r24, 0x04	; 4
    4a68:	8c 93       	st	X, r24
    4a6a:	0f c0       	rjmp	.+30     	; 0x4a8a <TIMER1_u8Init+0x524>
		}
		else if(Copy_psTimer->OverFlowInterrupt==INT_DISABLE)
    4a6c:	ea 81       	ldd	r30, Y+2	; 0x02
    4a6e:	fb 81       	ldd	r31, Y+3	; 0x03
    4a70:	86 81       	ldd	r24, Z+6	; 0x06
    4a72:	82 30       	cpi	r24, 0x02	; 2
    4a74:	41 f4       	brne	.+16     	; 0x4a86 <TIMER1_u8Init+0x520>
		{
			CLR_BIT(TIMSK,TIMSK_TOIE1);
    4a76:	a9 e5       	ldi	r26, 0x59	; 89
    4a78:	b0 e0       	ldi	r27, 0x00	; 0
    4a7a:	e9 e5       	ldi	r30, 0x59	; 89
    4a7c:	f0 e0       	ldi	r31, 0x00	; 0
    4a7e:	80 81       	ld	r24, Z
    4a80:	8b 7f       	andi	r24, 0xFB	; 251
    4a82:	8c 93       	st	X, r24
    4a84:	02 c0       	rjmp	.+4      	; 0x4a8a <TIMER1_u8Init+0x524>
		}
		else{
			Local_u8ErrorState=NOK;
    4a86:	81 e0       	ldi	r24, 0x01	; 1
    4a88:	89 83       	std	Y+1, r24	; 0x01
		}

		//Initialize Prescaler->>> Start the Timer
		TCCR1B&=PRESCALER_MASK;
    4a8a:	ae e4       	ldi	r26, 0x4E	; 78
    4a8c:	b0 e0       	ldi	r27, 0x00	; 0
    4a8e:	ee e4       	ldi	r30, 0x4E	; 78
    4a90:	f0 e0       	ldi	r31, 0x00	; 0
    4a92:	80 81       	ld	r24, Z
    4a94:	88 7f       	andi	r24, 0xF8	; 248
    4a96:	8c 93       	st	X, r24
		TCCR1B|=Copy_psTimer->Prescaler;
    4a98:	ae e4       	ldi	r26, 0x4E	; 78
    4a9a:	b0 e0       	ldi	r27, 0x00	; 0
    4a9c:	ee e4       	ldi	r30, 0x4E	; 78
    4a9e:	f0 e0       	ldi	r31, 0x00	; 0
    4aa0:	90 81       	ld	r25, Z
    4aa2:	ea 81       	ldd	r30, Y+2	; 0x02
    4aa4:	fb 81       	ldd	r31, Y+3	; 0x03
    4aa6:	81 81       	ldd	r24, Z+1	; 0x01
    4aa8:	89 2b       	or	r24, r25
    4aaa:	8c 93       	st	X, r24
    4aac:	02 c0       	rjmp	.+4      	; 0x4ab2 <TIMER1_u8Init+0x54c>
	}
	else
	{
		Local_u8ErrorState=NULL_POINTER;
    4aae:	82 e0       	ldi	r24, 0x02	; 2
    4ab0:	89 83       	std	Y+1, r24	; 0x01
	}
	return Local_u8ErrorState;
    4ab2:	89 81       	ldd	r24, Y+1	; 0x01
}
    4ab4:	0f 90       	pop	r0
    4ab6:	0f 90       	pop	r0
    4ab8:	0f 90       	pop	r0
    4aba:	cf 91       	pop	r28
    4abc:	df 91       	pop	r29
    4abe:	08 95       	ret

00004ac0 <TIMER1_voidSetTopValue>:
/************************************************************************************************************************/

/*Timer1 Set Top Value->> Fast PWM Custom Modeof Timer1*/
void TIMER1_voidSetTopValue(u16 Copy_u16Value)
{
    4ac0:	df 93       	push	r29
    4ac2:	cf 93       	push	r28
    4ac4:	00 d0       	rcall	.+0      	; 0x4ac6 <TIMER1_voidSetTopValue+0x6>
    4ac6:	cd b7       	in	r28, 0x3d	; 61
    4ac8:	de b7       	in	r29, 0x3e	; 62
    4aca:	9a 83       	std	Y+2, r25	; 0x02
    4acc:	89 83       	std	Y+1, r24	; 0x01
	ICR1=Copy_u16Value;
    4ace:	e6 e4       	ldi	r30, 0x46	; 70
    4ad0:	f0 e0       	ldi	r31, 0x00	; 0
    4ad2:	89 81       	ldd	r24, Y+1	; 0x01
    4ad4:	9a 81       	ldd	r25, Y+2	; 0x02
    4ad6:	91 83       	std	Z+1, r25	; 0x01
    4ad8:	80 83       	st	Z, r24
}
    4ada:	0f 90       	pop	r0
    4adc:	0f 90       	pop	r0
    4ade:	cf 91       	pop	r28
    4ae0:	df 91       	pop	r29
    4ae2:	08 95       	ret

00004ae4 <TIMER1_u8HWPWMGenerate>:
/************************************************************************************************************************/
/*Servo Function, Mode: TIMER1_FAST_PWM_CUSTOM_TOP*/ 
u8 TIMER1_u8HWPWMGenerate(Timer1_t* Copy_psTimer,u16 Copy_u16PeriodTime,u16 Copy_u16OnTime)
{
    4ae4:	df 93       	push	r29
    4ae6:	cf 93       	push	r28
    4ae8:	cd b7       	in	r28, 0x3d	; 61
    4aea:	de b7       	in	r29, 0x3e	; 62
    4aec:	2d 97       	sbiw	r28, 0x0d	; 13
    4aee:	0f b6       	in	r0, 0x3f	; 63
    4af0:	f8 94       	cli
    4af2:	de bf       	out	0x3e, r29	; 62
    4af4:	0f be       	out	0x3f, r0	; 63
    4af6:	cd bf       	out	0x3d, r28	; 61
    4af8:	9b 83       	std	Y+3, r25	; 0x03
    4afa:	8a 83       	std	Y+2, r24	; 0x02
    4afc:	7d 83       	std	Y+5, r23	; 0x05
    4afe:	6c 83       	std	Y+4, r22	; 0x04
    4b00:	5f 83       	std	Y+7, r21	; 0x07
    4b02:	4e 83       	std	Y+6, r20	; 0x06
	u8 Local_u8ErrorState=OK;
    4b04:	19 82       	std	Y+1, r1	; 0x01
	if(Copy_psTimer!=NULL)
    4b06:	8a 81       	ldd	r24, Y+2	; 0x02
    4b08:	9b 81       	ldd	r25, Y+3	; 0x03
    4b0a:	00 97       	sbiw	r24, 0x00	; 0
    4b0c:	09 f4       	brne	.+2      	; 0x4b10 <TIMER1_u8HWPWMGenerate+0x2c>
    4b0e:	5f c1       	rjmp	.+702    	; 0x4dce <TIMER1_u8HWPWMGenerate+0x2ea>
	{
		if((Copy_psTimer->WaveGenMode)==TIMER1_FAST_PWM_CUSTOM_TOP)
    4b10:	ea 81       	ldd	r30, Y+2	; 0x02
    4b12:	fb 81       	ldd	r31, Y+3	; 0x03
    4b14:	80 81       	ld	r24, Z
    4b16:	8e 30       	cpi	r24, 0x0E	; 14
    4b18:	09 f0       	breq	.+2      	; 0x4b1c <TIMER1_u8HWPWMGenerate+0x38>
    4b1a:	56 c1       	rjmp	.+684    	; 0x4dc8 <TIMER1_u8HWPWMGenerate+0x2e4>
		{
			switch(Copy_psTimer->Prescaler)
    4b1c:	ea 81       	ldd	r30, Y+2	; 0x02
    4b1e:	fb 81       	ldd	r31, Y+3	; 0x03
    4b20:	81 81       	ldd	r24, Z+1	; 0x01
    4b22:	28 2f       	mov	r18, r24
    4b24:	30 e0       	ldi	r19, 0x00	; 0
    4b26:	3d 87       	std	Y+13, r19	; 0x0d
    4b28:	2c 87       	std	Y+12, r18	; 0x0c
    4b2a:	8c 85       	ldd	r24, Y+12	; 0x0c
    4b2c:	9d 85       	ldd	r25, Y+13	; 0x0d
    4b2e:	83 30       	cpi	r24, 0x03	; 3
    4b30:	91 05       	cpc	r25, r1
    4b32:	79 f1       	breq	.+94     	; 0x4b92 <TIMER1_u8HWPWMGenerate+0xae>
    4b34:	2c 85       	ldd	r18, Y+12	; 0x0c
    4b36:	3d 85       	ldd	r19, Y+13	; 0x0d
    4b38:	24 30       	cpi	r18, 0x04	; 4
    4b3a:	31 05       	cpc	r19, r1
    4b3c:	5c f4       	brge	.+22     	; 0x4b54 <TIMER1_u8HWPWMGenerate+0x70>
    4b3e:	8c 85       	ldd	r24, Y+12	; 0x0c
    4b40:	9d 85       	ldd	r25, Y+13	; 0x0d
    4b42:	81 30       	cpi	r24, 0x01	; 1
    4b44:	91 05       	cpc	r25, r1
    4b46:	89 f0       	breq	.+34     	; 0x4b6a <TIMER1_u8HWPWMGenerate+0x86>
    4b48:	2c 85       	ldd	r18, Y+12	; 0x0c
    4b4a:	3d 85       	ldd	r19, Y+13	; 0x0d
    4b4c:	22 30       	cpi	r18, 0x02	; 2
    4b4e:	31 05       	cpc	r19, r1
    4b50:	c9 f0       	breq	.+50     	; 0x4b84 <TIMER1_u8HWPWMGenerate+0xa0>
    4b52:	47 c0       	rjmp	.+142    	; 0x4be2 <TIMER1_u8HWPWMGenerate+0xfe>
    4b54:	8c 85       	ldd	r24, Y+12	; 0x0c
    4b56:	9d 85       	ldd	r25, Y+13	; 0x0d
    4b58:	84 30       	cpi	r24, 0x04	; 4
    4b5a:	91 05       	cpc	r25, r1
    4b5c:	39 f1       	breq	.+78     	; 0x4bac <TIMER1_u8HWPWMGenerate+0xc8>
    4b5e:	2c 85       	ldd	r18, Y+12	; 0x0c
    4b60:	3d 85       	ldd	r19, Y+13	; 0x0d
    4b62:	25 30       	cpi	r18, 0x05	; 5
    4b64:	31 05       	cpc	r19, r1
    4b66:	89 f1       	breq	.+98     	; 0x4bca <TIMER1_u8HWPWMGenerate+0xe6>
    4b68:	3c c0       	rjmp	.+120    	; 0x4be2 <TIMER1_u8HWPWMGenerate+0xfe>
			{
			case PRSCLR_DIV_BY_1    : ICR1 = Copy_u16PeriodTime*8   ; break;
    4b6a:	e6 e4       	ldi	r30, 0x46	; 70
    4b6c:	f0 e0       	ldi	r31, 0x00	; 0
    4b6e:	8c 81       	ldd	r24, Y+4	; 0x04
    4b70:	9d 81       	ldd	r25, Y+5	; 0x05
    4b72:	88 0f       	add	r24, r24
    4b74:	99 1f       	adc	r25, r25
    4b76:	88 0f       	add	r24, r24
    4b78:	99 1f       	adc	r25, r25
    4b7a:	88 0f       	add	r24, r24
    4b7c:	99 1f       	adc	r25, r25
    4b7e:	91 83       	std	Z+1, r25	; 0x01
    4b80:	80 83       	st	Z, r24
    4b82:	31 c0       	rjmp	.+98     	; 0x4be6 <TIMER1_u8HWPWMGenerate+0x102>
			case PRSCLR_DIV_BY_8    : ICR1 = Copy_u16PeriodTime     ; break;
    4b84:	e6 e4       	ldi	r30, 0x46	; 70
    4b86:	f0 e0       	ldi	r31, 0x00	; 0
    4b88:	8c 81       	ldd	r24, Y+4	; 0x04
    4b8a:	9d 81       	ldd	r25, Y+5	; 0x05
    4b8c:	91 83       	std	Z+1, r25	; 0x01
    4b8e:	80 83       	st	Z, r24
    4b90:	2a c0       	rjmp	.+84     	; 0x4be6 <TIMER1_u8HWPWMGenerate+0x102>
			case PRSCLR_DIV_BY_64   : ICR1 = Copy_u16PeriodTime/8   ; break;
    4b92:	e6 e4       	ldi	r30, 0x46	; 70
    4b94:	f0 e0       	ldi	r31, 0x00	; 0
    4b96:	8c 81       	ldd	r24, Y+4	; 0x04
    4b98:	9d 81       	ldd	r25, Y+5	; 0x05
    4b9a:	96 95       	lsr	r25
    4b9c:	87 95       	ror	r24
    4b9e:	96 95       	lsr	r25
    4ba0:	87 95       	ror	r24
    4ba2:	96 95       	lsr	r25
    4ba4:	87 95       	ror	r24
    4ba6:	91 83       	std	Z+1, r25	; 0x01
    4ba8:	80 83       	st	Z, r24
    4baa:	1d c0       	rjmp	.+58     	; 0x4be6 <TIMER1_u8HWPWMGenerate+0x102>
			case PRSCLR_DIV_BY_256  : ICR1 = Copy_u16PeriodTime/32  ; break;
    4bac:	e6 e4       	ldi	r30, 0x46	; 70
    4bae:	f0 e0       	ldi	r31, 0x00	; 0
    4bb0:	8c 81       	ldd	r24, Y+4	; 0x04
    4bb2:	9d 81       	ldd	r25, Y+5	; 0x05
    4bb4:	96 95       	lsr	r25
    4bb6:	87 95       	ror	r24
    4bb8:	92 95       	swap	r25
    4bba:	82 95       	swap	r24
    4bbc:	8f 70       	andi	r24, 0x0F	; 15
    4bbe:	89 27       	eor	r24, r25
    4bc0:	9f 70       	andi	r25, 0x0F	; 15
    4bc2:	89 27       	eor	r24, r25
    4bc4:	91 83       	std	Z+1, r25	; 0x01
    4bc6:	80 83       	st	Z, r24
    4bc8:	0e c0       	rjmp	.+28     	; 0x4be6 <TIMER1_u8HWPWMGenerate+0x102>
			case PRSCLR_DIV_BY_1024 : ICR1 = Copy_u16PeriodTime/128 ; break;
    4bca:	e6 e4       	ldi	r30, 0x46	; 70
    4bcc:	f0 e0       	ldi	r31, 0x00	; 0
    4bce:	8c 81       	ldd	r24, Y+4	; 0x04
    4bd0:	9d 81       	ldd	r25, Y+5	; 0x05
    4bd2:	88 0f       	add	r24, r24
    4bd4:	89 2f       	mov	r24, r25
    4bd6:	88 1f       	adc	r24, r24
    4bd8:	99 0b       	sbc	r25, r25
    4bda:	91 95       	neg	r25
    4bdc:	91 83       	std	Z+1, r25	; 0x01
    4bde:	80 83       	st	Z, r24
    4be0:	02 c0       	rjmp	.+4      	; 0x4be6 <TIMER1_u8HWPWMGenerate+0x102>
			default: Local_u8ErrorState=NOK;
    4be2:	81 e0       	ldi	r24, 0x01	; 1
    4be4:	89 83       	std	Y+1, r24	; 0x01
			}

			if(Copy_u16OnTime<=Copy_u16PeriodTime)
    4be6:	2e 81       	ldd	r18, Y+6	; 0x06
    4be8:	3f 81       	ldd	r19, Y+7	; 0x07
    4bea:	8c 81       	ldd	r24, Y+4	; 0x04
    4bec:	9d 81       	ldd	r25, Y+5	; 0x05
    4bee:	82 17       	cp	r24, r18
    4bf0:	93 07       	cpc	r25, r19
    4bf2:	08 f4       	brcc	.+2      	; 0x4bf6 <TIMER1_u8HWPWMGenerate+0x112>
    4bf4:	e6 c0       	rjmp	.+460    	; 0x4dc2 <TIMER1_u8HWPWMGenerate+0x2de>
			{
				//ON Time=Compare Match Time
				if((Copy_psTimer->CompareMatchOutputMode_A)== OCM_FAST_PWM_NON_INVERTED && (Copy_psTimer->CompareMatchOutputMode_B) == OCM_DISCONNECT )
    4bf6:	ea 81       	ldd	r30, Y+2	; 0x02
    4bf8:	fb 81       	ldd	r31, Y+3	; 0x03
    4bfa:	82 81       	ldd	r24, Z+2	; 0x02
    4bfc:	82 30       	cpi	r24, 0x02	; 2
    4bfe:	09 f0       	breq	.+2      	; 0x4c02 <TIMER1_u8HWPWMGenerate+0x11e>
    4c00:	6b c0       	rjmp	.+214    	; 0x4cd8 <TIMER1_u8HWPWMGenerate+0x1f4>
    4c02:	ea 81       	ldd	r30, Y+2	; 0x02
    4c04:	fb 81       	ldd	r31, Y+3	; 0x03
    4c06:	83 81       	ldd	r24, Z+3	; 0x03
    4c08:	88 23       	and	r24, r24
    4c0a:	09 f0       	breq	.+2      	; 0x4c0e <TIMER1_u8HWPWMGenerate+0x12a>
    4c0c:	65 c0       	rjmp	.+202    	; 0x4cd8 <TIMER1_u8HWPWMGenerate+0x1f4>
				{
					switch(Copy_psTimer->Prescaler)
    4c0e:	ea 81       	ldd	r30, Y+2	; 0x02
    4c10:	fb 81       	ldd	r31, Y+3	; 0x03
    4c12:	81 81       	ldd	r24, Z+1	; 0x01
    4c14:	28 2f       	mov	r18, r24
    4c16:	30 e0       	ldi	r19, 0x00	; 0
    4c18:	3b 87       	std	Y+11, r19	; 0x0b
    4c1a:	2a 87       	std	Y+10, r18	; 0x0a
    4c1c:	8a 85       	ldd	r24, Y+10	; 0x0a
    4c1e:	9b 85       	ldd	r25, Y+11	; 0x0b
    4c20:	83 30       	cpi	r24, 0x03	; 3
    4c22:	91 05       	cpc	r25, r1
    4c24:	79 f1       	breq	.+94     	; 0x4c84 <TIMER1_u8HWPWMGenerate+0x1a0>
    4c26:	2a 85       	ldd	r18, Y+10	; 0x0a
    4c28:	3b 85       	ldd	r19, Y+11	; 0x0b
    4c2a:	24 30       	cpi	r18, 0x04	; 4
    4c2c:	31 05       	cpc	r19, r1
    4c2e:	5c f4       	brge	.+22     	; 0x4c46 <TIMER1_u8HWPWMGenerate+0x162>
    4c30:	8a 85       	ldd	r24, Y+10	; 0x0a
    4c32:	9b 85       	ldd	r25, Y+11	; 0x0b
    4c34:	81 30       	cpi	r24, 0x01	; 1
    4c36:	91 05       	cpc	r25, r1
    4c38:	89 f0       	breq	.+34     	; 0x4c5c <TIMER1_u8HWPWMGenerate+0x178>
    4c3a:	2a 85       	ldd	r18, Y+10	; 0x0a
    4c3c:	3b 85       	ldd	r19, Y+11	; 0x0b
    4c3e:	22 30       	cpi	r18, 0x02	; 2
    4c40:	31 05       	cpc	r19, r1
    4c42:	c9 f0       	breq	.+50     	; 0x4c76 <TIMER1_u8HWPWMGenerate+0x192>
    4c44:	47 c0       	rjmp	.+142    	; 0x4cd4 <TIMER1_u8HWPWMGenerate+0x1f0>
    4c46:	8a 85       	ldd	r24, Y+10	; 0x0a
    4c48:	9b 85       	ldd	r25, Y+11	; 0x0b
    4c4a:	84 30       	cpi	r24, 0x04	; 4
    4c4c:	91 05       	cpc	r25, r1
    4c4e:	39 f1       	breq	.+78     	; 0x4c9e <TIMER1_u8HWPWMGenerate+0x1ba>
    4c50:	2a 85       	ldd	r18, Y+10	; 0x0a
    4c52:	3b 85       	ldd	r19, Y+11	; 0x0b
    4c54:	25 30       	cpi	r18, 0x05	; 5
    4c56:	31 05       	cpc	r19, r1
    4c58:	89 f1       	breq	.+98     	; 0x4cbc <TIMER1_u8HWPWMGenerate+0x1d8>
    4c5a:	3c c0       	rjmp	.+120    	; 0x4cd4 <TIMER1_u8HWPWMGenerate+0x1f0>
					{
					case PRSCLR_DIV_BY_1    : OCR1A = Copy_u16OnTime*8   ; break;
    4c5c:	ea e4       	ldi	r30, 0x4A	; 74
    4c5e:	f0 e0       	ldi	r31, 0x00	; 0
    4c60:	8e 81       	ldd	r24, Y+6	; 0x06
    4c62:	9f 81       	ldd	r25, Y+7	; 0x07
    4c64:	88 0f       	add	r24, r24
    4c66:	99 1f       	adc	r25, r25
    4c68:	88 0f       	add	r24, r24
    4c6a:	99 1f       	adc	r25, r25
    4c6c:	88 0f       	add	r24, r24
    4c6e:	99 1f       	adc	r25, r25
    4c70:	91 83       	std	Z+1, r25	; 0x01
    4c72:	80 83       	st	Z, r24
    4c74:	31 c0       	rjmp	.+98     	; 0x4cd8 <TIMER1_u8HWPWMGenerate+0x1f4>
					case PRSCLR_DIV_BY_8    : OCR1A = Copy_u16OnTime     ; break;
    4c76:	ea e4       	ldi	r30, 0x4A	; 74
    4c78:	f0 e0       	ldi	r31, 0x00	; 0
    4c7a:	8e 81       	ldd	r24, Y+6	; 0x06
    4c7c:	9f 81       	ldd	r25, Y+7	; 0x07
    4c7e:	91 83       	std	Z+1, r25	; 0x01
    4c80:	80 83       	st	Z, r24
    4c82:	2a c0       	rjmp	.+84     	; 0x4cd8 <TIMER1_u8HWPWMGenerate+0x1f4>
					case PRSCLR_DIV_BY_64   : OCR1A = Copy_u16OnTime/8   ; break;
    4c84:	ea e4       	ldi	r30, 0x4A	; 74
    4c86:	f0 e0       	ldi	r31, 0x00	; 0
    4c88:	8e 81       	ldd	r24, Y+6	; 0x06
    4c8a:	9f 81       	ldd	r25, Y+7	; 0x07
    4c8c:	96 95       	lsr	r25
    4c8e:	87 95       	ror	r24
    4c90:	96 95       	lsr	r25
    4c92:	87 95       	ror	r24
    4c94:	96 95       	lsr	r25
    4c96:	87 95       	ror	r24
    4c98:	91 83       	std	Z+1, r25	; 0x01
    4c9a:	80 83       	st	Z, r24
    4c9c:	1d c0       	rjmp	.+58     	; 0x4cd8 <TIMER1_u8HWPWMGenerate+0x1f4>
					case PRSCLR_DIV_BY_256  : OCR1A = Copy_u16OnTime/32  ; break;
    4c9e:	ea e4       	ldi	r30, 0x4A	; 74
    4ca0:	f0 e0       	ldi	r31, 0x00	; 0
    4ca2:	8e 81       	ldd	r24, Y+6	; 0x06
    4ca4:	9f 81       	ldd	r25, Y+7	; 0x07
    4ca6:	96 95       	lsr	r25
    4ca8:	87 95       	ror	r24
    4caa:	92 95       	swap	r25
    4cac:	82 95       	swap	r24
    4cae:	8f 70       	andi	r24, 0x0F	; 15
    4cb0:	89 27       	eor	r24, r25
    4cb2:	9f 70       	andi	r25, 0x0F	; 15
    4cb4:	89 27       	eor	r24, r25
    4cb6:	91 83       	std	Z+1, r25	; 0x01
    4cb8:	80 83       	st	Z, r24
    4cba:	0e c0       	rjmp	.+28     	; 0x4cd8 <TIMER1_u8HWPWMGenerate+0x1f4>
					case PRSCLR_DIV_BY_1024 : OCR1A = Copy_u16OnTime/128 ; break;
    4cbc:	ea e4       	ldi	r30, 0x4A	; 74
    4cbe:	f0 e0       	ldi	r31, 0x00	; 0
    4cc0:	8e 81       	ldd	r24, Y+6	; 0x06
    4cc2:	9f 81       	ldd	r25, Y+7	; 0x07
    4cc4:	88 0f       	add	r24, r24
    4cc6:	89 2f       	mov	r24, r25
    4cc8:	88 1f       	adc	r24, r24
    4cca:	99 0b       	sbc	r25, r25
    4ccc:	91 95       	neg	r25
    4cce:	91 83       	std	Z+1, r25	; 0x01
    4cd0:	80 83       	st	Z, r24
    4cd2:	02 c0       	rjmp	.+4      	; 0x4cd8 <TIMER1_u8HWPWMGenerate+0x1f4>
					default: Local_u8ErrorState=NOK;
    4cd4:	81 e0       	ldi	r24, 0x01	; 1
    4cd6:	89 83       	std	Y+1, r24	; 0x01
					}
					//					OCR1A=Copy_u16OnTime;
				}
				if( (Copy_psTimer->CompareMatchOutputMode_B) == OCM_FAST_PWM_NON_INVERTED && (Copy_psTimer->CompareMatchOutputMode_A) == OCM_DISCONNECT )
    4cd8:	ea 81       	ldd	r30, Y+2	; 0x02
    4cda:	fb 81       	ldd	r31, Y+3	; 0x03
    4cdc:	83 81       	ldd	r24, Z+3	; 0x03
    4cde:	82 30       	cpi	r24, 0x02	; 2
    4ce0:	09 f0       	breq	.+2      	; 0x4ce4 <TIMER1_u8HWPWMGenerate+0x200>
    4ce2:	6c c0       	rjmp	.+216    	; 0x4dbc <TIMER1_u8HWPWMGenerate+0x2d8>
    4ce4:	ea 81       	ldd	r30, Y+2	; 0x02
    4ce6:	fb 81       	ldd	r31, Y+3	; 0x03
    4ce8:	82 81       	ldd	r24, Z+2	; 0x02
    4cea:	88 23       	and	r24, r24
    4cec:	09 f0       	breq	.+2      	; 0x4cf0 <TIMER1_u8HWPWMGenerate+0x20c>
    4cee:	66 c0       	rjmp	.+204    	; 0x4dbc <TIMER1_u8HWPWMGenerate+0x2d8>
				{
					switch(Copy_psTimer->Prescaler)
    4cf0:	ea 81       	ldd	r30, Y+2	; 0x02
    4cf2:	fb 81       	ldd	r31, Y+3	; 0x03
    4cf4:	81 81       	ldd	r24, Z+1	; 0x01
    4cf6:	28 2f       	mov	r18, r24
    4cf8:	30 e0       	ldi	r19, 0x00	; 0
    4cfa:	39 87       	std	Y+9, r19	; 0x09
    4cfc:	28 87       	std	Y+8, r18	; 0x08
    4cfe:	88 85       	ldd	r24, Y+8	; 0x08
    4d00:	99 85       	ldd	r25, Y+9	; 0x09
    4d02:	83 30       	cpi	r24, 0x03	; 3
    4d04:	91 05       	cpc	r25, r1
    4d06:	79 f1       	breq	.+94     	; 0x4d66 <TIMER1_u8HWPWMGenerate+0x282>
    4d08:	28 85       	ldd	r18, Y+8	; 0x08
    4d0a:	39 85       	ldd	r19, Y+9	; 0x09
    4d0c:	24 30       	cpi	r18, 0x04	; 4
    4d0e:	31 05       	cpc	r19, r1
    4d10:	5c f4       	brge	.+22     	; 0x4d28 <TIMER1_u8HWPWMGenerate+0x244>
    4d12:	88 85       	ldd	r24, Y+8	; 0x08
    4d14:	99 85       	ldd	r25, Y+9	; 0x09
    4d16:	81 30       	cpi	r24, 0x01	; 1
    4d18:	91 05       	cpc	r25, r1
    4d1a:	89 f0       	breq	.+34     	; 0x4d3e <TIMER1_u8HWPWMGenerate+0x25a>
    4d1c:	28 85       	ldd	r18, Y+8	; 0x08
    4d1e:	39 85       	ldd	r19, Y+9	; 0x09
    4d20:	22 30       	cpi	r18, 0x02	; 2
    4d22:	31 05       	cpc	r19, r1
    4d24:	c9 f0       	breq	.+50     	; 0x4d58 <TIMER1_u8HWPWMGenerate+0x274>
    4d26:	47 c0       	rjmp	.+142    	; 0x4db6 <TIMER1_u8HWPWMGenerate+0x2d2>
    4d28:	88 85       	ldd	r24, Y+8	; 0x08
    4d2a:	99 85       	ldd	r25, Y+9	; 0x09
    4d2c:	84 30       	cpi	r24, 0x04	; 4
    4d2e:	91 05       	cpc	r25, r1
    4d30:	39 f1       	breq	.+78     	; 0x4d80 <TIMER1_u8HWPWMGenerate+0x29c>
    4d32:	28 85       	ldd	r18, Y+8	; 0x08
    4d34:	39 85       	ldd	r19, Y+9	; 0x09
    4d36:	25 30       	cpi	r18, 0x05	; 5
    4d38:	31 05       	cpc	r19, r1
    4d3a:	89 f1       	breq	.+98     	; 0x4d9e <TIMER1_u8HWPWMGenerate+0x2ba>
    4d3c:	3c c0       	rjmp	.+120    	; 0x4db6 <TIMER1_u8HWPWMGenerate+0x2d2>
					{
					case PRSCLR_DIV_BY_1    : OCR1B = Copy_u16OnTime*8   ; break;
    4d3e:	e8 e4       	ldi	r30, 0x48	; 72
    4d40:	f0 e0       	ldi	r31, 0x00	; 0
    4d42:	8e 81       	ldd	r24, Y+6	; 0x06
    4d44:	9f 81       	ldd	r25, Y+7	; 0x07
    4d46:	88 0f       	add	r24, r24
    4d48:	99 1f       	adc	r25, r25
    4d4a:	88 0f       	add	r24, r24
    4d4c:	99 1f       	adc	r25, r25
    4d4e:	88 0f       	add	r24, r24
    4d50:	99 1f       	adc	r25, r25
    4d52:	91 83       	std	Z+1, r25	; 0x01
    4d54:	80 83       	st	Z, r24
    4d56:	3d c0       	rjmp	.+122    	; 0x4dd2 <TIMER1_u8HWPWMGenerate+0x2ee>
					case PRSCLR_DIV_BY_8    : OCR1B = Copy_u16OnTime     ; break;
    4d58:	e8 e4       	ldi	r30, 0x48	; 72
    4d5a:	f0 e0       	ldi	r31, 0x00	; 0
    4d5c:	8e 81       	ldd	r24, Y+6	; 0x06
    4d5e:	9f 81       	ldd	r25, Y+7	; 0x07
    4d60:	91 83       	std	Z+1, r25	; 0x01
    4d62:	80 83       	st	Z, r24
    4d64:	36 c0       	rjmp	.+108    	; 0x4dd2 <TIMER1_u8HWPWMGenerate+0x2ee>
					case PRSCLR_DIV_BY_64   : OCR1B = Copy_u16OnTime/8   ; break;
    4d66:	e8 e4       	ldi	r30, 0x48	; 72
    4d68:	f0 e0       	ldi	r31, 0x00	; 0
    4d6a:	8e 81       	ldd	r24, Y+6	; 0x06
    4d6c:	9f 81       	ldd	r25, Y+7	; 0x07
    4d6e:	96 95       	lsr	r25
    4d70:	87 95       	ror	r24
    4d72:	96 95       	lsr	r25
    4d74:	87 95       	ror	r24
    4d76:	96 95       	lsr	r25
    4d78:	87 95       	ror	r24
    4d7a:	91 83       	std	Z+1, r25	; 0x01
    4d7c:	80 83       	st	Z, r24
    4d7e:	29 c0       	rjmp	.+82     	; 0x4dd2 <TIMER1_u8HWPWMGenerate+0x2ee>
					case PRSCLR_DIV_BY_256  : OCR1B = Copy_u16OnTime/32  ; break;
    4d80:	e8 e4       	ldi	r30, 0x48	; 72
    4d82:	f0 e0       	ldi	r31, 0x00	; 0
    4d84:	8e 81       	ldd	r24, Y+6	; 0x06
    4d86:	9f 81       	ldd	r25, Y+7	; 0x07
    4d88:	96 95       	lsr	r25
    4d8a:	87 95       	ror	r24
    4d8c:	92 95       	swap	r25
    4d8e:	82 95       	swap	r24
    4d90:	8f 70       	andi	r24, 0x0F	; 15
    4d92:	89 27       	eor	r24, r25
    4d94:	9f 70       	andi	r25, 0x0F	; 15
    4d96:	89 27       	eor	r24, r25
    4d98:	91 83       	std	Z+1, r25	; 0x01
    4d9a:	80 83       	st	Z, r24
    4d9c:	1a c0       	rjmp	.+52     	; 0x4dd2 <TIMER1_u8HWPWMGenerate+0x2ee>
					case PRSCLR_DIV_BY_1024 : OCR1B = Copy_u16OnTime/128 ; break;
    4d9e:	e8 e4       	ldi	r30, 0x48	; 72
    4da0:	f0 e0       	ldi	r31, 0x00	; 0
    4da2:	8e 81       	ldd	r24, Y+6	; 0x06
    4da4:	9f 81       	ldd	r25, Y+7	; 0x07
    4da6:	88 0f       	add	r24, r24
    4da8:	89 2f       	mov	r24, r25
    4daa:	88 1f       	adc	r24, r24
    4dac:	99 0b       	sbc	r25, r25
    4dae:	91 95       	neg	r25
    4db0:	91 83       	std	Z+1, r25	; 0x01
    4db2:	80 83       	st	Z, r24
    4db4:	0e c0       	rjmp	.+28     	; 0x4dd2 <TIMER1_u8HWPWMGenerate+0x2ee>
					default: Local_u8ErrorState=NOK;
    4db6:	81 e0       	ldi	r24, 0x01	; 1
    4db8:	89 83       	std	Y+1, r24	; 0x01
    4dba:	0b c0       	rjmp	.+22     	; 0x4dd2 <TIMER1_u8HWPWMGenerate+0x2ee>
					}
					//					OCR1B=Copy_u16OnTime;
				}
				else
				{
					Local_u8ErrorState=NOK;
    4dbc:	81 e0       	ldi	r24, 0x01	; 1
    4dbe:	89 83       	std	Y+1, r24	; 0x01
    4dc0:	08 c0       	rjmp	.+16     	; 0x4dd2 <TIMER1_u8HWPWMGenerate+0x2ee>
				}
			}
			else
			{
				Local_u8ErrorState=NOK;
    4dc2:	81 e0       	ldi	r24, 0x01	; 1
    4dc4:	89 83       	std	Y+1, r24	; 0x01
    4dc6:	05 c0       	rjmp	.+10     	; 0x4dd2 <TIMER1_u8HWPWMGenerate+0x2ee>

			}
		}
		else
		{
			Local_u8ErrorState=NOK;
    4dc8:	81 e0       	ldi	r24, 0x01	; 1
    4dca:	89 83       	std	Y+1, r24	; 0x01
    4dcc:	02 c0       	rjmp	.+4      	; 0x4dd2 <TIMER1_u8HWPWMGenerate+0x2ee>
		}
	}
	else
	{
		Local_u8ErrorState=NULL_POINTER;
    4dce:	82 e0       	ldi	r24, 0x02	; 2
    4dd0:	89 83       	std	Y+1, r24	; 0x01
	}
	return Local_u8ErrorState;
    4dd2:	89 81       	ldd	r24, Y+1	; 0x01
}
    4dd4:	2d 96       	adiw	r28, 0x0d	; 13
    4dd6:	0f b6       	in	r0, 0x3f	; 63
    4dd8:	f8 94       	cli
    4dda:	de bf       	out	0x3e, r29	; 62
    4ddc:	0f be       	out	0x3f, r0	; 63
    4dde:	cd bf       	out	0x3d, r28	; 61
    4de0:	cf 91       	pop	r28
    4de2:	df 91       	pop	r29
    4de4:	08 95       	ret

00004de6 <TIMER2_u8Init>:
/************************************************************************************************************************/
/********************************************************TIMER2**********************************************************
 ************************************************************************************************************************/

/*Timer2 Initialization*/
u8 TIMER2_u8Init(Timer_t* Copy_psTimer){
    4de6:	df 93       	push	r29
    4de8:	cf 93       	push	r28
    4dea:	00 d0       	rcall	.+0      	; 0x4dec <TIMER2_u8Init+0x6>
    4dec:	0f 92       	push	r0
    4dee:	cd b7       	in	r28, 0x3d	; 61
    4df0:	de b7       	in	r29, 0x3e	; 62
    4df2:	9b 83       	std	Y+3, r25	; 0x03
    4df4:	8a 83       	std	Y+2, r24	; 0x02
	u8 Local_u8ErrorState=OK;
    4df6:	19 82       	std	Y+1, r1	; 0x01
	//Wave Generation Mode:-
	if(Copy_psTimer!=NULL)
    4df8:	8a 81       	ldd	r24, Y+2	; 0x02
    4dfa:	9b 81       	ldd	r25, Y+3	; 0x03
    4dfc:	00 97       	sbiw	r24, 0x00	; 0
    4dfe:	09 f4       	brne	.+2      	; 0x4e02 <TIMER2_u8Init+0x1c>
    4e00:	b6 c0       	rjmp	.+364    	; 0x4f6e <TIMER2_u8Init+0x188>
	{
		if(Copy_psTimer->WaveGenMode==TIMER_NORMAL)
    4e02:	ea 81       	ldd	r30, Y+2	; 0x02
    4e04:	fb 81       	ldd	r31, Y+3	; 0x03
    4e06:	80 81       	ld	r24, Z
    4e08:	81 30       	cpi	r24, 0x01	; 1
    4e0a:	79 f4       	brne	.+30     	; 0x4e2a <TIMER2_u8Init+0x44>
		{
			CLR_BIT(TCCR2,TCCR2_WGM21);
    4e0c:	a5 e4       	ldi	r26, 0x45	; 69
    4e0e:	b0 e0       	ldi	r27, 0x00	; 0
    4e10:	e5 e4       	ldi	r30, 0x45	; 69
    4e12:	f0 e0       	ldi	r31, 0x00	; 0
    4e14:	80 81       	ld	r24, Z
    4e16:	87 7f       	andi	r24, 0xF7	; 247
    4e18:	8c 93       	st	X, r24
			CLR_BIT(TCCR2,TCCR2_WGM20);
    4e1a:	a5 e4       	ldi	r26, 0x45	; 69
    4e1c:	b0 e0       	ldi	r27, 0x00	; 0
    4e1e:	e5 e4       	ldi	r30, 0x45	; 69
    4e20:	f0 e0       	ldi	r31, 0x00	; 0
    4e22:	80 81       	ld	r24, Z
    4e24:	8f 7b       	andi	r24, 0xBF	; 191
    4e26:	8c 93       	st	X, r24
    4e28:	3e c0       	rjmp	.+124    	; 0x4ea6 <TIMER2_u8Init+0xc0>
		}
		else if(Copy_psTimer->WaveGenMode==TIMER_PHC_PWM)
    4e2a:	ea 81       	ldd	r30, Y+2	; 0x02
    4e2c:	fb 81       	ldd	r31, Y+3	; 0x03
    4e2e:	80 81       	ld	r24, Z
    4e30:	82 30       	cpi	r24, 0x02	; 2
    4e32:	79 f4       	brne	.+30     	; 0x4e52 <TIMER2_u8Init+0x6c>
		{
			CLR_BIT(TCCR2,TCCR2_WGM21);
    4e34:	a5 e4       	ldi	r26, 0x45	; 69
    4e36:	b0 e0       	ldi	r27, 0x00	; 0
    4e38:	e5 e4       	ldi	r30, 0x45	; 69
    4e3a:	f0 e0       	ldi	r31, 0x00	; 0
    4e3c:	80 81       	ld	r24, Z
    4e3e:	87 7f       	andi	r24, 0xF7	; 247
    4e40:	8c 93       	st	X, r24
			SET_BIT(TCCR2,TCCR2_WGM20);
    4e42:	a5 e4       	ldi	r26, 0x45	; 69
    4e44:	b0 e0       	ldi	r27, 0x00	; 0
    4e46:	e5 e4       	ldi	r30, 0x45	; 69
    4e48:	f0 e0       	ldi	r31, 0x00	; 0
    4e4a:	80 81       	ld	r24, Z
    4e4c:	80 64       	ori	r24, 0x40	; 64
    4e4e:	8c 93       	st	X, r24
    4e50:	2a c0       	rjmp	.+84     	; 0x4ea6 <TIMER2_u8Init+0xc0>
		}
		else if(Copy_psTimer->WaveGenMode==TIMER_CTC)
    4e52:	ea 81       	ldd	r30, Y+2	; 0x02
    4e54:	fb 81       	ldd	r31, Y+3	; 0x03
    4e56:	80 81       	ld	r24, Z
    4e58:	83 30       	cpi	r24, 0x03	; 3
    4e5a:	79 f4       	brne	.+30     	; 0x4e7a <TIMER2_u8Init+0x94>
		{
			SET_BIT(TCCR2,TCCR2_WGM21);
    4e5c:	a5 e4       	ldi	r26, 0x45	; 69
    4e5e:	b0 e0       	ldi	r27, 0x00	; 0
    4e60:	e5 e4       	ldi	r30, 0x45	; 69
    4e62:	f0 e0       	ldi	r31, 0x00	; 0
    4e64:	80 81       	ld	r24, Z
    4e66:	88 60       	ori	r24, 0x08	; 8
    4e68:	8c 93       	st	X, r24
			CLR_BIT(TCCR2,TCCR2_WGM20);
    4e6a:	a5 e4       	ldi	r26, 0x45	; 69
    4e6c:	b0 e0       	ldi	r27, 0x00	; 0
    4e6e:	e5 e4       	ldi	r30, 0x45	; 69
    4e70:	f0 e0       	ldi	r31, 0x00	; 0
    4e72:	80 81       	ld	r24, Z
    4e74:	8f 7b       	andi	r24, 0xBF	; 191
    4e76:	8c 93       	st	X, r24
    4e78:	16 c0       	rjmp	.+44     	; 0x4ea6 <TIMER2_u8Init+0xc0>
		}
		else if(Copy_psTimer->WaveGenMode==TIMER_FAST_PWM)
    4e7a:	ea 81       	ldd	r30, Y+2	; 0x02
    4e7c:	fb 81       	ldd	r31, Y+3	; 0x03
    4e7e:	80 81       	ld	r24, Z
    4e80:	84 30       	cpi	r24, 0x04	; 4
    4e82:	79 f4       	brne	.+30     	; 0x4ea2 <TIMER2_u8Init+0xbc>
		{
			SET_BIT(TCCR2,TCCR2_WGM21);
    4e84:	a5 e4       	ldi	r26, 0x45	; 69
    4e86:	b0 e0       	ldi	r27, 0x00	; 0
    4e88:	e5 e4       	ldi	r30, 0x45	; 69
    4e8a:	f0 e0       	ldi	r31, 0x00	; 0
    4e8c:	80 81       	ld	r24, Z
    4e8e:	88 60       	ori	r24, 0x08	; 8
    4e90:	8c 93       	st	X, r24
			SET_BIT(TCCR2,TCCR2_WGM20);
    4e92:	a5 e4       	ldi	r26, 0x45	; 69
    4e94:	b0 e0       	ldi	r27, 0x00	; 0
    4e96:	e5 e4       	ldi	r30, 0x45	; 69
    4e98:	f0 e0       	ldi	r31, 0x00	; 0
    4e9a:	80 81       	ld	r24, Z
    4e9c:	80 64       	ori	r24, 0x40	; 64
    4e9e:	8c 93       	st	X, r24
    4ea0:	02 c0       	rjmp	.+4      	; 0x4ea6 <TIMER2_u8Init+0xc0>
		}
		else{
			Local_u8ErrorState=NOK;
    4ea2:	81 e0       	ldi	r24, 0x01	; 1
    4ea4:	89 83       	std	Y+1, r24	; 0x01
		}
		//Initialize Compare Match Output Mode
		TCCR2&=COMP_MATCH_OUT_MASK;
    4ea6:	a5 e4       	ldi	r26, 0x45	; 69
    4ea8:	b0 e0       	ldi	r27, 0x00	; 0
    4eaa:	e5 e4       	ldi	r30, 0x45	; 69
    4eac:	f0 e0       	ldi	r31, 0x00	; 0
    4eae:	80 81       	ld	r24, Z
    4eb0:	8f 7c       	andi	r24, 0xCF	; 207
    4eb2:	8c 93       	st	X, r24
		TCCR2|=((Copy_psTimer->CompareMatchOutputMode)<<4);
    4eb4:	a5 e4       	ldi	r26, 0x45	; 69
    4eb6:	b0 e0       	ldi	r27, 0x00	; 0
    4eb8:	e5 e4       	ldi	r30, 0x45	; 69
    4eba:	f0 e0       	ldi	r31, 0x00	; 0
    4ebc:	80 81       	ld	r24, Z
    4ebe:	28 2f       	mov	r18, r24
    4ec0:	ea 81       	ldd	r30, Y+2	; 0x02
    4ec2:	fb 81       	ldd	r31, Y+3	; 0x03
    4ec4:	82 81       	ldd	r24, Z+2	; 0x02
    4ec6:	88 2f       	mov	r24, r24
    4ec8:	90 e0       	ldi	r25, 0x00	; 0
    4eca:	82 95       	swap	r24
    4ecc:	92 95       	swap	r25
    4ece:	90 7f       	andi	r25, 0xF0	; 240
    4ed0:	98 27       	eor	r25, r24
    4ed2:	80 7f       	andi	r24, 0xF0	; 240
    4ed4:	98 27       	eor	r25, r24
    4ed6:	82 2b       	or	r24, r18
    4ed8:	8c 93       	st	X, r24
		//Initialize Interrupt Enable pins
		if(Copy_psTimer->CompareMatchInterrupt==INT_ENABLE)
    4eda:	ea 81       	ldd	r30, Y+2	; 0x02
    4edc:	fb 81       	ldd	r31, Y+3	; 0x03
    4ede:	83 81       	ldd	r24, Z+3	; 0x03
    4ee0:	81 30       	cpi	r24, 0x01	; 1
    4ee2:	41 f4       	brne	.+16     	; 0x4ef4 <TIMER2_u8Init+0x10e>
		{
			SET_BIT(TIMSK,TIMSK_OCIE2);
    4ee4:	a9 e5       	ldi	r26, 0x59	; 89
    4ee6:	b0 e0       	ldi	r27, 0x00	; 0
    4ee8:	e9 e5       	ldi	r30, 0x59	; 89
    4eea:	f0 e0       	ldi	r31, 0x00	; 0
    4eec:	80 81       	ld	r24, Z
    4eee:	80 68       	ori	r24, 0x80	; 128
    4ef0:	8c 93       	st	X, r24
    4ef2:	0f c0       	rjmp	.+30     	; 0x4f12 <TIMER2_u8Init+0x12c>
		}
		else if(Copy_psTimer->CompareMatchInterrupt==INT_DISABLE)
    4ef4:	ea 81       	ldd	r30, Y+2	; 0x02
    4ef6:	fb 81       	ldd	r31, Y+3	; 0x03
    4ef8:	83 81       	ldd	r24, Z+3	; 0x03
    4efa:	82 30       	cpi	r24, 0x02	; 2
    4efc:	41 f4       	brne	.+16     	; 0x4f0e <TIMER2_u8Init+0x128>
		{
			CLR_BIT(TIMSK,TIMSK_OCIE2);
    4efe:	a9 e5       	ldi	r26, 0x59	; 89
    4f00:	b0 e0       	ldi	r27, 0x00	; 0
    4f02:	e9 e5       	ldi	r30, 0x59	; 89
    4f04:	f0 e0       	ldi	r31, 0x00	; 0
    4f06:	80 81       	ld	r24, Z
    4f08:	8f 77       	andi	r24, 0x7F	; 127
    4f0a:	8c 93       	st	X, r24
    4f0c:	02 c0       	rjmp	.+4      	; 0x4f12 <TIMER2_u8Init+0x12c>
		}
		else
		{
			Local_u8ErrorState=NOK;
    4f0e:	81 e0       	ldi	r24, 0x01	; 1
    4f10:	89 83       	std	Y+1, r24	; 0x01
		}

		if(Copy_psTimer->OverFlowInterrupt==INT_ENABLE)
    4f12:	ea 81       	ldd	r30, Y+2	; 0x02
    4f14:	fb 81       	ldd	r31, Y+3	; 0x03
    4f16:	84 81       	ldd	r24, Z+4	; 0x04
    4f18:	81 30       	cpi	r24, 0x01	; 1
    4f1a:	41 f4       	brne	.+16     	; 0x4f2c <TIMER2_u8Init+0x146>
		{
			SET_BIT(TIMSK,TIMSK_TOIE2);
    4f1c:	a9 e5       	ldi	r26, 0x59	; 89
    4f1e:	b0 e0       	ldi	r27, 0x00	; 0
    4f20:	e9 e5       	ldi	r30, 0x59	; 89
    4f22:	f0 e0       	ldi	r31, 0x00	; 0
    4f24:	80 81       	ld	r24, Z
    4f26:	80 64       	ori	r24, 0x40	; 64
    4f28:	8c 93       	st	X, r24
    4f2a:	0f c0       	rjmp	.+30     	; 0x4f4a <TIMER2_u8Init+0x164>
		}
		else if(Copy_psTimer->OverFlowInterrupt==INT_DISABLE)
    4f2c:	ea 81       	ldd	r30, Y+2	; 0x02
    4f2e:	fb 81       	ldd	r31, Y+3	; 0x03
    4f30:	84 81       	ldd	r24, Z+4	; 0x04
    4f32:	82 30       	cpi	r24, 0x02	; 2
    4f34:	41 f4       	brne	.+16     	; 0x4f46 <TIMER2_u8Init+0x160>
		{
			CLR_BIT(TIMSK,TIMSK_TOIE2);
    4f36:	a9 e5       	ldi	r26, 0x59	; 89
    4f38:	b0 e0       	ldi	r27, 0x00	; 0
    4f3a:	e9 e5       	ldi	r30, 0x59	; 89
    4f3c:	f0 e0       	ldi	r31, 0x00	; 0
    4f3e:	80 81       	ld	r24, Z
    4f40:	8f 7b       	andi	r24, 0xBF	; 191
    4f42:	8c 93       	st	X, r24
    4f44:	02 c0       	rjmp	.+4      	; 0x4f4a <TIMER2_u8Init+0x164>
		}
		else
		{
			Local_u8ErrorState=NOK;
    4f46:	81 e0       	ldi	r24, 0x01	; 1
    4f48:	89 83       	std	Y+1, r24	; 0x01
		}
		//Initialize Prescaler ->>> Start the Timer
		TCCR2&=PRESCALER_MASK;
    4f4a:	a5 e4       	ldi	r26, 0x45	; 69
    4f4c:	b0 e0       	ldi	r27, 0x00	; 0
    4f4e:	e5 e4       	ldi	r30, 0x45	; 69
    4f50:	f0 e0       	ldi	r31, 0x00	; 0
    4f52:	80 81       	ld	r24, Z
    4f54:	88 7f       	andi	r24, 0xF8	; 248
    4f56:	8c 93       	st	X, r24
		TCCR2|=(Copy_psTimer->Prescaler);
    4f58:	a5 e4       	ldi	r26, 0x45	; 69
    4f5a:	b0 e0       	ldi	r27, 0x00	; 0
    4f5c:	e5 e4       	ldi	r30, 0x45	; 69
    4f5e:	f0 e0       	ldi	r31, 0x00	; 0
    4f60:	90 81       	ld	r25, Z
    4f62:	ea 81       	ldd	r30, Y+2	; 0x02
    4f64:	fb 81       	ldd	r31, Y+3	; 0x03
    4f66:	81 81       	ldd	r24, Z+1	; 0x01
    4f68:	89 2b       	or	r24, r25
    4f6a:	8c 93       	st	X, r24
    4f6c:	02 c0       	rjmp	.+4      	; 0x4f72 <TIMER2_u8Init+0x18c>
	}
	else
	{
		Local_u8ErrorState=NULL_POINTER;
    4f6e:	82 e0       	ldi	r24, 0x02	; 2
    4f70:	89 83       	std	Y+1, r24	; 0x01
	}
	return Local_u8ErrorState;
    4f72:	89 81       	ldd	r24, Y+1	; 0x01
}
    4f74:	0f 90       	pop	r0
    4f76:	0f 90       	pop	r0
    4f78:	0f 90       	pop	r0
    4f7a:	cf 91       	pop	r28
    4f7c:	df 91       	pop	r29
    4f7e:	08 95       	ret

00004f80 <TIMER2_u8PWMGenerate>:
/************************************************************************************************************************/
/*Function to generate HW PWM Signal*/
u8 TIMER2_u8PWMGenerate(Timer_t* Copy_psTimer,u8 Copy_u8DutyCycle)
{
    4f80:	8f 92       	push	r8
    4f82:	9f 92       	push	r9
    4f84:	af 92       	push	r10
    4f86:	bf 92       	push	r11
    4f88:	cf 92       	push	r12
    4f8a:	df 92       	push	r13
    4f8c:	ef 92       	push	r14
    4f8e:	ff 92       	push	r15
    4f90:	0f 93       	push	r16
    4f92:	1f 93       	push	r17
    4f94:	df 93       	push	r29
    4f96:	cf 93       	push	r28
    4f98:	00 d0       	rcall	.+0      	; 0x4f9a <TIMER2_u8PWMGenerate+0x1a>
    4f9a:	00 d0       	rcall	.+0      	; 0x4f9c <TIMER2_u8PWMGenerate+0x1c>
    4f9c:	cd b7       	in	r28, 0x3d	; 61
    4f9e:	de b7       	in	r29, 0x3e	; 62
    4fa0:	9b 83       	std	Y+3, r25	; 0x03
    4fa2:	8a 83       	std	Y+2, r24	; 0x02
    4fa4:	6c 83       	std	Y+4, r22	; 0x04
	u8 Local_u8ErrorState=OK;
    4fa6:	19 82       	std	Y+1, r1	; 0x01
	if(Copy_psTimer!=NULL)
    4fa8:	8a 81       	ldd	r24, Y+2	; 0x02
    4faa:	9b 81       	ldd	r25, Y+3	; 0x03
    4fac:	00 97       	sbiw	r24, 0x00	; 0
    4fae:	09 f4       	brne	.+2      	; 0x4fb2 <TIMER2_u8PWMGenerate+0x32>
    4fb0:	44 c0       	rjmp	.+136    	; 0x503a <TIMER2_u8PWMGenerate+0xba>
	{
		if((Copy_psTimer->WaveGenMode) == TIMER_FAST_PWM && (Copy_psTimer->CompareMatchOutputMode)== OCM_FAST_PWM_NON_INVERTED )
    4fb2:	ea 81       	ldd	r30, Y+2	; 0x02
    4fb4:	fb 81       	ldd	r31, Y+3	; 0x03
    4fb6:	80 81       	ld	r24, Z
    4fb8:	84 30       	cpi	r24, 0x04	; 4
    4fba:	e1 f5       	brne	.+120    	; 0x5034 <TIMER2_u8PWMGenerate+0xb4>
    4fbc:	ea 81       	ldd	r30, Y+2	; 0x02
    4fbe:	fb 81       	ldd	r31, Y+3	; 0x03
    4fc0:	82 81       	ldd	r24, Z+2	; 0x02
    4fc2:	82 30       	cpi	r24, 0x02	; 2
    4fc4:	b9 f5       	brne	.+110    	; 0x5034 <TIMER2_u8PWMGenerate+0xb4>
			 *Duty Cycle Max : 100% [i/p MAX]
			 *Duty Cycle Min : 0%   [i/p MIN]
			 *OCR2 Max Value : 255  [o/p MAX]
			 *OCR2 Min Value : 0    [o/p MIN]
			 */
			OCR2 = MATH_s32Map(0,100,0,255,Copy_u8DutyCycle);
    4fc6:	0f 2e       	mov	r0, r31
    4fc8:	f3 e4       	ldi	r31, 0x43	; 67
    4fca:	8f 2e       	mov	r8, r31
    4fcc:	99 24       	eor	r9, r9
    4fce:	f0 2d       	mov	r31, r0
    4fd0:	8c 81       	ldd	r24, Y+4	; 0x04
    4fd2:	88 2f       	mov	r24, r24
    4fd4:	90 e0       	ldi	r25, 0x00	; 0
    4fd6:	a0 e0       	ldi	r26, 0x00	; 0
    4fd8:	b0 e0       	ldi	r27, 0x00	; 0
    4fda:	00 d0       	rcall	.+0      	; 0x4fdc <TIMER2_u8PWMGenerate+0x5c>
    4fdc:	00 d0       	rcall	.+0      	; 0x4fde <TIMER2_u8PWMGenerate+0x5e>
    4fde:	ed b7       	in	r30, 0x3d	; 61
    4fe0:	fe b7       	in	r31, 0x3e	; 62
    4fe2:	31 96       	adiw	r30, 0x01	; 1
    4fe4:	80 83       	st	Z, r24
    4fe6:	91 83       	std	Z+1, r25	; 0x01
    4fe8:	a2 83       	std	Z+2, r26	; 0x02
    4fea:	b3 83       	std	Z+3, r27	; 0x03
    4fec:	60 e0       	ldi	r22, 0x00	; 0
    4fee:	70 e0       	ldi	r23, 0x00	; 0
    4ff0:	80 e0       	ldi	r24, 0x00	; 0
    4ff2:	90 e0       	ldi	r25, 0x00	; 0
    4ff4:	24 e6       	ldi	r18, 0x64	; 100
    4ff6:	30 e0       	ldi	r19, 0x00	; 0
    4ff8:	40 e0       	ldi	r20, 0x00	; 0
    4ffa:	50 e0       	ldi	r21, 0x00	; 0
    4ffc:	ee 24       	eor	r14, r14
    4ffe:	ff 24       	eor	r15, r15
    5000:	87 01       	movw	r16, r14
    5002:	0f 2e       	mov	r0, r31
    5004:	ff ef       	ldi	r31, 0xFF	; 255
    5006:	af 2e       	mov	r10, r31
    5008:	f0 e0       	ldi	r31, 0x00	; 0
    500a:	bf 2e       	mov	r11, r31
    500c:	f0 e0       	ldi	r31, 0x00	; 0
    500e:	cf 2e       	mov	r12, r31
    5010:	f0 e0       	ldi	r31, 0x00	; 0
    5012:	df 2e       	mov	r13, r31
    5014:	f0 2d       	mov	r31, r0
    5016:	0e 94 e7 1d 	call	0x3bce	; 0x3bce <MATH_s32Map>
    501a:	0f 90       	pop	r0
    501c:	0f 90       	pop	r0
    501e:	0f 90       	pop	r0
    5020:	0f 90       	pop	r0
    5022:	dc 01       	movw	r26, r24
    5024:	cb 01       	movw	r24, r22
    5026:	f4 01       	movw	r30, r8
    5028:	80 83       	st	Z, r24
			/*Initialization Timer2*/
			TIMER2_u8Init(Copy_psTimer);
    502a:	8a 81       	ldd	r24, Y+2	; 0x02
    502c:	9b 81       	ldd	r25, Y+3	; 0x03
    502e:	0e 94 f3 26 	call	0x4de6	; 0x4de6 <TIMER2_u8Init>
    5032:	05 c0       	rjmp	.+10     	; 0x503e <TIMER2_u8PWMGenerate+0xbe>
		}
		else
		{
			Local_u8ErrorState=NOK;
    5034:	81 e0       	ldi	r24, 0x01	; 1
    5036:	89 83       	std	Y+1, r24	; 0x01
    5038:	02 c0       	rjmp	.+4      	; 0x503e <TIMER2_u8PWMGenerate+0xbe>
		}
	}
	else
	{
		Local_u8ErrorState=NULL_POINTER;
    503a:	82 e0       	ldi	r24, 0x02	; 2
    503c:	89 83       	std	Y+1, r24	; 0x01
	}
	return Local_u8ErrorState;
    503e:	89 81       	ldd	r24, Y+1	; 0x01
}
    5040:	0f 90       	pop	r0
    5042:	0f 90       	pop	r0
    5044:	0f 90       	pop	r0
    5046:	0f 90       	pop	r0
    5048:	cf 91       	pop	r28
    504a:	df 91       	pop	r29
    504c:	1f 91       	pop	r17
    504e:	0f 91       	pop	r16
    5050:	ff 90       	pop	r15
    5052:	ef 90       	pop	r14
    5054:	df 90       	pop	r13
    5056:	cf 90       	pop	r12
    5058:	bf 90       	pop	r11
    505a:	af 90       	pop	r10
    505c:	9f 90       	pop	r9
    505e:	8f 90       	pop	r8
    5060:	08 95       	ret

00005062 <TIMER2_delay_ms>:
/************************************************************************************************************************/

/*Timer2 delay_ms[Polling]*/
u8 TIMER2_delay_ms(Timer_t* Copy_psTimer,u16 Copy_u16Time)
{
    5062:	df 93       	push	r29
    5064:	cf 93       	push	r28
    5066:	cd b7       	in	r28, 0x3d	; 61
    5068:	de b7       	in	r29, 0x3e	; 62
    506a:	6a 97       	sbiw	r28, 0x1a	; 26
    506c:	0f b6       	in	r0, 0x3f	; 63
    506e:	f8 94       	cli
    5070:	de bf       	out	0x3e, r29	; 62
    5072:	0f be       	out	0x3f, r0	; 63
    5074:	cd bf       	out	0x3d, r28	; 61
    5076:	9b 8b       	std	Y+19, r25	; 0x13
    5078:	8a 8b       	std	Y+18, r24	; 0x12
    507a:	7d 8b       	std	Y+21, r23	; 0x15
    507c:	6c 8b       	std	Y+20, r22	; 0x14
	u8 Local_u8ErrorState=OK,Local_u8Break=1; u16 Local_u16Counter=0;u32 Local_u32usTime,Local_u32CompMatchCount;
    507e:	1c 86       	std	Y+12, r1	; 0x0c
    5080:	81 e0       	ldi	r24, 0x01	; 1
    5082:	8b 87       	std	Y+11, r24	; 0x0b
    5084:	1a 86       	std	Y+10, r1	; 0x0a
    5086:	19 86       	std	Y+9, r1	; 0x09
	if(Copy_psTimer!=NULL)
    5088:	8a 89       	ldd	r24, Y+18	; 0x12
    508a:	9b 89       	ldd	r25, Y+19	; 0x13
    508c:	00 97       	sbiw	r24, 0x00	; 0
    508e:	09 f4       	brne	.+2      	; 0x5092 <TIMER2_delay_ms+0x30>
    5090:	82 c0       	rjmp	.+260    	; 0x5196 <TIMER2_delay_ms+0x134>
	{
		/*Timer Object for The mode which I want*/
		Timer_t Timer ={TIMER_CTC,PRSCLR_DIV_BY_8,OCM_DISCONNECT,INT_DISABLE,INT_DISABLE};
    5092:	ce 01       	movw	r24, r28
    5094:	0d 96       	adiw	r24, 0x0d	; 13
    5096:	9f 8b       	std	Y+23, r25	; 0x17
    5098:	8e 8b       	std	Y+22, r24	; 0x16
    509a:	e2 e3       	ldi	r30, 0x32	; 50
    509c:	f3 e0       	ldi	r31, 0x03	; 3
    509e:	f9 8f       	std	Y+25, r31	; 0x19
    50a0:	e8 8f       	std	Y+24, r30	; 0x18
    50a2:	f5 e0       	ldi	r31, 0x05	; 5
    50a4:	fa 8f       	std	Y+26, r31	; 0x1a
    50a6:	e8 8d       	ldd	r30, Y+24	; 0x18
    50a8:	f9 8d       	ldd	r31, Y+25	; 0x19
    50aa:	00 80       	ld	r0, Z
    50ac:	88 8d       	ldd	r24, Y+24	; 0x18
    50ae:	99 8d       	ldd	r25, Y+25	; 0x19
    50b0:	01 96       	adiw	r24, 0x01	; 1
    50b2:	99 8f       	std	Y+25, r25	; 0x19
    50b4:	88 8f       	std	Y+24, r24	; 0x18
    50b6:	ee 89       	ldd	r30, Y+22	; 0x16
    50b8:	ff 89       	ldd	r31, Y+23	; 0x17
    50ba:	00 82       	st	Z, r0
    50bc:	8e 89       	ldd	r24, Y+22	; 0x16
    50be:	9f 89       	ldd	r25, Y+23	; 0x17
    50c0:	01 96       	adiw	r24, 0x01	; 1
    50c2:	9f 8b       	std	Y+23, r25	; 0x17
    50c4:	8e 8b       	std	Y+22, r24	; 0x16
    50c6:	9a 8d       	ldd	r25, Y+26	; 0x1a
    50c8:	91 50       	subi	r25, 0x01	; 1
    50ca:	9a 8f       	std	Y+26, r25	; 0x1a
    50cc:	ea 8d       	ldd	r30, Y+26	; 0x1a
    50ce:	ee 23       	and	r30, r30
    50d0:	51 f7       	brne	.-44     	; 0x50a6 <TIMER2_delay_ms+0x44>
		/*Set Compare Match Value
		Note That!! ->>> 1000%250=0 
		         &  ->>> 250 is The Largest Number from 0 to 255*/
		TIMER_u8SetCompMatch(TIMER2,250);
    50d2:	84 e0       	ldi	r24, 0x04	; 4
    50d4:	6a ef       	ldi	r22, 0xFA	; 250
    50d6:	70 e0       	ldi	r23, 0x00	; 0
    50d8:	0e 94 cf 1f 	call	0x3f9e	; 0x3f9e <TIMER_u8SetCompMatch>
		/*Convert delay time from ms to us*/
		Local_u32usTime=(u32)Copy_u16Time*1000UL;
    50dc:	8c 89       	ldd	r24, Y+20	; 0x14
    50de:	9d 89       	ldd	r25, Y+21	; 0x15
    50e0:	cc 01       	movw	r24, r24
    50e2:	a0 e0       	ldi	r26, 0x00	; 0
    50e4:	b0 e0       	ldi	r27, 0x00	; 0
    50e6:	28 ee       	ldi	r18, 0xE8	; 232
    50e8:	33 e0       	ldi	r19, 0x03	; 3
    50ea:	40 e0       	ldi	r20, 0x00	; 0
    50ec:	50 e0       	ldi	r21, 0x00	; 0
    50ee:	bc 01       	movw	r22, r24
    50f0:	cd 01       	movw	r24, r26
    50f2:	0e 94 e8 3c 	call	0x79d0	; 0x79d0 <__mulsi3>
    50f6:	dc 01       	movw	r26, r24
    50f8:	cb 01       	movw	r24, r22
    50fa:	8d 83       	std	Y+5, r24	; 0x05
    50fc:	9e 83       	std	Y+6, r25	; 0x06
    50fe:	af 83       	std	Y+7, r26	; 0x07
    5100:	b8 87       	std	Y+8, r27	; 0x08
		/*Compare Match Count:-*/
		Local_u32CompMatchCount=Local_u32usTime/250;
    5102:	8d 81       	ldd	r24, Y+5	; 0x05
    5104:	9e 81       	ldd	r25, Y+6	; 0x06
    5106:	af 81       	ldd	r26, Y+7	; 0x07
    5108:	b8 85       	ldd	r27, Y+8	; 0x08
    510a:	2a ef       	ldi	r18, 0xFA	; 250
    510c:	30 e0       	ldi	r19, 0x00	; 0
    510e:	40 e0       	ldi	r20, 0x00	; 0
    5110:	50 e0       	ldi	r21, 0x00	; 0
    5112:	bc 01       	movw	r22, r24
    5114:	cd 01       	movw	r24, r26
    5116:	0e 94 1b 3d 	call	0x7a36	; 0x7a36 <__udivmodsi4>
    511a:	da 01       	movw	r26, r20
    511c:	c9 01       	movw	r24, r18
    511e:	89 83       	std	Y+1, r24	; 0x01
    5120:	9a 83       	std	Y+2, r25	; 0x02
    5122:	ab 83       	std	Y+3, r26	; 0x03
    5124:	bc 83       	std	Y+4, r27	; 0x04
		/*Initialize the Timer*/
		TIMER2_u8Init(&Timer);
    5126:	ce 01       	movw	r24, r28
    5128:	0d 96       	adiw	r24, 0x0d	; 13
    512a:	0e 94 f3 26 	call	0x4de6	; 0x4de6 <TIMER2_u8Init>
    512e:	2b c0       	rjmp	.+86     	; 0x5186 <TIMER2_delay_ms+0x124>
		//Polling:-
		while(Local_u8Break==1)
		{
			/*check the Compare Match Event*/
			if(GET_BIT(TIFR,TIFR_OCF2)==1)
    5130:	e8 e5       	ldi	r30, 0x58	; 88
    5132:	f0 e0       	ldi	r31, 0x00	; 0
    5134:	80 81       	ld	r24, Z
    5136:	88 1f       	adc	r24, r24
    5138:	88 27       	eor	r24, r24
    513a:	88 1f       	adc	r24, r24
    513c:	81 30       	cpi	r24, 0x01	; 1
    513e:	19 f5       	brne	.+70     	; 0x5186 <TIMER2_delay_ms+0x124>
			{
				/*check if Delay Time reches or not*/
				if(Local_u16Counter==Local_u32CompMatchCount)
    5140:	89 85       	ldd	r24, Y+9	; 0x09
    5142:	9a 85       	ldd	r25, Y+10	; 0x0a
    5144:	9c 01       	movw	r18, r24
    5146:	40 e0       	ldi	r20, 0x00	; 0
    5148:	50 e0       	ldi	r21, 0x00	; 0
    514a:	89 81       	ldd	r24, Y+1	; 0x01
    514c:	9a 81       	ldd	r25, Y+2	; 0x02
    514e:	ab 81       	ldd	r26, Y+3	; 0x03
    5150:	bc 81       	ldd	r27, Y+4	; 0x04
    5152:	28 17       	cp	r18, r24
    5154:	39 07       	cpc	r19, r25
    5156:	4a 07       	cpc	r20, r26
    5158:	5b 07       	cpc	r21, r27
    515a:	49 f4       	brne	.+18     	; 0x516e <TIMER2_delay_ms+0x10c>
				{
					/*Break the loop*/
					Local_u8Break=0;
    515c:	1b 86       	std	Y+11, r1	; 0x0b
					/*Clear Flag*/
					SET_BIT(TIFR,TIFR_OCF2);
    515e:	a8 e5       	ldi	r26, 0x58	; 88
    5160:	b0 e0       	ldi	r27, 0x00	; 0
    5162:	e8 e5       	ldi	r30, 0x58	; 88
    5164:	f0 e0       	ldi	r31, 0x00	; 0
    5166:	80 81       	ld	r24, Z
    5168:	80 68       	ori	r24, 0x80	; 128
    516a:	8c 93       	st	X, r24
    516c:	0c c0       	rjmp	.+24     	; 0x5186 <TIMER2_delay_ms+0x124>
				}
				else
				{
					/*Increment the Counter*/
					Local_u16Counter++;
    516e:	89 85       	ldd	r24, Y+9	; 0x09
    5170:	9a 85       	ldd	r25, Y+10	; 0x0a
    5172:	01 96       	adiw	r24, 0x01	; 1
    5174:	9a 87       	std	Y+10, r25	; 0x0a
    5176:	89 87       	std	Y+9, r24	; 0x09
					/*Clear Flag*/
					SET_BIT(TIFR,TIFR_OCF2);
    5178:	a8 e5       	ldi	r26, 0x58	; 88
    517a:	b0 e0       	ldi	r27, 0x00	; 0
    517c:	e8 e5       	ldi	r30, 0x58	; 88
    517e:	f0 e0       	ldi	r31, 0x00	; 0
    5180:	80 81       	ld	r24, Z
    5182:	80 68       	ori	r24, 0x80	; 128
    5184:	8c 93       	st	X, r24
		/*Compare Match Count:-*/
		Local_u32CompMatchCount=Local_u32usTime/250;
		/*Initialize the Timer*/
		TIMER2_u8Init(&Timer);
		//Polling:-
		while(Local_u8Break==1)
    5186:	8b 85       	ldd	r24, Y+11	; 0x0b
    5188:	81 30       	cpi	r24, 0x01	; 1
    518a:	91 f2       	breq	.-92     	; 0x5130 <TIMER2_delay_ms+0xce>
				}
			}
		}
		/*Restore Timer0 to its original settings by passing the pointer to the timer structure to
		TIMER0_u8Init Function*/
		TIMER2_u8Init(Copy_psTimer);
    518c:	8a 89       	ldd	r24, Y+18	; 0x12
    518e:	9b 89       	ldd	r25, Y+19	; 0x13
    5190:	0e 94 f3 26 	call	0x4de6	; 0x4de6 <TIMER2_u8Init>
    5194:	02 c0       	rjmp	.+4      	; 0x519a <TIMER2_delay_ms+0x138>

	}
	else
	{
		Local_u8ErrorState=NULL_POINTER;
    5196:	82 e0       	ldi	r24, 0x02	; 2
    5198:	8c 87       	std	Y+12, r24	; 0x0c
	}
	return Local_u8ErrorState;
    519a:	8c 85       	ldd	r24, Y+12	; 0x0c
}
    519c:	6a 96       	adiw	r28, 0x1a	; 26
    519e:	0f b6       	in	r0, 0x3f	; 63
    51a0:	f8 94       	cli
    51a2:	de bf       	out	0x3e, r29	; 62
    51a4:	0f be       	out	0x3f, r0	; 63
    51a6:	cd bf       	out	0x3d, r28	; 61
    51a8:	cf 91       	pop	r28
    51aa:	df 91       	pop	r29
    51ac:	08 95       	ret

000051ae <TIMER2_delay_us>:
/************************************************************************************************************************/
/*Timer2 delay_us[Polling]*/
u8 TIMER2_delay_us(Timer_t* Copy_psTimer,u16 Copy_u16Time)
{
    51ae:	df 93       	push	r29
    51b0:	cf 93       	push	r28
    51b2:	cd b7       	in	r28, 0x3d	; 61
    51b4:	de b7       	in	r29, 0x3e	; 62
    51b6:	6b 97       	sbiw	r28, 0x1b	; 27
    51b8:	0f b6       	in	r0, 0x3f	; 63
    51ba:	f8 94       	cli
    51bc:	de bf       	out	0x3e, r29	; 62
    51be:	0f be       	out	0x3f, r0	; 63
    51c0:	cd bf       	out	0x3d, r28	; 61
    51c2:	9c 8b       	std	Y+20, r25	; 0x14
    51c4:	8b 8b       	std	Y+19, r24	; 0x13
    51c6:	7e 8b       	std	Y+22, r23	; 0x16
    51c8:	6d 8b       	std	Y+21, r22	; 0x15
	u8 Local_u8ErrorState=OK,Local_u8Break=1,Local_u8CompMatch; u16 Local_u16Counter=0;u32 Local_u32usTime,Local_u32CompMatchCount;
    51ca:	1d 86       	std	Y+13, r1	; 0x0d
    51cc:	81 e0       	ldi	r24, 0x01	; 1
    51ce:	8c 87       	std	Y+12, r24	; 0x0c
    51d0:	1a 86       	std	Y+10, r1	; 0x0a
    51d2:	19 86       	std	Y+9, r1	; 0x09
	if(Copy_psTimer!=NULL)
    51d4:	8b 89       	ldd	r24, Y+19	; 0x13
    51d6:	9c 89       	ldd	r25, Y+20	; 0x14
    51d8:	00 97       	sbiw	r24, 0x00	; 0
    51da:	09 f4       	brne	.+2      	; 0x51de <TIMER2_delay_us+0x30>
    51dc:	85 c0       	rjmp	.+266    	; 0x52e8 <TIMER2_delay_us+0x13a>
	{
		/*Timer Object for The mode which I want*/
		Timer_t Timer ={TIMER_CTC,PRSCLR_DIV_BY_8,OCM_DISCONNECT,INT_DISABLE,INT_DISABLE};
    51de:	ce 01       	movw	r24, r28
    51e0:	0e 96       	adiw	r24, 0x0e	; 14
    51e2:	98 8f       	std	Y+24, r25	; 0x18
    51e4:	8f 8b       	std	Y+23, r24	; 0x17
    51e6:	e7 e3       	ldi	r30, 0x37	; 55
    51e8:	f3 e0       	ldi	r31, 0x03	; 3
    51ea:	fa 8f       	std	Y+26, r31	; 0x1a
    51ec:	e9 8f       	std	Y+25, r30	; 0x19
    51ee:	f5 e0       	ldi	r31, 0x05	; 5
    51f0:	fb 8f       	std	Y+27, r31	; 0x1b
    51f2:	e9 8d       	ldd	r30, Y+25	; 0x19
    51f4:	fa 8d       	ldd	r31, Y+26	; 0x1a
    51f6:	00 80       	ld	r0, Z
    51f8:	89 8d       	ldd	r24, Y+25	; 0x19
    51fa:	9a 8d       	ldd	r25, Y+26	; 0x1a
    51fc:	01 96       	adiw	r24, 0x01	; 1
    51fe:	9a 8f       	std	Y+26, r25	; 0x1a
    5200:	89 8f       	std	Y+25, r24	; 0x19
    5202:	ef 89       	ldd	r30, Y+23	; 0x17
    5204:	f8 8d       	ldd	r31, Y+24	; 0x18
    5206:	00 82       	st	Z, r0
    5208:	8f 89       	ldd	r24, Y+23	; 0x17
    520a:	98 8d       	ldd	r25, Y+24	; 0x18
    520c:	01 96       	adiw	r24, 0x01	; 1
    520e:	98 8f       	std	Y+24, r25	; 0x18
    5210:	8f 8b       	std	Y+23, r24	; 0x17
    5212:	9b 8d       	ldd	r25, Y+27	; 0x1b
    5214:	91 50       	subi	r25, 0x01	; 1
    5216:	9b 8f       	std	Y+27, r25	; 0x1b
    5218:	eb 8d       	ldd	r30, Y+27	; 0x1b
    521a:	ee 23       	and	r30, r30
    521c:	51 f7       	brne	.-44     	; 0x51f2 <TIMER2_delay_us+0x44>
		/*loop for the right value for OCR2
		Note that! we need the Largest value from 255 t0 0
		and this value must be verification this->>> (DelayTime%OCR2=0)*/
		for(Local_u8CompMatch=255;Local_u8CompMatch>0;Local_u8CompMatch--)
    521e:	8f ef       	ldi	r24, 0xFF	; 255
    5220:	8b 87       	std	Y+11, r24	; 0x0b
    5222:	0d c0       	rjmp	.+26     	; 0x523e <TIMER2_delay_us+0x90>
		{
			if(Copy_u16Time%Local_u8CompMatch==0)
    5224:	8b 85       	ldd	r24, Y+11	; 0x0b
    5226:	28 2f       	mov	r18, r24
    5228:	30 e0       	ldi	r19, 0x00	; 0
    522a:	8d 89       	ldd	r24, Y+21	; 0x15
    522c:	9e 89       	ldd	r25, Y+22	; 0x16
    522e:	b9 01       	movw	r22, r18
    5230:	0e 94 07 3d 	call	0x7a0e	; 0x7a0e <__udivmodhi4>
    5234:	00 97       	sbiw	r24, 0x00	; 0
    5236:	31 f0       	breq	.+12     	; 0x5244 <TIMER2_delay_us+0x96>
		/*Timer Object for The mode which I want*/
		Timer_t Timer ={TIMER_CTC,PRSCLR_DIV_BY_8,OCM_DISCONNECT,INT_DISABLE,INT_DISABLE};
		/*loop for the right value for OCR2
		Note that! we need the Largest value from 255 t0 0
		and this value must be verification this->>> (DelayTime%OCR2=0)*/
		for(Local_u8CompMatch=255;Local_u8CompMatch>0;Local_u8CompMatch--)
    5238:	8b 85       	ldd	r24, Y+11	; 0x0b
    523a:	81 50       	subi	r24, 0x01	; 1
    523c:	8b 87       	std	Y+11, r24	; 0x0b
    523e:	8b 85       	ldd	r24, Y+11	; 0x0b
    5240:	88 23       	and	r24, r24
    5242:	81 f7       	brne	.-32     	; 0x5224 <TIMER2_delay_us+0x76>
				/*I find the right OCR2*/
				break;
			}
		}
		/*Set OCR2*/
		TIMER_u8SetCompMatch(TIMER2,Local_u8CompMatch);
    5244:	8b 85       	ldd	r24, Y+11	; 0x0b
    5246:	28 2f       	mov	r18, r24
    5248:	30 e0       	ldi	r19, 0x00	; 0
    524a:	84 e0       	ldi	r24, 0x04	; 4
    524c:	b9 01       	movw	r22, r18
    524e:	0e 94 cf 1f 	call	0x3f9e	; 0x3f9e <TIMER_u8SetCompMatch>
		/*Compare Match Count:-*/
		Local_u32CompMatchCount=Local_u32usTime/Local_u8CompMatch;
    5252:	8b 85       	ldd	r24, Y+11	; 0x0b
    5254:	28 2f       	mov	r18, r24
    5256:	30 e0       	ldi	r19, 0x00	; 0
    5258:	40 e0       	ldi	r20, 0x00	; 0
    525a:	50 e0       	ldi	r21, 0x00	; 0
    525c:	8d 81       	ldd	r24, Y+5	; 0x05
    525e:	9e 81       	ldd	r25, Y+6	; 0x06
    5260:	af 81       	ldd	r26, Y+7	; 0x07
    5262:	b8 85       	ldd	r27, Y+8	; 0x08
    5264:	bc 01       	movw	r22, r24
    5266:	cd 01       	movw	r24, r26
    5268:	0e 94 1b 3d 	call	0x7a36	; 0x7a36 <__udivmodsi4>
    526c:	da 01       	movw	r26, r20
    526e:	c9 01       	movw	r24, r18
    5270:	89 83       	std	Y+1, r24	; 0x01
    5272:	9a 83       	std	Y+2, r25	; 0x02
    5274:	ab 83       	std	Y+3, r26	; 0x03
    5276:	bc 83       	std	Y+4, r27	; 0x04
		/*Initialize the Timer*/
		TIMER2_u8Init(&Timer);
    5278:	ce 01       	movw	r24, r28
    527a:	0e 96       	adiw	r24, 0x0e	; 14
    527c:	0e 94 f3 26 	call	0x4de6	; 0x4de6 <TIMER2_u8Init>
    5280:	2b c0       	rjmp	.+86     	; 0x52d8 <TIMER2_delay_us+0x12a>
		//Polling
		while(Local_u8Break==1)
		{
			/*check the Compare Match Event*/
			if(GET_BIT(TIFR,TIFR_OCF2)==1)
    5282:	e8 e5       	ldi	r30, 0x58	; 88
    5284:	f0 e0       	ldi	r31, 0x00	; 0
    5286:	80 81       	ld	r24, Z
    5288:	88 1f       	adc	r24, r24
    528a:	88 27       	eor	r24, r24
    528c:	88 1f       	adc	r24, r24
    528e:	81 30       	cpi	r24, 0x01	; 1
    5290:	19 f5       	brne	.+70     	; 0x52d8 <TIMER2_delay_us+0x12a>
			{
				/*check if Delay Time reches or not*/
				if(Local_u16Counter==Local_u32CompMatchCount)
    5292:	89 85       	ldd	r24, Y+9	; 0x09
    5294:	9a 85       	ldd	r25, Y+10	; 0x0a
    5296:	9c 01       	movw	r18, r24
    5298:	40 e0       	ldi	r20, 0x00	; 0
    529a:	50 e0       	ldi	r21, 0x00	; 0
    529c:	89 81       	ldd	r24, Y+1	; 0x01
    529e:	9a 81       	ldd	r25, Y+2	; 0x02
    52a0:	ab 81       	ldd	r26, Y+3	; 0x03
    52a2:	bc 81       	ldd	r27, Y+4	; 0x04
    52a4:	28 17       	cp	r18, r24
    52a6:	39 07       	cpc	r19, r25
    52a8:	4a 07       	cpc	r20, r26
    52aa:	5b 07       	cpc	r21, r27
    52ac:	49 f4       	brne	.+18     	; 0x52c0 <TIMER2_delay_us+0x112>
				{
					/*Break the loop*/
					Local_u8Break=0;
    52ae:	1c 86       	std	Y+12, r1	; 0x0c
					/*Clear Flag*/
					SET_BIT(TIFR,TIFR_OCF2);
    52b0:	a8 e5       	ldi	r26, 0x58	; 88
    52b2:	b0 e0       	ldi	r27, 0x00	; 0
    52b4:	e8 e5       	ldi	r30, 0x58	; 88
    52b6:	f0 e0       	ldi	r31, 0x00	; 0
    52b8:	80 81       	ld	r24, Z
    52ba:	80 68       	ori	r24, 0x80	; 128
    52bc:	8c 93       	st	X, r24
    52be:	0c c0       	rjmp	.+24     	; 0x52d8 <TIMER2_delay_us+0x12a>
				}
				else
				{
					/*Increment the Counter*/
					Local_u16Counter++;
    52c0:	89 85       	ldd	r24, Y+9	; 0x09
    52c2:	9a 85       	ldd	r25, Y+10	; 0x0a
    52c4:	01 96       	adiw	r24, 0x01	; 1
    52c6:	9a 87       	std	Y+10, r25	; 0x0a
    52c8:	89 87       	std	Y+9, r24	; 0x09
					/*Clear Flag*/
					SET_BIT(TIFR,TIFR_OCF2);
    52ca:	a8 e5       	ldi	r26, 0x58	; 88
    52cc:	b0 e0       	ldi	r27, 0x00	; 0
    52ce:	e8 e5       	ldi	r30, 0x58	; 88
    52d0:	f0 e0       	ldi	r31, 0x00	; 0
    52d2:	80 81       	ld	r24, Z
    52d4:	80 68       	ori	r24, 0x80	; 128
    52d6:	8c 93       	st	X, r24
		/*Compare Match Count:-*/
		Local_u32CompMatchCount=Local_u32usTime/Local_u8CompMatch;
		/*Initialize the Timer*/
		TIMER2_u8Init(&Timer);
		//Polling
		while(Local_u8Break==1)
    52d8:	8c 85       	ldd	r24, Y+12	; 0x0c
    52da:	81 30       	cpi	r24, 0x01	; 1
    52dc:	91 f2       	breq	.-92     	; 0x5282 <TIMER2_delay_us+0xd4>
				}
			}
		}
		/*Restore Timer0 to its original settings by passing the pointer to the timer structure to
		TIMER0_u8Init Function*/
		TIMER2_u8Init(Copy_psTimer);
    52de:	8b 89       	ldd	r24, Y+19	; 0x13
    52e0:	9c 89       	ldd	r25, Y+20	; 0x14
    52e2:	0e 94 f3 26 	call	0x4de6	; 0x4de6 <TIMER2_u8Init>
    52e6:	02 c0       	rjmp	.+4      	; 0x52ec <TIMER2_delay_us+0x13e>
	}
	else
	{	
		Local_u8ErrorState=NULL_POINTER;
    52e8:	82 e0       	ldi	r24, 0x02	; 2
    52ea:	8d 87       	std	Y+13, r24	; 0x0d
	}
	return Local_u8ErrorState;
    52ec:	8d 85       	ldd	r24, Y+13	; 0x0d
}
    52ee:	6b 96       	adiw	r28, 0x1b	; 27
    52f0:	0f b6       	in	r0, 0x3f	; 63
    52f2:	f8 94       	cli
    52f4:	de bf       	out	0x3e, r29	; 62
    52f6:	0f be       	out	0x3f, r0	; 63
    52f8:	cd bf       	out	0x3d, r28	; 61
    52fa:	cf 91       	pop	r28
    52fc:	df 91       	pop	r29
    52fe:	08 95       	ret

00005300 <TIMER2_u8Schedule>:
/************************************************************************************************************************/
/*Timer2 Schedule Function[Interrupt]*/
u8 TIMER2_u8Schedule(u16 Copy_u16msDelayTime,void(*Copy_pvFunc)(void),u8 Copy_u8Repeatability){
    5300:	df 93       	push	r29
    5302:	cf 93       	push	r28
    5304:	cd b7       	in	r28, 0x3d	; 61
    5306:	de b7       	in	r29, 0x3e	; 62
    5308:	6a 97       	sbiw	r28, 0x1a	; 26
    530a:	0f b6       	in	r0, 0x3f	; 63
    530c:	f8 94       	cli
    530e:	de bf       	out	0x3e, r29	; 62
    5310:	0f be       	out	0x3f, r0	; 63
    5312:	cd bf       	out	0x3d, r28	; 61
    5314:	9a 8b       	std	Y+18, r25	; 0x12
    5316:	89 8b       	std	Y+17, r24	; 0x11
    5318:	7c 8b       	std	Y+20, r23	; 0x14
    531a:	6b 8b       	std	Y+19, r22	; 0x13
    531c:	4d 8b       	std	Y+21, r20	; 0x15
	u8 Local_u8ErrorState=OK; u16 Local_u16Counter=0;u32 Local_u32usTime,Local_u32CompMatchCount;
    531e:	1b 86       	std	Y+11, r1	; 0x0b
    5320:	1a 86       	std	Y+10, r1	; 0x0a
    5322:	19 86       	std	Y+9, r1	; 0x09
	if(Copy_pvFunc!=NULL)
    5324:	8b 89       	ldd	r24, Y+19	; 0x13
    5326:	9c 89       	ldd	r25, Y+20	; 0x14
    5328:	00 97       	sbiw	r24, 0x00	; 0
    532a:	09 f4       	brne	.+2      	; 0x532e <TIMER2_u8Schedule+0x2e>
    532c:	6a c0       	rjmp	.+212    	; 0x5402 <TIMER2_u8Schedule+0x102>
	{
		/*Set TIMER2 needed Schedule Function Data*/
		TIMER2_pvScheduleFunc=Copy_pvFunc;
    532e:	8b 89       	ldd	r24, Y+19	; 0x13
    5330:	9c 89       	ldd	r25, Y+20	; 0x14
    5332:	90 93 73 03 	sts	0x0373, r25
    5336:	80 93 72 03 	sts	0x0372, r24
		/*Set INT_TIMER2_COMP Call Back Fuction*/
		TIMERS_pvCallBackFunc[INT_TIMER2_COMP]= (&TIMER2_voidScheduleFunc);
    533a:	8e ee       	ldi	r24, 0xEE	; 238
    533c:	9e e1       	ldi	r25, 0x1E	; 30
    533e:	90 93 63 03 	sts	0x0363, r25
    5342:	80 93 62 03 	sts	0x0362, r24
		/*Timer Object for CTC mode which I want->> Handle Compare match Event using ->>Interrupt */
		Timer_t Timer ={TIMER_CTC,PRSCLR_DIV_BY_8,OCM_DISCONNECT,INT_ENABLE,INT_DISABLE};
    5346:	ce 01       	movw	r24, r28
    5348:	0c 96       	adiw	r24, 0x0c	; 12
    534a:	9f 8b       	std	Y+23, r25	; 0x17
    534c:	8e 8b       	std	Y+22, r24	; 0x16
    534e:	ec e3       	ldi	r30, 0x3C	; 60
    5350:	f3 e0       	ldi	r31, 0x03	; 3
    5352:	f9 8f       	std	Y+25, r31	; 0x19
    5354:	e8 8f       	std	Y+24, r30	; 0x18
    5356:	f5 e0       	ldi	r31, 0x05	; 5
    5358:	fa 8f       	std	Y+26, r31	; 0x1a
    535a:	e8 8d       	ldd	r30, Y+24	; 0x18
    535c:	f9 8d       	ldd	r31, Y+25	; 0x19
    535e:	00 80       	ld	r0, Z
    5360:	88 8d       	ldd	r24, Y+24	; 0x18
    5362:	99 8d       	ldd	r25, Y+25	; 0x19
    5364:	01 96       	adiw	r24, 0x01	; 1
    5366:	99 8f       	std	Y+25, r25	; 0x19
    5368:	88 8f       	std	Y+24, r24	; 0x18
    536a:	ee 89       	ldd	r30, Y+22	; 0x16
    536c:	ff 89       	ldd	r31, Y+23	; 0x17
    536e:	00 82       	st	Z, r0
    5370:	8e 89       	ldd	r24, Y+22	; 0x16
    5372:	9f 89       	ldd	r25, Y+23	; 0x17
    5374:	01 96       	adiw	r24, 0x01	; 1
    5376:	9f 8b       	std	Y+23, r25	; 0x17
    5378:	8e 8b       	std	Y+22, r24	; 0x16
    537a:	9a 8d       	ldd	r25, Y+26	; 0x1a
    537c:	91 50       	subi	r25, 0x01	; 1
    537e:	9a 8f       	std	Y+26, r25	; 0x1a
    5380:	ea 8d       	ldd	r30, Y+26	; 0x1a
    5382:	ee 23       	and	r30, r30
    5384:	51 f7       	brne	.-44     	; 0x535a <TIMER2_u8Schedule+0x5a>
		/*Set Compare Match Value,
		Note That!! ->>> 1000%250=0 
		         &  ->>> 250 is The Largest Number from 0 to 255*/
		TIMER_u8SetCompMatch(TIMER2,250);
    5386:	84 e0       	ldi	r24, 0x04	; 4
    5388:	6a ef       	ldi	r22, 0xFA	; 250
    538a:	70 e0       	ldi	r23, 0x00	; 0
    538c:	0e 94 cf 1f 	call	0x3f9e	; 0x3f9e <TIMER_u8SetCompMatch>
		/*Convert delay time from ms to us*/
		Local_u32usTime=(u32)Copy_u16msDelayTime*1000UL;
    5390:	89 89       	ldd	r24, Y+17	; 0x11
    5392:	9a 89       	ldd	r25, Y+18	; 0x12
    5394:	cc 01       	movw	r24, r24
    5396:	a0 e0       	ldi	r26, 0x00	; 0
    5398:	b0 e0       	ldi	r27, 0x00	; 0
    539a:	28 ee       	ldi	r18, 0xE8	; 232
    539c:	33 e0       	ldi	r19, 0x03	; 3
    539e:	40 e0       	ldi	r20, 0x00	; 0
    53a0:	50 e0       	ldi	r21, 0x00	; 0
    53a2:	bc 01       	movw	r22, r24
    53a4:	cd 01       	movw	r24, r26
    53a6:	0e 94 e8 3c 	call	0x79d0	; 0x79d0 <__mulsi3>
    53aa:	dc 01       	movw	r26, r24
    53ac:	cb 01       	movw	r24, r22
    53ae:	8d 83       	std	Y+5, r24	; 0x05
    53b0:	9e 83       	std	Y+6, r25	; 0x06
    53b2:	af 83       	std	Y+7, r26	; 0x07
    53b4:	b8 87       	std	Y+8, r27	; 0x08
		/*Compare Match Count:-*/
		Local_u32CompMatchCount=Local_u32usTime/250;
    53b6:	8d 81       	ldd	r24, Y+5	; 0x05
    53b8:	9e 81       	ldd	r25, Y+6	; 0x06
    53ba:	af 81       	ldd	r26, Y+7	; 0x07
    53bc:	b8 85       	ldd	r27, Y+8	; 0x08
    53be:	2a ef       	ldi	r18, 0xFA	; 250
    53c0:	30 e0       	ldi	r19, 0x00	; 0
    53c2:	40 e0       	ldi	r20, 0x00	; 0
    53c4:	50 e0       	ldi	r21, 0x00	; 0
    53c6:	bc 01       	movw	r22, r24
    53c8:	cd 01       	movw	r24, r26
    53ca:	0e 94 1b 3d 	call	0x7a36	; 0x7a36 <__udivmodsi4>
    53ce:	da 01       	movw	r26, r20
    53d0:	c9 01       	movw	r24, r18
    53d2:	89 83       	std	Y+1, r24	; 0x01
    53d4:	9a 83       	std	Y+2, r25	; 0x02
    53d6:	ab 83       	std	Y+3, r26	; 0x03
    53d8:	bc 83       	std	Y+4, r27	; 0x04
		/*Set TIMER2 needed Schedule Function Data*/
		TIMER_u8ScheduleRepeatability=Copy_u8Repeatability;
    53da:	8d 89       	ldd	r24, Y+21	; 0x15
    53dc:	80 93 7c 03 	sts	0x037C, r24
		/*Set TIMER2 needed Schedule Function Data*/
		TIMER_u32ScheduleCompMatchCount=Local_u32CompMatchCount;
    53e0:	89 81       	ldd	r24, Y+1	; 0x01
    53e2:	9a 81       	ldd	r25, Y+2	; 0x02
    53e4:	ab 81       	ldd	r26, Y+3	; 0x03
    53e6:	bc 81       	ldd	r27, Y+4	; 0x04
    53e8:	80 93 78 03 	sts	0x0378, r24
    53ec:	90 93 79 03 	sts	0x0379, r25
    53f0:	a0 93 7a 03 	sts	0x037A, r26
    53f4:	b0 93 7b 03 	sts	0x037B, r27
		/*Initialize the Time*/
		TIMER2_u8Init(&Timer);
    53f8:	ce 01       	movw	r24, r28
    53fa:	0c 96       	adiw	r24, 0x0c	; 12
    53fc:	0e 94 f3 26 	call	0x4de6	; 0x4de6 <TIMER2_u8Init>
    5400:	02 c0       	rjmp	.+4      	; 0x5406 <TIMER2_u8Schedule+0x106>
	}
	else
	{
		Local_u8ErrorState=NULL_POINTER;
    5402:	82 e0       	ldi	r24, 0x02	; 2
    5404:	8b 87       	std	Y+11, r24	; 0x0b
	}
	return Local_u8ErrorState;
    5406:	8b 85       	ldd	r24, Y+11	; 0x0b
}
    5408:	6a 96       	adiw	r28, 0x1a	; 26
    540a:	0f b6       	in	r0, 0x3f	; 63
    540c:	f8 94       	cli
    540e:	de bf       	out	0x3e, r29	; 62
    5410:	0f be       	out	0x3f, r0	; 63
    5412:	cd bf       	out	0x3d, r28	; 61
    5414:	cf 91       	pop	r28
    5416:	df 91       	pop	r29
    5418:	08 95       	ret

0000541a <ICU_u8Init>:
/************************************************************************************************************************/

/*Function to Initialize Input Capture Unit*/
/*ICU Settings*/
u8 ICU_u8Init(u8 Copy_u8Edge,u8 Copy_u8InterruptStatus)
{
    541a:	df 93       	push	r29
    541c:	cf 93       	push	r28
    541e:	00 d0       	rcall	.+0      	; 0x5420 <ICU_u8Init+0x6>
    5420:	0f 92       	push	r0
    5422:	cd b7       	in	r28, 0x3d	; 61
    5424:	de b7       	in	r29, 0x3e	; 62
    5426:	8a 83       	std	Y+2, r24	; 0x02
    5428:	6b 83       	std	Y+3, r22	; 0x03
	u8 Local_u8ErrorState=OK;
    542a:	19 82       	std	Y+1, r1	; 0x01

	//Input Capture Edge Select
	if(Copy_u8Edge==RISING_EDGE)
    542c:	8a 81       	ldd	r24, Y+2	; 0x02
    542e:	81 30       	cpi	r24, 0x01	; 1
    5430:	41 f4       	brne	.+16     	; 0x5442 <ICU_u8Init+0x28>
	{
		SET_BIT(TCCR1B,TCCR1B_ICES1);
    5432:	ae e4       	ldi	r26, 0x4E	; 78
    5434:	b0 e0       	ldi	r27, 0x00	; 0
    5436:	ee e4       	ldi	r30, 0x4E	; 78
    5438:	f0 e0       	ldi	r31, 0x00	; 0
    543a:	80 81       	ld	r24, Z
    543c:	80 64       	ori	r24, 0x40	; 64
    543e:	8c 93       	st	X, r24
    5440:	0d c0       	rjmp	.+26     	; 0x545c <ICU_u8Init+0x42>
	}
	else if(Copy_u8Edge==FALLING_EDGE)
    5442:	8a 81       	ldd	r24, Y+2	; 0x02
    5444:	88 23       	and	r24, r24
    5446:	41 f4       	brne	.+16     	; 0x5458 <ICU_u8Init+0x3e>
	{
		CLR_BIT(TCCR1B,TCCR1B_ICES1);
    5448:	ae e4       	ldi	r26, 0x4E	; 78
    544a:	b0 e0       	ldi	r27, 0x00	; 0
    544c:	ee e4       	ldi	r30, 0x4E	; 78
    544e:	f0 e0       	ldi	r31, 0x00	; 0
    5450:	80 81       	ld	r24, Z
    5452:	8f 7b       	andi	r24, 0xBF	; 191
    5454:	8c 93       	st	X, r24
    5456:	02 c0       	rjmp	.+4      	; 0x545c <ICU_u8Init+0x42>
	}
	else
	{
		Local_u8ErrorState=NOK;
    5458:	81 e0       	ldi	r24, 0x01	; 1
    545a:	89 83       	std	Y+1, r24	; 0x01
	}


	//Input Capture Interrupt Hndling
	if(Copy_u8InterruptStatus==INT_ENABLE)
    545c:	8b 81       	ldd	r24, Y+3	; 0x03
    545e:	81 30       	cpi	r24, 0x01	; 1
    5460:	41 f4       	brne	.+16     	; 0x5472 <ICU_u8Init+0x58>
	{
		SET_BIT(TIMSK,TIMSK_TICIE1);
    5462:	a9 e5       	ldi	r26, 0x59	; 89
    5464:	b0 e0       	ldi	r27, 0x00	; 0
    5466:	e9 e5       	ldi	r30, 0x59	; 89
    5468:	f0 e0       	ldi	r31, 0x00	; 0
    546a:	80 81       	ld	r24, Z
    546c:	80 62       	ori	r24, 0x20	; 32
    546e:	8c 93       	st	X, r24
    5470:	0d c0       	rjmp	.+26     	; 0x548c <ICU_u8Init+0x72>
	}
	else if(Copy_u8InterruptStatus==INT_DISABLE)
    5472:	8b 81       	ldd	r24, Y+3	; 0x03
    5474:	82 30       	cpi	r24, 0x02	; 2
    5476:	41 f4       	brne	.+16     	; 0x5488 <ICU_u8Init+0x6e>
	{
		CLR_BIT(TIMSK,TIMSK_TICIE1);
    5478:	a9 e5       	ldi	r26, 0x59	; 89
    547a:	b0 e0       	ldi	r27, 0x00	; 0
    547c:	e9 e5       	ldi	r30, 0x59	; 89
    547e:	f0 e0       	ldi	r31, 0x00	; 0
    5480:	80 81       	ld	r24, Z
    5482:	8f 7d       	andi	r24, 0xDF	; 223
    5484:	8c 93       	st	X, r24
    5486:	02 c0       	rjmp	.+4      	; 0x548c <ICU_u8Init+0x72>
	}
	else
	{
		Local_u8ErrorState=NOK;
    5488:	81 e0       	ldi	r24, 0x01	; 1
    548a:	89 83       	std	Y+1, r24	; 0x01
	}

	return Local_u8ErrorState;
    548c:	89 81       	ldd	r24, Y+1	; 0x01
}
    548e:	0f 90       	pop	r0
    5490:	0f 90       	pop	r0
    5492:	0f 90       	pop	r0
    5494:	cf 91       	pop	r28
    5496:	df 91       	pop	r29
    5498:	08 95       	ret

0000549a <ICU_u8SetEdge>:
/*************************************************************************************************************************/
/*Function to Change Trigger of Input Capture Unit*/
u8 ICU_u8SetEdge(u8 Copy_u8Edge)
{
    549a:	df 93       	push	r29
    549c:	cf 93       	push	r28
    549e:	00 d0       	rcall	.+0      	; 0x54a0 <ICU_u8SetEdge+0x6>
    54a0:	cd b7       	in	r28, 0x3d	; 61
    54a2:	de b7       	in	r29, 0x3e	; 62
    54a4:	8a 83       	std	Y+2, r24	; 0x02
	u8 Local_u8ErrorState=OK;
    54a6:	19 82       	std	Y+1, r1	; 0x01
	if(Copy_u8Edge==RISING_EDGE)
    54a8:	8a 81       	ldd	r24, Y+2	; 0x02
    54aa:	81 30       	cpi	r24, 0x01	; 1
    54ac:	41 f4       	brne	.+16     	; 0x54be <ICU_u8SetEdge+0x24>
	{
		SET_BIT(TCCR1B,TCCR1B_ICES1);
    54ae:	ae e4       	ldi	r26, 0x4E	; 78
    54b0:	b0 e0       	ldi	r27, 0x00	; 0
    54b2:	ee e4       	ldi	r30, 0x4E	; 78
    54b4:	f0 e0       	ldi	r31, 0x00	; 0
    54b6:	80 81       	ld	r24, Z
    54b8:	80 64       	ori	r24, 0x40	; 64
    54ba:	8c 93       	st	X, r24
    54bc:	0d c0       	rjmp	.+26     	; 0x54d8 <ICU_u8SetEdge+0x3e>
	}
	else if(Copy_u8Edge==FALLING_EDGE)
    54be:	8a 81       	ldd	r24, Y+2	; 0x02
    54c0:	88 23       	and	r24, r24
    54c2:	41 f4       	brne	.+16     	; 0x54d4 <ICU_u8SetEdge+0x3a>
	{
		CLR_BIT(TCCR1B,TCCR1B_ICES1);
    54c4:	ae e4       	ldi	r26, 0x4E	; 78
    54c6:	b0 e0       	ldi	r27, 0x00	; 0
    54c8:	ee e4       	ldi	r30, 0x4E	; 78
    54ca:	f0 e0       	ldi	r31, 0x00	; 0
    54cc:	80 81       	ld	r24, Z
    54ce:	8f 7b       	andi	r24, 0xBF	; 191
    54d0:	8c 93       	st	X, r24
    54d2:	02 c0       	rjmp	.+4      	; 0x54d8 <ICU_u8SetEdge+0x3e>
	}
	else{
		Local_u8ErrorState=NOK;
    54d4:	81 e0       	ldi	r24, 0x01	; 1
    54d6:	89 83       	std	Y+1, r24	; 0x01
	}
	return Local_u8ErrorState;
    54d8:	89 81       	ldd	r24, Y+1	; 0x01
}
    54da:	0f 90       	pop	r0
    54dc:	0f 90       	pop	r0
    54de:	cf 91       	pop	r28
    54e0:	df 91       	pop	r29
    54e2:	08 95       	ret

000054e4 <ICU_u16ReadInputCapture>:

u16 ICU_u16ReadInputCapture(void){
    54e4:	df 93       	push	r29
    54e6:	cf 93       	push	r28
    54e8:	cd b7       	in	r28, 0x3d	; 61
    54ea:	de b7       	in	r29, 0x3e	; 62
	return ICR1;
    54ec:	e6 e4       	ldi	r30, 0x46	; 70
    54ee:	f0 e0       	ldi	r31, 0x00	; 0
    54f0:	80 81       	ld	r24, Z
    54f2:	91 81       	ldd	r25, Z+1	; 0x01
}
    54f4:	cf 91       	pop	r28
    54f6:	df 91       	pop	r29
    54f8:	08 95       	ret

000054fa <TIMER_u8SetCallBack>:
/***************************************************INTERRUPT MODE*******************************************************/
/********************************************************ISRs************************************************************/
/************************************************************************************************************************/

u8 TIMER_u8SetCallBack(u8 Copy_u8InterruptID,void(*Copy_pvCallBackFunc)(void))
{
    54fa:	df 93       	push	r29
    54fc:	cf 93       	push	r28
    54fe:	00 d0       	rcall	.+0      	; 0x5500 <TIMER_u8SetCallBack+0x6>
    5500:	00 d0       	rcall	.+0      	; 0x5502 <TIMER_u8SetCallBack+0x8>
    5502:	cd b7       	in	r28, 0x3d	; 61
    5504:	de b7       	in	r29, 0x3e	; 62
    5506:	8a 83       	std	Y+2, r24	; 0x02
    5508:	7c 83       	std	Y+4, r23	; 0x04
    550a:	6b 83       	std	Y+3, r22	; 0x03
	u8 Local_u8ErrorState=OK;
    550c:	19 82       	std	Y+1, r1	; 0x01
	if(Copy_pvCallBackFunc!=NULL)
    550e:	8b 81       	ldd	r24, Y+3	; 0x03
    5510:	9c 81       	ldd	r25, Y+4	; 0x04
    5512:	00 97       	sbiw	r24, 0x00	; 0
    5514:	69 f0       	breq	.+26     	; 0x5530 <TIMER_u8SetCallBack+0x36>
	{
		TIMERS_pvCallBackFunc[Copy_u8InterruptID]=Copy_pvCallBackFunc;
    5516:	8a 81       	ldd	r24, Y+2	; 0x02
    5518:	88 2f       	mov	r24, r24
    551a:	90 e0       	ldi	r25, 0x00	; 0
    551c:	88 0f       	add	r24, r24
    551e:	99 1f       	adc	r25, r25
    5520:	fc 01       	movw	r30, r24
    5522:	ee 59       	subi	r30, 0x9E	; 158
    5524:	fc 4f       	sbci	r31, 0xFC	; 252
    5526:	8b 81       	ldd	r24, Y+3	; 0x03
    5528:	9c 81       	ldd	r25, Y+4	; 0x04
    552a:	91 83       	std	Z+1, r25	; 0x01
    552c:	80 83       	st	Z, r24
    552e:	02 c0       	rjmp	.+4      	; 0x5534 <TIMER_u8SetCallBack+0x3a>
	}
	else
	{
		Local_u8ErrorState=NULL_POINTER;
    5530:	82 e0       	ldi	r24, 0x02	; 2
    5532:	89 83       	std	Y+1, r24	; 0x01
	}
	return Local_u8ErrorState;
    5534:	89 81       	ldd	r24, Y+1	; 0x01
}
    5536:	0f 90       	pop	r0
    5538:	0f 90       	pop	r0
    553a:	0f 90       	pop	r0
    553c:	0f 90       	pop	r0
    553e:	cf 91       	pop	r28
    5540:	df 91       	pop	r29
    5542:	08 95       	ret

00005544 <__vector_4>:
/*************************************************************************************************************************/
/*************************************************************************************************************************/

//TIMER2 Compare Match ISR
void __vector_4(void)  __attribute__((signal));
void __vector_4(void){
    5544:	1f 92       	push	r1
    5546:	0f 92       	push	r0
    5548:	0f b6       	in	r0, 0x3f	; 63
    554a:	0f 92       	push	r0
    554c:	11 24       	eor	r1, r1
    554e:	2f 93       	push	r18
    5550:	3f 93       	push	r19
    5552:	4f 93       	push	r20
    5554:	5f 93       	push	r21
    5556:	6f 93       	push	r22
    5558:	7f 93       	push	r23
    555a:	8f 93       	push	r24
    555c:	9f 93       	push	r25
    555e:	af 93       	push	r26
    5560:	bf 93       	push	r27
    5562:	ef 93       	push	r30
    5564:	ff 93       	push	r31
    5566:	df 93       	push	r29
    5568:	cf 93       	push	r28
    556a:	cd b7       	in	r28, 0x3d	; 61
    556c:	de b7       	in	r29, 0x3e	; 62
	if(TIMERS_pvCallBackFunc[INT_TIMER2_COMP]!=NULL)
    556e:	80 91 62 03 	lds	r24, 0x0362
    5572:	90 91 63 03 	lds	r25, 0x0363
    5576:	00 97       	sbiw	r24, 0x00	; 0
    5578:	29 f0       	breq	.+10     	; 0x5584 <__vector_4+0x40>
	{
		TIMERS_pvCallBackFunc[INT_TIMER2_COMP]();
    557a:	e0 91 62 03 	lds	r30, 0x0362
    557e:	f0 91 63 03 	lds	r31, 0x0363
    5582:	09 95       	icall
	}
	else
	{
		//do nothing
	}
}
    5584:	cf 91       	pop	r28
    5586:	df 91       	pop	r29
    5588:	ff 91       	pop	r31
    558a:	ef 91       	pop	r30
    558c:	bf 91       	pop	r27
    558e:	af 91       	pop	r26
    5590:	9f 91       	pop	r25
    5592:	8f 91       	pop	r24
    5594:	7f 91       	pop	r23
    5596:	6f 91       	pop	r22
    5598:	5f 91       	pop	r21
    559a:	4f 91       	pop	r20
    559c:	3f 91       	pop	r19
    559e:	2f 91       	pop	r18
    55a0:	0f 90       	pop	r0
    55a2:	0f be       	out	0x3f, r0	; 63
    55a4:	0f 90       	pop	r0
    55a6:	1f 90       	pop	r1
    55a8:	18 95       	reti

000055aa <__vector_5>:

//TIMER2 Overflow ISR
void __vector_5(void)  __attribute__((signal));
void __vector_5(void){
    55aa:	1f 92       	push	r1
    55ac:	0f 92       	push	r0
    55ae:	0f b6       	in	r0, 0x3f	; 63
    55b0:	0f 92       	push	r0
    55b2:	11 24       	eor	r1, r1
    55b4:	2f 93       	push	r18
    55b6:	3f 93       	push	r19
    55b8:	4f 93       	push	r20
    55ba:	5f 93       	push	r21
    55bc:	6f 93       	push	r22
    55be:	7f 93       	push	r23
    55c0:	8f 93       	push	r24
    55c2:	9f 93       	push	r25
    55c4:	af 93       	push	r26
    55c6:	bf 93       	push	r27
    55c8:	ef 93       	push	r30
    55ca:	ff 93       	push	r31
    55cc:	df 93       	push	r29
    55ce:	cf 93       	push	r28
    55d0:	cd b7       	in	r28, 0x3d	; 61
    55d2:	de b7       	in	r29, 0x3e	; 62
	if(TIMERS_pvCallBackFunc[INT_TIMER2_OVF]!=NULL)
    55d4:	80 91 64 03 	lds	r24, 0x0364
    55d8:	90 91 65 03 	lds	r25, 0x0365
    55dc:	00 97       	sbiw	r24, 0x00	; 0
    55de:	29 f0       	breq	.+10     	; 0x55ea <__vector_5+0x40>
	{
		TIMERS_pvCallBackFunc[INT_TIMER2_OVF]();
    55e0:	e0 91 64 03 	lds	r30, 0x0364
    55e4:	f0 91 65 03 	lds	r31, 0x0365
    55e8:	09 95       	icall
	}
}
    55ea:	cf 91       	pop	r28
    55ec:	df 91       	pop	r29
    55ee:	ff 91       	pop	r31
    55f0:	ef 91       	pop	r30
    55f2:	bf 91       	pop	r27
    55f4:	af 91       	pop	r26
    55f6:	9f 91       	pop	r25
    55f8:	8f 91       	pop	r24
    55fa:	7f 91       	pop	r23
    55fc:	6f 91       	pop	r22
    55fe:	5f 91       	pop	r21
    5600:	4f 91       	pop	r20
    5602:	3f 91       	pop	r19
    5604:	2f 91       	pop	r18
    5606:	0f 90       	pop	r0
    5608:	0f be       	out	0x3f, r0	; 63
    560a:	0f 90       	pop	r0
    560c:	1f 90       	pop	r1
    560e:	18 95       	reti

00005610 <__vector_6>:

//TIMER1 Capture Event ISR
void __vector_6(void)  __attribute__((signal));
void __vector_6(void){
    5610:	1f 92       	push	r1
    5612:	0f 92       	push	r0
    5614:	0f b6       	in	r0, 0x3f	; 63
    5616:	0f 92       	push	r0
    5618:	11 24       	eor	r1, r1
    561a:	2f 93       	push	r18
    561c:	3f 93       	push	r19
    561e:	4f 93       	push	r20
    5620:	5f 93       	push	r21
    5622:	6f 93       	push	r22
    5624:	7f 93       	push	r23
    5626:	8f 93       	push	r24
    5628:	9f 93       	push	r25
    562a:	af 93       	push	r26
    562c:	bf 93       	push	r27
    562e:	ef 93       	push	r30
    5630:	ff 93       	push	r31
    5632:	df 93       	push	r29
    5634:	cf 93       	push	r28
    5636:	cd b7       	in	r28, 0x3d	; 61
    5638:	de b7       	in	r29, 0x3e	; 62
	if(TIMERS_pvCallBackFunc[INT_TIMER1_CAPT]!=NULL)
    563a:	80 91 6a 03 	lds	r24, 0x036A
    563e:	90 91 6b 03 	lds	r25, 0x036B
    5642:	00 97       	sbiw	r24, 0x00	; 0
    5644:	29 f0       	breq	.+10     	; 0x5650 <__vector_6+0x40>
	{
		TIMERS_pvCallBackFunc[INT_TIMER1_CAPT]();
    5646:	e0 91 6a 03 	lds	r30, 0x036A
    564a:	f0 91 6b 03 	lds	r31, 0x036B
    564e:	09 95       	icall
	}
}
    5650:	cf 91       	pop	r28
    5652:	df 91       	pop	r29
    5654:	ff 91       	pop	r31
    5656:	ef 91       	pop	r30
    5658:	bf 91       	pop	r27
    565a:	af 91       	pop	r26
    565c:	9f 91       	pop	r25
    565e:	8f 91       	pop	r24
    5660:	7f 91       	pop	r23
    5662:	6f 91       	pop	r22
    5664:	5f 91       	pop	r21
    5666:	4f 91       	pop	r20
    5668:	3f 91       	pop	r19
    566a:	2f 91       	pop	r18
    566c:	0f 90       	pop	r0
    566e:	0f be       	out	0x3f, r0	; 63
    5670:	0f 90       	pop	r0
    5672:	1f 90       	pop	r1
    5674:	18 95       	reti

00005676 <__vector_7>:


//TIMER1 Compare Match A ISR
void __vector_7(void)  __attribute__((signal));
void __vector_7(void){
    5676:	1f 92       	push	r1
    5678:	0f 92       	push	r0
    567a:	0f b6       	in	r0, 0x3f	; 63
    567c:	0f 92       	push	r0
    567e:	11 24       	eor	r1, r1
    5680:	2f 93       	push	r18
    5682:	3f 93       	push	r19
    5684:	4f 93       	push	r20
    5686:	5f 93       	push	r21
    5688:	6f 93       	push	r22
    568a:	7f 93       	push	r23
    568c:	8f 93       	push	r24
    568e:	9f 93       	push	r25
    5690:	af 93       	push	r26
    5692:	bf 93       	push	r27
    5694:	ef 93       	push	r30
    5696:	ff 93       	push	r31
    5698:	df 93       	push	r29
    569a:	cf 93       	push	r28
    569c:	cd b7       	in	r28, 0x3d	; 61
    569e:	de b7       	in	r29, 0x3e	; 62
	if(TIMERS_pvCallBackFunc[INT_TIMER1A_COMP]!=NULL)
    56a0:	80 91 68 03 	lds	r24, 0x0368
    56a4:	90 91 69 03 	lds	r25, 0x0369
    56a8:	00 97       	sbiw	r24, 0x00	; 0
    56aa:	29 f0       	breq	.+10     	; 0x56b6 <__vector_7+0x40>
	{
		TIMERS_pvCallBackFunc[INT_TIMER1A_COMP]();
    56ac:	e0 91 68 03 	lds	r30, 0x0368
    56b0:	f0 91 69 03 	lds	r31, 0x0369
    56b4:	09 95       	icall
	}
}
    56b6:	cf 91       	pop	r28
    56b8:	df 91       	pop	r29
    56ba:	ff 91       	pop	r31
    56bc:	ef 91       	pop	r30
    56be:	bf 91       	pop	r27
    56c0:	af 91       	pop	r26
    56c2:	9f 91       	pop	r25
    56c4:	8f 91       	pop	r24
    56c6:	7f 91       	pop	r23
    56c8:	6f 91       	pop	r22
    56ca:	5f 91       	pop	r21
    56cc:	4f 91       	pop	r20
    56ce:	3f 91       	pop	r19
    56d0:	2f 91       	pop	r18
    56d2:	0f 90       	pop	r0
    56d4:	0f be       	out	0x3f, r0	; 63
    56d6:	0f 90       	pop	r0
    56d8:	1f 90       	pop	r1
    56da:	18 95       	reti

000056dc <__vector_8>:

//TIMER1 Compare Match B ISR
void __vector_8(void)  __attribute__((signal));
void __vector_8(void){
    56dc:	1f 92       	push	r1
    56de:	0f 92       	push	r0
    56e0:	0f b6       	in	r0, 0x3f	; 63
    56e2:	0f 92       	push	r0
    56e4:	11 24       	eor	r1, r1
    56e6:	2f 93       	push	r18
    56e8:	3f 93       	push	r19
    56ea:	4f 93       	push	r20
    56ec:	5f 93       	push	r21
    56ee:	6f 93       	push	r22
    56f0:	7f 93       	push	r23
    56f2:	8f 93       	push	r24
    56f4:	9f 93       	push	r25
    56f6:	af 93       	push	r26
    56f8:	bf 93       	push	r27
    56fa:	ef 93       	push	r30
    56fc:	ff 93       	push	r31
    56fe:	df 93       	push	r29
    5700:	cf 93       	push	r28
    5702:	cd b7       	in	r28, 0x3d	; 61
    5704:	de b7       	in	r29, 0x3e	; 62
	if(TIMERS_pvCallBackFunc[INT_TIMER1B_COMP]!=NULL)
    5706:	80 91 66 03 	lds	r24, 0x0366
    570a:	90 91 67 03 	lds	r25, 0x0367
    570e:	00 97       	sbiw	r24, 0x00	; 0
    5710:	29 f0       	breq	.+10     	; 0x571c <__vector_8+0x40>
	{
		TIMERS_pvCallBackFunc[INT_TIMER1B_COMP]();
    5712:	e0 91 66 03 	lds	r30, 0x0366
    5716:	f0 91 67 03 	lds	r31, 0x0367
    571a:	09 95       	icall
	}
}
    571c:	cf 91       	pop	r28
    571e:	df 91       	pop	r29
    5720:	ff 91       	pop	r31
    5722:	ef 91       	pop	r30
    5724:	bf 91       	pop	r27
    5726:	af 91       	pop	r26
    5728:	9f 91       	pop	r25
    572a:	8f 91       	pop	r24
    572c:	7f 91       	pop	r23
    572e:	6f 91       	pop	r22
    5730:	5f 91       	pop	r21
    5732:	4f 91       	pop	r20
    5734:	3f 91       	pop	r19
    5736:	2f 91       	pop	r18
    5738:	0f 90       	pop	r0
    573a:	0f be       	out	0x3f, r0	; 63
    573c:	0f 90       	pop	r0
    573e:	1f 90       	pop	r1
    5740:	18 95       	reti

00005742 <__vector_9>:

//TIMER1 Overflow ISR
void __vector_9(void)  __attribute__((signal));
void __vector_9(void){
    5742:	1f 92       	push	r1
    5744:	0f 92       	push	r0
    5746:	0f b6       	in	r0, 0x3f	; 63
    5748:	0f 92       	push	r0
    574a:	11 24       	eor	r1, r1
    574c:	2f 93       	push	r18
    574e:	3f 93       	push	r19
    5750:	4f 93       	push	r20
    5752:	5f 93       	push	r21
    5754:	6f 93       	push	r22
    5756:	7f 93       	push	r23
    5758:	8f 93       	push	r24
    575a:	9f 93       	push	r25
    575c:	af 93       	push	r26
    575e:	bf 93       	push	r27
    5760:	ef 93       	push	r30
    5762:	ff 93       	push	r31
    5764:	df 93       	push	r29
    5766:	cf 93       	push	r28
    5768:	cd b7       	in	r28, 0x3d	; 61
    576a:	de b7       	in	r29, 0x3e	; 62
	if(TIMERS_pvCallBackFunc[INT_TIMER1_OVF]!=NULL)
    576c:	80 91 6c 03 	lds	r24, 0x036C
    5770:	90 91 6d 03 	lds	r25, 0x036D
    5774:	00 97       	sbiw	r24, 0x00	; 0
    5776:	29 f0       	breq	.+10     	; 0x5782 <__vector_9+0x40>
	{
		TIMERS_pvCallBackFunc[INT_TIMER1_OVF]();
    5778:	e0 91 6c 03 	lds	r30, 0x036C
    577c:	f0 91 6d 03 	lds	r31, 0x036D
    5780:	09 95       	icall
	}
}
    5782:	cf 91       	pop	r28
    5784:	df 91       	pop	r29
    5786:	ff 91       	pop	r31
    5788:	ef 91       	pop	r30
    578a:	bf 91       	pop	r27
    578c:	af 91       	pop	r26
    578e:	9f 91       	pop	r25
    5790:	8f 91       	pop	r24
    5792:	7f 91       	pop	r23
    5794:	6f 91       	pop	r22
    5796:	5f 91       	pop	r21
    5798:	4f 91       	pop	r20
    579a:	3f 91       	pop	r19
    579c:	2f 91       	pop	r18
    579e:	0f 90       	pop	r0
    57a0:	0f be       	out	0x3f, r0	; 63
    57a2:	0f 90       	pop	r0
    57a4:	1f 90       	pop	r1
    57a6:	18 95       	reti

000057a8 <__vector_10>:

//TIMER0 Compare Match ISR
void __vector_10(void)  __attribute__((signal));
void __vector_10(void){
    57a8:	1f 92       	push	r1
    57aa:	0f 92       	push	r0
    57ac:	0f b6       	in	r0, 0x3f	; 63
    57ae:	0f 92       	push	r0
    57b0:	11 24       	eor	r1, r1
    57b2:	2f 93       	push	r18
    57b4:	3f 93       	push	r19
    57b6:	4f 93       	push	r20
    57b8:	5f 93       	push	r21
    57ba:	6f 93       	push	r22
    57bc:	7f 93       	push	r23
    57be:	8f 93       	push	r24
    57c0:	9f 93       	push	r25
    57c2:	af 93       	push	r26
    57c4:	bf 93       	push	r27
    57c6:	ef 93       	push	r30
    57c8:	ff 93       	push	r31
    57ca:	df 93       	push	r29
    57cc:	cf 93       	push	r28
    57ce:	cd b7       	in	r28, 0x3d	; 61
    57d0:	de b7       	in	r29, 0x3e	; 62
	if(TIMERS_pvCallBackFunc[INT_TIMER0_COMP]!=NULL)
    57d2:	80 91 6e 03 	lds	r24, 0x036E
    57d6:	90 91 6f 03 	lds	r25, 0x036F
    57da:	00 97       	sbiw	r24, 0x00	; 0
    57dc:	29 f0       	breq	.+10     	; 0x57e8 <__vector_10+0x40>
	{
		TIMERS_pvCallBackFunc[INT_TIMER0_COMP]();
    57de:	e0 91 6e 03 	lds	r30, 0x036E
    57e2:	f0 91 6f 03 	lds	r31, 0x036F
    57e6:	09 95       	icall
	}
}
    57e8:	cf 91       	pop	r28
    57ea:	df 91       	pop	r29
    57ec:	ff 91       	pop	r31
    57ee:	ef 91       	pop	r30
    57f0:	bf 91       	pop	r27
    57f2:	af 91       	pop	r26
    57f4:	9f 91       	pop	r25
    57f6:	8f 91       	pop	r24
    57f8:	7f 91       	pop	r23
    57fa:	6f 91       	pop	r22
    57fc:	5f 91       	pop	r21
    57fe:	4f 91       	pop	r20
    5800:	3f 91       	pop	r19
    5802:	2f 91       	pop	r18
    5804:	0f 90       	pop	r0
    5806:	0f be       	out	0x3f, r0	; 63
    5808:	0f 90       	pop	r0
    580a:	1f 90       	pop	r1
    580c:	18 95       	reti

0000580e <__vector_11>:

//TIMER0 Overflow ISR
void __vector_11(void)  __attribute__((signal));
void __vector_11(void){
    580e:	1f 92       	push	r1
    5810:	0f 92       	push	r0
    5812:	0f b6       	in	r0, 0x3f	; 63
    5814:	0f 92       	push	r0
    5816:	11 24       	eor	r1, r1
    5818:	2f 93       	push	r18
    581a:	3f 93       	push	r19
    581c:	4f 93       	push	r20
    581e:	5f 93       	push	r21
    5820:	6f 93       	push	r22
    5822:	7f 93       	push	r23
    5824:	8f 93       	push	r24
    5826:	9f 93       	push	r25
    5828:	af 93       	push	r26
    582a:	bf 93       	push	r27
    582c:	ef 93       	push	r30
    582e:	ff 93       	push	r31
    5830:	df 93       	push	r29
    5832:	cf 93       	push	r28
    5834:	cd b7       	in	r28, 0x3d	; 61
    5836:	de b7       	in	r29, 0x3e	; 62
	if(TIMERS_pvCallBackFunc[INT_TIMER0_OVF]!=NULL)
    5838:	80 91 70 03 	lds	r24, 0x0370
    583c:	90 91 71 03 	lds	r25, 0x0371
    5840:	00 97       	sbiw	r24, 0x00	; 0
    5842:	29 f0       	breq	.+10     	; 0x584e <__vector_11+0x40>
	{
		TIMERS_pvCallBackFunc[INT_TIMER0_OVF]();
    5844:	e0 91 70 03 	lds	r30, 0x0370
    5848:	f0 91 71 03 	lds	r31, 0x0371
    584c:	09 95       	icall
	}
}
    584e:	cf 91       	pop	r28
    5850:	df 91       	pop	r29
    5852:	ff 91       	pop	r31
    5854:	ef 91       	pop	r30
    5856:	bf 91       	pop	r27
    5858:	af 91       	pop	r26
    585a:	9f 91       	pop	r25
    585c:	8f 91       	pop	r24
    585e:	7f 91       	pop	r23
    5860:	6f 91       	pop	r22
    5862:	5f 91       	pop	r21
    5864:	4f 91       	pop	r20
    5866:	3f 91       	pop	r19
    5868:	2f 91       	pop	r18
    586a:	0f 90       	pop	r0
    586c:	0f be       	out	0x3f, r0	; 63
    586e:	0f 90       	pop	r0
    5870:	1f 90       	pop	r1
    5872:	18 95       	reti

00005874 <ULTRASONIC_u8MeasureDistance>:
static u16 ULTSONIC_u16OvfCounter = 0;
static u16 ULTSONIC_u16EchoOvfCounter = 0;


void  ULTRASONIC_u8MeasureDistance(ULTRASONIC_t* Copy_psUltsonicTrigData, u16* Copy_u16Distance)
{
    5874:	df 93       	push	r29
    5876:	cf 93       	push	r28
    5878:	cd b7       	in	r28, 0x3d	; 61
    587a:	de b7       	in	r29, 0x3e	; 62
    587c:	a6 97       	sbiw	r28, 0x26	; 38
    587e:	0f b6       	in	r0, 0x3f	; 63
    5880:	f8 94       	cli
    5882:	de bf       	out	0x3e, r29	; 62
    5884:	0f be       	out	0x3f, r0	; 63
    5886:	cd bf       	out	0x3d, r28	; 61
    5888:	9c a3       	std	Y+36, r25	; 0x24
    588a:	8b a3       	std	Y+35, r24	; 0x23
    588c:	7e a3       	std	Y+38, r23	; 0x26
    588e:	6d a3       	std	Y+37, r22	; 0x25

	/*Define Variables*/
	u8 Local_u8ErrorState = OK;
    5890:	1a a2       	std	Y+34, r1	; 0x22
	u8 Local_u8ErrorFounder = OK;
    5892:	19 a2       	std	Y+33, r1	; 0x21
	u32 Local_u32EchoTime = 0u;
    5894:	1d 8e       	std	Y+29, r1	; 0x1d
    5896:	1e 8e       	std	Y+30, r1	; 0x1e
    5898:	1f 8e       	std	Y+31, r1	; 0x1f
    589a:	18 a2       	std	Y+32, r1	; 0x20
	u32 Local_u32TimeoutCounter = 0u;
    589c:	19 8e       	std	Y+25, r1	; 0x19
    589e:	1a 8e       	std	Y+26, r1	; 0x1a
    58a0:	1b 8e       	std	Y+27, r1	; 0x1b
    58a2:	1c 8e       	std	Y+28, r1	; 0x1c

	/*Initialize and Enable Capture Unit and Overflow Interrupts of timer 1*/
	TIMER_u8SetCallBack(INT_TIMER1_OVF,&ULTSONIC_voidOvfISR);
    58a4:	23 e4       	ldi	r18, 0x43	; 67
    58a6:	3e e2       	ldi	r19, 0x2E	; 46
    58a8:	85 e0       	ldi	r24, 0x05	; 5
    58aa:	b9 01       	movw	r22, r18
    58ac:	0e 94 7d 2a 	call	0x54fa	; 0x54fa <TIMER_u8SetCallBack>
	TIMER_u8SetCallBack(INT_TIMER1_CAPT,&ULTSONIC_voidCaptureISR);
    58b0:	26 e1       	ldi	r18, 0x16	; 22
    58b2:	3e e2       	ldi	r19, 0x2E	; 46
    58b4:	84 e0       	ldi	r24, 0x04	; 4
    58b6:	b9 01       	movw	r22, r18
    58b8:	0e 94 7d 2a 	call	0x54fa	; 0x54fa <TIMER_u8SetCallBack>
	TIMER_u8SetIntStatus(INT_TIMER1_OVF,INT_ENABLE);
    58bc:	85 e0       	ldi	r24, 0x05	; 5
    58be:	61 e0       	ldi	r22, 0x01	; 1
    58c0:	0e 94 2f 20 	call	0x405e	; 0x405e <TIMER_u8SetIntStatus>
	ICU_u8Init(RISING_EDGE,INT_ENABLE);
    58c4:	81 e0       	ldi	r24, 0x01	; 1
    58c6:	61 e0       	ldi	r22, 0x01	; 1
    58c8:	0e 94 0d 2a 	call	0x541a	; 0x541a <ICU_u8Init>

	/*Trigger the ultrasonic to return its echo*/
	DIO_u8SetPinValue(Copy_psUltsonicTrigData -> TrigPort, Copy_psUltsonicTrigData -> TrigPin, DIO_u8PIN_HIGH);
    58cc:	eb a1       	ldd	r30, Y+35	; 0x23
    58ce:	fc a1       	ldd	r31, Y+36	; 0x24
    58d0:	80 81       	ld	r24, Z
    58d2:	eb a1       	ldd	r30, Y+35	; 0x23
    58d4:	fc a1       	ldd	r31, Y+36	; 0x24
    58d6:	91 81       	ldd	r25, Z+1	; 0x01
    58d8:	69 2f       	mov	r22, r25
    58da:	41 e0       	ldi	r20, 0x01	; 1
    58dc:	0e 94 b2 13 	call	0x2764	; 0x2764 <DIO_u8SetPinValue>
    58e0:	80 e0       	ldi	r24, 0x00	; 0
    58e2:	90 e0       	ldi	r25, 0x00	; 0
    58e4:	a8 ec       	ldi	r26, 0xC8	; 200
    58e6:	b2 e4       	ldi	r27, 0x42	; 66
    58e8:	8d 8b       	std	Y+21, r24	; 0x15
    58ea:	9e 8b       	std	Y+22, r25	; 0x16
    58ec:	af 8b       	std	Y+23, r26	; 0x17
    58ee:	b8 8f       	std	Y+24, r27	; 0x18
 */
void
_delay_us(double __us)
{
	uint8_t __ticks;
	double __tmp = ((F_CPU) / 3e6) * __us;
    58f0:	6d 89       	ldd	r22, Y+21	; 0x15
    58f2:	7e 89       	ldd	r23, Y+22	; 0x16
    58f4:	8f 89       	ldd	r24, Y+23	; 0x17
    58f6:	98 8d       	ldd	r25, Y+24	; 0x18
    58f8:	2b ea       	ldi	r18, 0xAB	; 171
    58fa:	3a ea       	ldi	r19, 0xAA	; 170
    58fc:	4a e2       	ldi	r20, 0x2A	; 42
    58fe:	50 e4       	ldi	r21, 0x40	; 64
    5900:	0e 94 1f 02 	call	0x43e	; 0x43e <__mulsf3>
    5904:	dc 01       	movw	r26, r24
    5906:	cb 01       	movw	r24, r22
    5908:	89 8b       	std	Y+17, r24	; 0x11
    590a:	9a 8b       	std	Y+18, r25	; 0x12
    590c:	ab 8b       	std	Y+19, r26	; 0x13
    590e:	bc 8b       	std	Y+20, r27	; 0x14
	if (__tmp < 1.0)
    5910:	69 89       	ldd	r22, Y+17	; 0x11
    5912:	7a 89       	ldd	r23, Y+18	; 0x12
    5914:	8b 89       	ldd	r24, Y+19	; 0x13
    5916:	9c 89       	ldd	r25, Y+20	; 0x14
    5918:	20 e0       	ldi	r18, 0x00	; 0
    591a:	30 e0       	ldi	r19, 0x00	; 0
    591c:	40 e8       	ldi	r20, 0x80	; 128
    591e:	5f e3       	ldi	r21, 0x3F	; 63
    5920:	0e 94 25 04 	call	0x84a	; 0x84a <__ltsf2>
    5924:	88 23       	and	r24, r24
    5926:	1c f4       	brge	.+6      	; 0x592e <ULTRASONIC_u8MeasureDistance+0xba>
		__ticks = 1;
    5928:	81 e0       	ldi	r24, 0x01	; 1
    592a:	88 8b       	std	Y+16, r24	; 0x10
    592c:	91 c0       	rjmp	.+290    	; 0x5a50 <ULTRASONIC_u8MeasureDistance+0x1dc>
	else if (__tmp > 255)
    592e:	69 89       	ldd	r22, Y+17	; 0x11
    5930:	7a 89       	ldd	r23, Y+18	; 0x12
    5932:	8b 89       	ldd	r24, Y+19	; 0x13
    5934:	9c 89       	ldd	r25, Y+20	; 0x14
    5936:	20 e0       	ldi	r18, 0x00	; 0
    5938:	30 e0       	ldi	r19, 0x00	; 0
    593a:	4f e7       	ldi	r20, 0x7F	; 127
    593c:	53 e4       	ldi	r21, 0x43	; 67
    593e:	0e 94 c5 03 	call	0x78a	; 0x78a <__gtsf2>
    5942:	18 16       	cp	r1, r24
    5944:	0c f0       	brlt	.+2      	; 0x5948 <ULTRASONIC_u8MeasureDistance+0xd4>
    5946:	7b c0       	rjmp	.+246    	; 0x5a3e <ULTRASONIC_u8MeasureDistance+0x1ca>
	{
		_delay_ms(__us / 1000.0);
    5948:	6d 89       	ldd	r22, Y+21	; 0x15
    594a:	7e 89       	ldd	r23, Y+22	; 0x16
    594c:	8f 89       	ldd	r24, Y+23	; 0x17
    594e:	98 8d       	ldd	r25, Y+24	; 0x18
    5950:	20 e0       	ldi	r18, 0x00	; 0
    5952:	30 e0       	ldi	r19, 0x00	; 0
    5954:	4a e7       	ldi	r20, 0x7A	; 122
    5956:	54 e4       	ldi	r21, 0x44	; 68
    5958:	0e 94 19 03 	call	0x632	; 0x632 <__divsf3>
    595c:	dc 01       	movw	r26, r24
    595e:	cb 01       	movw	r24, r22
    5960:	8c 87       	std	Y+12, r24	; 0x0c
    5962:	9d 87       	std	Y+13, r25	; 0x0d
    5964:	ae 87       	std	Y+14, r26	; 0x0e
    5966:	bf 87       	std	Y+15, r27	; 0x0f
 */
void
_delay_ms(double __ms)
{
	uint16_t __ticks;
	double __tmp = ((F_CPU) / 4e3) * __ms;
    5968:	6c 85       	ldd	r22, Y+12	; 0x0c
    596a:	7d 85       	ldd	r23, Y+13	; 0x0d
    596c:	8e 85       	ldd	r24, Y+14	; 0x0e
    596e:	9f 85       	ldd	r25, Y+15	; 0x0f
    5970:	20 e0       	ldi	r18, 0x00	; 0
    5972:	30 e0       	ldi	r19, 0x00	; 0
    5974:	4a ef       	ldi	r20, 0xFA	; 250
    5976:	54 e4       	ldi	r21, 0x44	; 68
    5978:	0e 94 1f 02 	call	0x43e	; 0x43e <__mulsf3>
    597c:	dc 01       	movw	r26, r24
    597e:	cb 01       	movw	r24, r22
    5980:	88 87       	std	Y+8, r24	; 0x08
    5982:	99 87       	std	Y+9, r25	; 0x09
    5984:	aa 87       	std	Y+10, r26	; 0x0a
    5986:	bb 87       	std	Y+11, r27	; 0x0b
	if (__tmp < 1.0)
    5988:	68 85       	ldd	r22, Y+8	; 0x08
    598a:	79 85       	ldd	r23, Y+9	; 0x09
    598c:	8a 85       	ldd	r24, Y+10	; 0x0a
    598e:	9b 85       	ldd	r25, Y+11	; 0x0b
    5990:	20 e0       	ldi	r18, 0x00	; 0
    5992:	30 e0       	ldi	r19, 0x00	; 0
    5994:	40 e8       	ldi	r20, 0x80	; 128
    5996:	5f e3       	ldi	r21, 0x3F	; 63
    5998:	0e 94 25 04 	call	0x84a	; 0x84a <__ltsf2>
    599c:	88 23       	and	r24, r24
    599e:	2c f4       	brge	.+10     	; 0x59aa <ULTRASONIC_u8MeasureDistance+0x136>
		__ticks = 1;
    59a0:	81 e0       	ldi	r24, 0x01	; 1
    59a2:	90 e0       	ldi	r25, 0x00	; 0
    59a4:	9f 83       	std	Y+7, r25	; 0x07
    59a6:	8e 83       	std	Y+6, r24	; 0x06
    59a8:	3f c0       	rjmp	.+126    	; 0x5a28 <ULTRASONIC_u8MeasureDistance+0x1b4>
	else if (__tmp > 65535)
    59aa:	68 85       	ldd	r22, Y+8	; 0x08
    59ac:	79 85       	ldd	r23, Y+9	; 0x09
    59ae:	8a 85       	ldd	r24, Y+10	; 0x0a
    59b0:	9b 85       	ldd	r25, Y+11	; 0x0b
    59b2:	20 e0       	ldi	r18, 0x00	; 0
    59b4:	3f ef       	ldi	r19, 0xFF	; 255
    59b6:	4f e7       	ldi	r20, 0x7F	; 127
    59b8:	57 e4       	ldi	r21, 0x47	; 71
    59ba:	0e 94 c5 03 	call	0x78a	; 0x78a <__gtsf2>
    59be:	18 16       	cp	r1, r24
    59c0:	4c f5       	brge	.+82     	; 0x5a14 <ULTRASONIC_u8MeasureDistance+0x1a0>
	{
		//	__ticks = requested delay in 1/10 ms
		__ticks = (uint16_t) (__ms * 10.0);
    59c2:	6c 85       	ldd	r22, Y+12	; 0x0c
    59c4:	7d 85       	ldd	r23, Y+13	; 0x0d
    59c6:	8e 85       	ldd	r24, Y+14	; 0x0e
    59c8:	9f 85       	ldd	r25, Y+15	; 0x0f
    59ca:	20 e0       	ldi	r18, 0x00	; 0
    59cc:	30 e0       	ldi	r19, 0x00	; 0
    59ce:	40 e2       	ldi	r20, 0x20	; 32
    59d0:	51 e4       	ldi	r21, 0x41	; 65
    59d2:	0e 94 1f 02 	call	0x43e	; 0x43e <__mulsf3>
    59d6:	dc 01       	movw	r26, r24
    59d8:	cb 01       	movw	r24, r22
    59da:	bc 01       	movw	r22, r24
    59dc:	cd 01       	movw	r24, r26
    59de:	0e 94 49 00 	call	0x92	; 0x92 <__fixunssfsi>
    59e2:	dc 01       	movw	r26, r24
    59e4:	cb 01       	movw	r24, r22
    59e6:	9f 83       	std	Y+7, r25	; 0x07
    59e8:	8e 83       	std	Y+6, r24	; 0x06
    59ea:	0f c0       	rjmp	.+30     	; 0x5a0a <ULTRASONIC_u8MeasureDistance+0x196>
    59ec:	88 ec       	ldi	r24, 0xC8	; 200
    59ee:	90 e0       	ldi	r25, 0x00	; 0
    59f0:	9d 83       	std	Y+5, r25	; 0x05
    59f2:	8c 83       	std	Y+4, r24	; 0x04
    59f4:	8c 81       	ldd	r24, Y+4	; 0x04
    59f6:	9d 81       	ldd	r25, Y+5	; 0x05
    59f8:	01 97       	sbiw	r24, 0x01	; 1
    59fa:	f1 f7       	brne	.-4      	; 0x59f8 <ULTRASONIC_u8MeasureDistance+0x184>
    59fc:	9d 83       	std	Y+5, r25	; 0x05
    59fe:	8c 83       	std	Y+4, r24	; 0x04
		while(__ticks)
		{
			// wait 1/10 ms
			_delay_loop_2(((F_CPU) / 4e3) / 10);
			__ticks --;
    5a00:	8e 81       	ldd	r24, Y+6	; 0x06
    5a02:	9f 81       	ldd	r25, Y+7	; 0x07
    5a04:	01 97       	sbiw	r24, 0x01	; 1
    5a06:	9f 83       	std	Y+7, r25	; 0x07
    5a08:	8e 83       	std	Y+6, r24	; 0x06
		__ticks = 1;
	else if (__tmp > 65535)
	{
		//	__ticks = requested delay in 1/10 ms
		__ticks = (uint16_t) (__ms * 10.0);
		while(__ticks)
    5a0a:	8e 81       	ldd	r24, Y+6	; 0x06
    5a0c:	9f 81       	ldd	r25, Y+7	; 0x07
    5a0e:	00 97       	sbiw	r24, 0x00	; 0
    5a10:	69 f7       	brne	.-38     	; 0x59ec <ULTRASONIC_u8MeasureDistance+0x178>
    5a12:	24 c0       	rjmp	.+72     	; 0x5a5c <ULTRASONIC_u8MeasureDistance+0x1e8>
			__ticks --;
		}
		return;
	}
	else
		__ticks = (uint16_t)__tmp;
    5a14:	68 85       	ldd	r22, Y+8	; 0x08
    5a16:	79 85       	ldd	r23, Y+9	; 0x09
    5a18:	8a 85       	ldd	r24, Y+10	; 0x0a
    5a1a:	9b 85       	ldd	r25, Y+11	; 0x0b
    5a1c:	0e 94 49 00 	call	0x92	; 0x92 <__fixunssfsi>
    5a20:	dc 01       	movw	r26, r24
    5a22:	cb 01       	movw	r24, r22
    5a24:	9f 83       	std	Y+7, r25	; 0x07
    5a26:	8e 83       	std	Y+6, r24	; 0x06
    5a28:	8e 81       	ldd	r24, Y+6	; 0x06
    5a2a:	9f 81       	ldd	r25, Y+7	; 0x07
    5a2c:	9b 83       	std	Y+3, r25	; 0x03
    5a2e:	8a 83       	std	Y+2, r24	; 0x02
    5a30:	8a 81       	ldd	r24, Y+2	; 0x02
    5a32:	9b 81       	ldd	r25, Y+3	; 0x03
    5a34:	01 97       	sbiw	r24, 0x01	; 1
    5a36:	f1 f7       	brne	.-4      	; 0x5a34 <ULTRASONIC_u8MeasureDistance+0x1c0>
    5a38:	9b 83       	std	Y+3, r25	; 0x03
    5a3a:	8a 83       	std	Y+2, r24	; 0x02
    5a3c:	0f c0       	rjmp	.+30     	; 0x5a5c <ULTRASONIC_u8MeasureDistance+0x1e8>
	{
		_delay_ms(__us / 1000.0);
		return;
	}
	else
		__ticks = (uint8_t)__tmp;
    5a3e:	69 89       	ldd	r22, Y+17	; 0x11
    5a40:	7a 89       	ldd	r23, Y+18	; 0x12
    5a42:	8b 89       	ldd	r24, Y+19	; 0x13
    5a44:	9c 89       	ldd	r25, Y+20	; 0x14
    5a46:	0e 94 49 00 	call	0x92	; 0x92 <__fixunssfsi>
    5a4a:	dc 01       	movw	r26, r24
    5a4c:	cb 01       	movw	r24, r22
    5a4e:	88 8b       	std	Y+16, r24	; 0x10
    5a50:	88 89       	ldd	r24, Y+16	; 0x10
    5a52:	89 83       	std	Y+1, r24	; 0x01
    can be achieved.
*/
void
_delay_loop_1(uint8_t __count)
{
	__asm__ volatile (
    5a54:	89 81       	ldd	r24, Y+1	; 0x01
    5a56:	8a 95       	dec	r24
    5a58:	f1 f7       	brne	.-4      	; 0x5a56 <ULTRASONIC_u8MeasureDistance+0x1e2>
    5a5a:	89 83       	std	Y+1, r24	; 0x01
	_delay_us(100);
	DIO_u8SetPinValue(Copy_psUltsonicTrigData -> TrigPort, Copy_psUltsonicTrigData -> TrigPin, DIO_u8PIN_LOW);
    5a5c:	eb a1       	ldd	r30, Y+35	; 0x23
    5a5e:	fc a1       	ldd	r31, Y+36	; 0x24
    5a60:	80 81       	ld	r24, Z
    5a62:	eb a1       	ldd	r30, Y+35	; 0x23
    5a64:	fc a1       	ldd	r31, Y+36	; 0x24
    5a66:	91 81       	ldd	r25, Z+1	; 0x01
    5a68:	69 2f       	mov	r22, r25
    5a6a:	40 e0       	ldi	r20, 0x00	; 0
    5a6c:	0e 94 b2 13 	call	0x2764	; 0x2764 <DIO_u8SetPinValue>
    5a70:	0b c0       	rjmp	.+22     	; 0x5a88 <ULTRASONIC_u8MeasureDistance+0x214>

	/*Polling until the echo time is measured*/
	while(((ULTSONIC_u16Capture1Reading == 0u) || (ULTSONIC_u16Capture2Reading == 0u)) && (Local_u32TimeoutCounter < ULTSOINC_u32TIMEOUT))
	{
		Local_u32TimeoutCounter++;
    5a72:	89 8d       	ldd	r24, Y+25	; 0x19
    5a74:	9a 8d       	ldd	r25, Y+26	; 0x1a
    5a76:	ab 8d       	ldd	r26, Y+27	; 0x1b
    5a78:	bc 8d       	ldd	r27, Y+28	; 0x1c
    5a7a:	01 96       	adiw	r24, 0x01	; 1
    5a7c:	a1 1d       	adc	r26, r1
    5a7e:	b1 1d       	adc	r27, r1
    5a80:	89 8f       	std	Y+25, r24	; 0x19
    5a82:	9a 8f       	std	Y+26, r25	; 0x1a
    5a84:	ab 8f       	std	Y+27, r26	; 0x1b
    5a86:	bc 8f       	std	Y+28, r27	; 0x1c
	DIO_u8SetPinValue(Copy_psUltsonicTrigData -> TrigPort, Copy_psUltsonicTrigData -> TrigPin, DIO_u8PIN_HIGH);
	_delay_us(100);
	DIO_u8SetPinValue(Copy_psUltsonicTrigData -> TrigPort, Copy_psUltsonicTrigData -> TrigPin, DIO_u8PIN_LOW);

	/*Polling until the echo time is measured*/
	while(((ULTSONIC_u16Capture1Reading == 0u) || (ULTSONIC_u16Capture2Reading == 0u)) && (Local_u32TimeoutCounter < ULTSOINC_u32TIMEOUT))
    5a88:	80 91 7d 03 	lds	r24, 0x037D
    5a8c:	90 91 7e 03 	lds	r25, 0x037E
    5a90:	00 97       	sbiw	r24, 0x00	; 0
    5a92:	31 f0       	breq	.+12     	; 0x5aa0 <ULTRASONIC_u8MeasureDistance+0x22c>
    5a94:	80 91 7f 03 	lds	r24, 0x037F
    5a98:	90 91 80 03 	lds	r25, 0x0380
    5a9c:	00 97       	sbiw	r24, 0x00	; 0
    5a9e:	61 f4       	brne	.+24     	; 0x5ab8 <ULTRASONIC_u8MeasureDistance+0x244>
    5aa0:	89 8d       	ldd	r24, Y+25	; 0x19
    5aa2:	9a 8d       	ldd	r25, Y+26	; 0x1a
    5aa4:	ab 8d       	ldd	r26, Y+27	; 0x1b
    5aa6:	bc 8d       	ldd	r27, Y+28	; 0x1c
    5aa8:	80 35       	cpi	r24, 0x50	; 80
    5aaa:	23 ec       	ldi	r18, 0xC3	; 195
    5aac:	92 07       	cpc	r25, r18
    5aae:	20 e0       	ldi	r18, 0x00	; 0
    5ab0:	a2 07       	cpc	r26, r18
    5ab2:	20 e0       	ldi	r18, 0x00	; 0
    5ab4:	b2 07       	cpc	r27, r18
    5ab6:	e8 f2       	brcs	.-70     	; 0x5a72 <ULTRASONIC_u8MeasureDistance+0x1fe>
	{
		Local_u32TimeoutCounter++;
	}

	/*Disable timer 1 and overflow interrupt of it*/
	TIMER_u8SetIntStatus(INT_TIMER1_OVF,INT_DISABLE);
    5ab8:	85 e0       	ldi	r24, 0x05	; 5
    5aba:	62 e0       	ldi	r22, 0x02	; 2
    5abc:	0e 94 2f 20 	call	0x405e	; 0x405e <TIMER_u8SetIntStatus>
	TIMER_u8SetIntStatus(INT_TIMER1_CAPT,INT_DISABLE);
    5ac0:	84 e0       	ldi	r24, 0x04	; 4
    5ac2:	62 e0       	ldi	r22, 0x02	; 2
    5ac4:	0e 94 2f 20 	call	0x405e	; 0x405e <TIMER_u8SetIntStatus>
	//	TIMER_u8SetIntStatus(TIMER1);

	/*Check if there was overflow interrupts or not*/
	if(ULTSONIC_u16EchoOvfCounter == 0)
    5ac8:	80 91 83 03 	lds	r24, 0x0383
    5acc:	90 91 84 03 	lds	r25, 0x0384
    5ad0:	00 97       	sbiw	r24, 0x00	; 0
    5ad2:	a1 f4       	brne	.+40     	; 0x5afc <ULTRASONIC_u8MeasureDistance+0x288>
	{
		/*Calculate Echo Time in microseconds*/
		Local_u32EchoTime = ULTSONIC_u16Capture2Reading - ULTSONIC_u16Capture1Reading;
    5ad4:	20 91 7f 03 	lds	r18, 0x037F
    5ad8:	30 91 80 03 	lds	r19, 0x0380
    5adc:	80 91 7d 03 	lds	r24, 0x037D
    5ae0:	90 91 7e 03 	lds	r25, 0x037E
    5ae4:	a9 01       	movw	r20, r18
    5ae6:	48 1b       	sub	r20, r24
    5ae8:	59 0b       	sbc	r21, r25
    5aea:	ca 01       	movw	r24, r20
    5aec:	cc 01       	movw	r24, r24
    5aee:	a0 e0       	ldi	r26, 0x00	; 0
    5af0:	b0 e0       	ldi	r27, 0x00	; 0
    5af2:	8d 8f       	std	Y+29, r24	; 0x1d
    5af4:	9e 8f       	std	Y+30, r25	; 0x1e
    5af6:	af 8f       	std	Y+31, r26	; 0x1f
    5af8:	b8 a3       	std	Y+32, r27	; 0x20
    5afa:	59 c0       	rjmp	.+178    	; 0x5bae <ULTRASONIC_u8MeasureDistance+0x33a>
	}
	else
	{
		/*Calculate Echo Time in microseconds*/
		if(ULTSONIC_u16Capture2Reading >= ULTSONIC_u16Capture1Reading)
    5afc:	20 91 7f 03 	lds	r18, 0x037F
    5b00:	30 91 80 03 	lds	r19, 0x0380
    5b04:	80 91 7d 03 	lds	r24, 0x037D
    5b08:	90 91 7e 03 	lds	r25, 0x037E
    5b0c:	28 17       	cp	r18, r24
    5b0e:	39 07       	cpc	r19, r25
    5b10:	10 f1       	brcs	.+68     	; 0x5b56 <ULTRASONIC_u8MeasureDistance+0x2e2>
		{
			Local_u32EchoTime = (ULTSONIC_u16Capture2Reading - ULTSONIC_u16Capture1Reading) + (ULTSONIC_u16EchoOvfCounter * 65536);
    5b12:	20 91 7f 03 	lds	r18, 0x037F
    5b16:	30 91 80 03 	lds	r19, 0x0380
    5b1a:	80 91 7d 03 	lds	r24, 0x037D
    5b1e:	90 91 7e 03 	lds	r25, 0x037E
    5b22:	a9 01       	movw	r20, r18
    5b24:	48 1b       	sub	r20, r24
    5b26:	59 0b       	sbc	r21, r25
    5b28:	ca 01       	movw	r24, r20
    5b2a:	9c 01       	movw	r18, r24
    5b2c:	40 e0       	ldi	r20, 0x00	; 0
    5b2e:	50 e0       	ldi	r21, 0x00	; 0
    5b30:	80 91 83 03 	lds	r24, 0x0383
    5b34:	90 91 84 03 	lds	r25, 0x0384
    5b38:	cc 01       	movw	r24, r24
    5b3a:	a0 e0       	ldi	r26, 0x00	; 0
    5b3c:	b0 e0       	ldi	r27, 0x00	; 0
    5b3e:	dc 01       	movw	r26, r24
    5b40:	99 27       	eor	r25, r25
    5b42:	88 27       	eor	r24, r24
    5b44:	82 0f       	add	r24, r18
    5b46:	93 1f       	adc	r25, r19
    5b48:	a4 1f       	adc	r26, r20
    5b4a:	b5 1f       	adc	r27, r21
    5b4c:	8d 8f       	std	Y+29, r24	; 0x1d
    5b4e:	9e 8f       	std	Y+30, r25	; 0x1e
    5b50:	af 8f       	std	Y+31, r26	; 0x1f
    5b52:	b8 a3       	std	Y+32, r27	; 0x20
    5b54:	2c c0       	rjmp	.+88     	; 0x5bae <ULTRASONIC_u8MeasureDistance+0x33a>
		}
		else if(ULTSONIC_u16Capture2Reading < ULTSONIC_u16Capture1Reading)
    5b56:	20 91 7f 03 	lds	r18, 0x037F
    5b5a:	30 91 80 03 	lds	r19, 0x0380
    5b5e:	80 91 7d 03 	lds	r24, 0x037D
    5b62:	90 91 7e 03 	lds	r25, 0x037E
    5b66:	28 17       	cp	r18, r24
    5b68:	39 07       	cpc	r19, r25
    5b6a:	08 f5       	brcc	.+66     	; 0x5bae <ULTRASONIC_u8MeasureDistance+0x33a>
		{
			Local_u32EchoTime = (ULTSONIC_u16Capture1Reading - ULTSONIC_u16Capture2Reading) + (ULTSONIC_u16EchoOvfCounter * 65536);
    5b6c:	20 91 7d 03 	lds	r18, 0x037D
    5b70:	30 91 7e 03 	lds	r19, 0x037E
    5b74:	80 91 7f 03 	lds	r24, 0x037F
    5b78:	90 91 80 03 	lds	r25, 0x0380
    5b7c:	a9 01       	movw	r20, r18
    5b7e:	48 1b       	sub	r20, r24
    5b80:	59 0b       	sbc	r21, r25
    5b82:	ca 01       	movw	r24, r20
    5b84:	9c 01       	movw	r18, r24
    5b86:	40 e0       	ldi	r20, 0x00	; 0
    5b88:	50 e0       	ldi	r21, 0x00	; 0
    5b8a:	80 91 83 03 	lds	r24, 0x0383
    5b8e:	90 91 84 03 	lds	r25, 0x0384
    5b92:	cc 01       	movw	r24, r24
    5b94:	a0 e0       	ldi	r26, 0x00	; 0
    5b96:	b0 e0       	ldi	r27, 0x00	; 0
    5b98:	dc 01       	movw	r26, r24
    5b9a:	99 27       	eor	r25, r25
    5b9c:	88 27       	eor	r24, r24
    5b9e:	82 0f       	add	r24, r18
    5ba0:	93 1f       	adc	r25, r19
    5ba2:	a4 1f       	adc	r26, r20
    5ba4:	b5 1f       	adc	r27, r21
    5ba6:	8d 8f       	std	Y+29, r24	; 0x1d
    5ba8:	9e 8f       	std	Y+30, r25	; 0x1e
    5baa:	af 8f       	std	Y+31, r26	; 0x1f
    5bac:	b8 a3       	std	Y+32, r27	; 0x20
		}
	}

	/*Measure Distance using Echo Time*/
	*Copy_u16Distance = (((f32) Local_u32EchoTime / 2.0) * (34.0 / 1000.0));
    5bae:	6d 8d       	ldd	r22, Y+29	; 0x1d
    5bb0:	7e 8d       	ldd	r23, Y+30	; 0x1e
    5bb2:	8f 8d       	ldd	r24, Y+31	; 0x1f
    5bb4:	98 a1       	ldd	r25, Y+32	; 0x20
    5bb6:	0e 94 a9 04 	call	0x952	; 0x952 <__floatunsisf>
    5bba:	dc 01       	movw	r26, r24
    5bbc:	cb 01       	movw	r24, r22
    5bbe:	bc 01       	movw	r22, r24
    5bc0:	cd 01       	movw	r24, r26
    5bc2:	20 e0       	ldi	r18, 0x00	; 0
    5bc4:	30 e0       	ldi	r19, 0x00	; 0
    5bc6:	40 e0       	ldi	r20, 0x00	; 0
    5bc8:	50 e4       	ldi	r21, 0x40	; 64
    5bca:	0e 94 19 03 	call	0x632	; 0x632 <__divsf3>
    5bce:	dc 01       	movw	r26, r24
    5bd0:	cb 01       	movw	r24, r22
    5bd2:	bc 01       	movw	r22, r24
    5bd4:	cd 01       	movw	r24, r26
    5bd6:	26 e9       	ldi	r18, 0x96	; 150
    5bd8:	33 e4       	ldi	r19, 0x43	; 67
    5bda:	4b e0       	ldi	r20, 0x0B	; 11
    5bdc:	5d e3       	ldi	r21, 0x3D	; 61
    5bde:	0e 94 1f 02 	call	0x43e	; 0x43e <__mulsf3>
    5be2:	dc 01       	movw	r26, r24
    5be4:	cb 01       	movw	r24, r22
    5be6:	bc 01       	movw	r22, r24
    5be8:	cd 01       	movw	r24, r26
    5bea:	0e 94 49 00 	call	0x92	; 0x92 <__fixunssfsi>
    5bee:	dc 01       	movw	r26, r24
    5bf0:	cb 01       	movw	r24, r22
    5bf2:	ed a1       	ldd	r30, Y+37	; 0x25
    5bf4:	fe a1       	ldd	r31, Y+38	; 0x26
    5bf6:	91 83       	std	Z+1, r25	; 0x01
    5bf8:	80 83       	st	Z, r24

	/*Reset the global variables*/
	ULTSONIC_u16Capture1Reading = 0u;
    5bfa:	10 92 7e 03 	sts	0x037E, r1
    5bfe:	10 92 7d 03 	sts	0x037D, r1
	ULTSONIC_u16Capture2Reading = 0u;
    5c02:	10 92 80 03 	sts	0x0380, r1
    5c06:	10 92 7f 03 	sts	0x037F, r1
	ULTSONIC_u16OvfCounter = 0u;
    5c0a:	10 92 82 03 	sts	0x0382, r1
    5c0e:	10 92 81 03 	sts	0x0381, r1
	ULTSONIC_u16EchoOvfCounter = 0u;
    5c12:	10 92 84 03 	sts	0x0384, r1
    5c16:	10 92 83 03 	sts	0x0383, r1

}
    5c1a:	a6 96       	adiw	r28, 0x26	; 38
    5c1c:	0f b6       	in	r0, 0x3f	; 63
    5c1e:	f8 94       	cli
    5c20:	de bf       	out	0x3e, r29	; 62
    5c22:	0f be       	out	0x3f, r0	; 63
    5c24:	cd bf       	out	0x3d, r28	; 61
    5c26:	cf 91       	pop	r28
    5c28:	df 91       	pop	r29
    5c2a:	08 95       	ret

00005c2c <ULTSONIC_voidCaptureISR>:

static void ULTSONIC_voidCaptureISR(void)
{
    5c2c:	df 93       	push	r29
    5c2e:	cf 93       	push	r28
    5c30:	cd b7       	in	r28, 0x3d	; 61
    5c32:	de b7       	in	r29, 0x3e	; 62

	static u8 Local_u8Counter = 0;
	if(Local_u8Counter == 1)
    5c34:	80 91 85 03 	lds	r24, 0x0385
    5c38:	81 30       	cpi	r24, 0x01	; 1
    5c3a:	71 f4       	brne	.+28     	; 0x5c58 <ULTSONIC_voidCaptureISR+0x2c>
	{
		/*Enable Overflow interrupt of timer1*/
		TIMER_u8SetIntStatus(INT_TIMER1_OVF,INT_ENABLE);
    5c3c:	85 e0       	ldi	r24, 0x05	; 5
    5c3e:	61 e0       	ldi	r22, 0x01	; 1
    5c40:	0e 94 2f 20 	call	0x405e	; 0x405e <TIMER_u8SetIntStatus>
		ULTSONIC_u16Capture1Reading = ICU_u16ReadInputCapture();
    5c44:	0e 94 72 2a 	call	0x54e4	; 0x54e4 <ICU_u16ReadInputCapture>
    5c48:	90 93 7e 03 	sts	0x037E, r25
    5c4c:	80 93 7d 03 	sts	0x037D, r24
		ICU_u8SetEdge(FALLING_EDGE);
    5c50:	80 e0       	ldi	r24, 0x00	; 0
    5c52:	0e 94 4d 2a 	call	0x549a	; 0x549a <ICU_u8SetEdge>
    5c56:	14 c0       	rjmp	.+40     	; 0x5c80 <ULTSONIC_voidCaptureISR+0x54>
	}
	else if(Local_u8Counter == 2)
    5c58:	80 91 85 03 	lds	r24, 0x0385
    5c5c:	82 30       	cpi	r24, 0x02	; 2
    5c5e:	81 f4       	brne	.+32     	; 0x5c80 <ULTSONIC_voidCaptureISR+0x54>
	{
		ULTSONIC_u16Capture2Reading = ICU_u16ReadInputCapture();
    5c60:	0e 94 72 2a 	call	0x54e4	; 0x54e4 <ICU_u16ReadInputCapture>
    5c64:	90 93 80 03 	sts	0x0380, r25
    5c68:	80 93 7f 03 	sts	0x037F, r24
		ULTSONIC_u16EchoOvfCounter = ULTSONIC_u16OvfCounter;
    5c6c:	80 91 81 03 	lds	r24, 0x0381
    5c70:	90 91 82 03 	lds	r25, 0x0382
    5c74:	90 93 84 03 	sts	0x0384, r25
    5c78:	80 93 83 03 	sts	0x0383, r24
		Local_u8Counter = 0;
    5c7c:	10 92 85 03 	sts	0x0385, r1
	}

}
    5c80:	cf 91       	pop	r28
    5c82:	df 91       	pop	r29
    5c84:	08 95       	ret

00005c86 <ULTSONIC_voidOvfISR>:


/*Overflow ISR*/
static void ULTSONIC_voidOvfISR(void)
{
    5c86:	df 93       	push	r29
    5c88:	cf 93       	push	r28
    5c8a:	cd b7       	in	r28, 0x3d	; 61
    5c8c:	de b7       	in	r29, 0x3e	; 62
	ULTSONIC_u16OvfCounter++;
    5c8e:	80 91 81 03 	lds	r24, 0x0381
    5c92:	90 91 82 03 	lds	r25, 0x0382
    5c96:	01 96       	adiw	r24, 0x01	; 1
    5c98:	90 93 82 03 	sts	0x0382, r25
    5c9c:	80 93 81 03 	sts	0x0381, r24
}
    5ca0:	cf 91       	pop	r28
    5ca2:	df 91       	pop	r29
    5ca4:	08 95       	ret

00005ca6 <ULTSONIC_u8MeasureDistance>:
 * @param Copy_stUltsonicData Pointer to struct that carry the ultrasonic data.
 * @param Copy_u16Distance Pointer to return the distance in cm.
 * @return Error State.
 */
void ULTSONIC_u8MeasureDistance(const ULTSONIC_t *Copy_stUltsonicData, u16 *Copy_u16Distance)
{
    5ca6:	df 93       	push	r29
    5ca8:	cf 93       	push	r28
    5caa:	cd b7       	in	r28, 0x3d	; 61
    5cac:	de b7       	in	r29, 0x3e	; 62
    5cae:	e2 97       	sbiw	r28, 0x32	; 50
    5cb0:	0f b6       	in	r0, 0x3f	; 63
    5cb2:	f8 94       	cli
    5cb4:	de bf       	out	0x3e, r29	; 62
    5cb6:	0f be       	out	0x3f, r0	; 63
    5cb8:	cd bf       	out	0x3d, r28	; 61
    5cba:	9b a7       	std	Y+43, r25	; 0x2b
    5cbc:	8a a7       	std	Y+42, r24	; 0x2a
    5cbe:	7d a7       	std	Y+45, r23	; 0x2d
    5cc0:	6c a7       	std	Y+44, r22	; 0x2c
	/*Define Variables*/
	u8 Local_u8ErrorState = OK;
    5cc2:	1a a2       	std	Y+34, r1	; 0x22
	u8 Local_u8ErrorFounder = OK;
    5cc4:	19 a2       	std	Y+33, r1	; 0x21
	u32 Local_u32EchoTime = 0;
    5cc6:	1d 8e       	std	Y+29, r1	; 0x1d
    5cc8:	1e 8e       	std	Y+30, r1	; 0x1e
    5cca:	1f 8e       	std	Y+31, r1	; 0x1f
    5ccc:	18 a2       	std	Y+32, r1	; 0x20
	u32 Local_u32TimeoutCounter = 0;
    5cce:	19 8e       	std	Y+25, r1	; 0x19
    5cd0:	1a 8e       	std	Y+26, r1	; 0x1a
    5cd2:	1b 8e       	std	Y+27, r1	; 0x1b
    5cd4:	1c 8e       	std	Y+28, r1	; 0x1c
		OCM_DISCONNECT,
		OCM_DISCONNECT,
		INT_DISABLE,
		INT_DISABLE,
		INT_ENABLE,
	};
    5cd6:	ae 01       	movw	r20, r28
    5cd8:	4d 5d       	subi	r20, 0xDD	; 221
    5cda:	5f 4f       	sbci	r21, 0xFF	; 255
    5cdc:	5f a7       	std	Y+47, r21	; 0x2f
    5cde:	4e a7       	std	Y+46, r20	; 0x2e
    5ce0:	81 e4       	ldi	r24, 0x41	; 65
    5ce2:	93 e0       	ldi	r25, 0x03	; 3
    5ce4:	99 ab       	std	Y+49, r25	; 0x31
    5ce6:	88 ab       	std	Y+48, r24	; 0x30
    5ce8:	97 e0       	ldi	r25, 0x07	; 7
    5cea:	9a ab       	std	Y+50, r25	; 0x32
    5cec:	e8 a9       	ldd	r30, Y+48	; 0x30
    5cee:	f9 a9       	ldd	r31, Y+49	; 0x31
    5cf0:	00 80       	ld	r0, Z
    5cf2:	48 a9       	ldd	r20, Y+48	; 0x30
    5cf4:	59 a9       	ldd	r21, Y+49	; 0x31
    5cf6:	4f 5f       	subi	r20, 0xFF	; 255
    5cf8:	5f 4f       	sbci	r21, 0xFF	; 255
    5cfa:	59 ab       	std	Y+49, r21	; 0x31
    5cfc:	48 ab       	std	Y+48, r20	; 0x30
    5cfe:	ee a5       	ldd	r30, Y+46	; 0x2e
    5d00:	ff a5       	ldd	r31, Y+47	; 0x2f
    5d02:	00 82       	st	Z, r0
    5d04:	4e a5       	ldd	r20, Y+46	; 0x2e
    5d06:	5f a5       	ldd	r21, Y+47	; 0x2f
    5d08:	4f 5f       	subi	r20, 0xFF	; 255
    5d0a:	5f 4f       	sbci	r21, 0xFF	; 255
    5d0c:	5f a7       	std	Y+47, r21	; 0x2f
    5d0e:	4e a7       	std	Y+46, r20	; 0x2e
    5d10:	5a a9       	ldd	r21, Y+50	; 0x32
    5d12:	51 50       	subi	r21, 0x01	; 1
    5d14:	5a ab       	std	Y+50, r21	; 0x32
    5d16:	8a a9       	ldd	r24, Y+50	; 0x32
    5d18:	88 23       	and	r24, r24
    5d1a:	41 f7       	brne	.-48     	; 0x5cec <ULTSONIC_u8MeasureDistance+0x46>


//	if(Local_u8ErrorFounder == OK)
//	{
		/*Initialize and Enable Capture Unit and Overflow Interrupts of timer 1*/
		TIMER_u8SetCallBack(INT_TIMER1_CAPT,&ULTSONIC_voidCaptureISR);
    5d1c:	22 e5       	ldi	r18, 0x52	; 82
    5d1e:	30 e3       	ldi	r19, 0x30	; 48
    5d20:	84 e0       	ldi	r24, 0x04	; 4
    5d22:	b9 01       	movw	r22, r18
    5d24:	0e 94 7d 2a 	call	0x54fa	; 0x54fa <TIMER_u8SetCallBack>
		TIMER_u8SetCallBack(INT_TIMER0_OVF,&ULTSONIC_voidOvfISR);
    5d28:	20 e8       	ldi	r18, 0x80	; 128
    5d2a:	30 e3       	ldi	r19, 0x30	; 48
    5d2c:	87 e0       	ldi	r24, 0x07	; 7
    5d2e:	b9 01       	movw	r22, r18
    5d30:	0e 94 7d 2a 	call	0x54fa	; 0x54fa <TIMER_u8SetCallBack>

		ICU_u8Init(RISING_EDGE,INT_ENABLE);
    5d34:	81 e0       	ldi	r24, 0x01	; 1
    5d36:	61 e0       	ldi	r22, 0x01	; 1
    5d38:	0e 94 0d 2a 	call	0x541a	; 0x541a <ICU_u8Init>
		TIMER1_u8Init(&Local_stTimer1Cfg);
    5d3c:	ce 01       	movw	r24, r28
    5d3e:	83 96       	adiw	r24, 0x23	; 35
    5d40:	0e 94 b3 22 	call	0x4566	; 0x4566 <TIMER1_u8Init>

		/*Trigger the ultrasonic to return its echo*/
		DIO_u8SetPinValue(Copy_stUltsonicData -> TrigPort, Copy_stUltsonicData -> TrigPin, DIO_u8PIN_HIGH);
    5d44:	ea a5       	ldd	r30, Y+42	; 0x2a
    5d46:	fb a5       	ldd	r31, Y+43	; 0x2b
    5d48:	80 81       	ld	r24, Z
    5d4a:	ea a5       	ldd	r30, Y+42	; 0x2a
    5d4c:	fb a5       	ldd	r31, Y+43	; 0x2b
    5d4e:	91 81       	ldd	r25, Z+1	; 0x01
    5d50:	69 2f       	mov	r22, r25
    5d52:	41 e0       	ldi	r20, 0x01	; 1
    5d54:	0e 94 b2 13 	call	0x2764	; 0x2764 <DIO_u8SetPinValue>
    5d58:	80 e0       	ldi	r24, 0x00	; 0
    5d5a:	90 e0       	ldi	r25, 0x00	; 0
    5d5c:	a8 ec       	ldi	r26, 0xC8	; 200
    5d5e:	b2 e4       	ldi	r27, 0x42	; 66
    5d60:	8d 8b       	std	Y+21, r24	; 0x15
    5d62:	9e 8b       	std	Y+22, r25	; 0x16
    5d64:	af 8b       	std	Y+23, r26	; 0x17
    5d66:	b8 8f       	std	Y+24, r27	; 0x18
 */
void
_delay_us(double __us)
{
	uint8_t __ticks;
	double __tmp = ((F_CPU) / 3e6) * __us;
    5d68:	6d 89       	ldd	r22, Y+21	; 0x15
    5d6a:	7e 89       	ldd	r23, Y+22	; 0x16
    5d6c:	8f 89       	ldd	r24, Y+23	; 0x17
    5d6e:	98 8d       	ldd	r25, Y+24	; 0x18
    5d70:	2b ea       	ldi	r18, 0xAB	; 171
    5d72:	3a ea       	ldi	r19, 0xAA	; 170
    5d74:	4a e2       	ldi	r20, 0x2A	; 42
    5d76:	50 e4       	ldi	r21, 0x40	; 64
    5d78:	0e 94 1f 02 	call	0x43e	; 0x43e <__mulsf3>
    5d7c:	dc 01       	movw	r26, r24
    5d7e:	cb 01       	movw	r24, r22
    5d80:	89 8b       	std	Y+17, r24	; 0x11
    5d82:	9a 8b       	std	Y+18, r25	; 0x12
    5d84:	ab 8b       	std	Y+19, r26	; 0x13
    5d86:	bc 8b       	std	Y+20, r27	; 0x14
	if (__tmp < 1.0)
    5d88:	69 89       	ldd	r22, Y+17	; 0x11
    5d8a:	7a 89       	ldd	r23, Y+18	; 0x12
    5d8c:	8b 89       	ldd	r24, Y+19	; 0x13
    5d8e:	9c 89       	ldd	r25, Y+20	; 0x14
    5d90:	20 e0       	ldi	r18, 0x00	; 0
    5d92:	30 e0       	ldi	r19, 0x00	; 0
    5d94:	40 e8       	ldi	r20, 0x80	; 128
    5d96:	5f e3       	ldi	r21, 0x3F	; 63
    5d98:	0e 94 25 04 	call	0x84a	; 0x84a <__ltsf2>
    5d9c:	88 23       	and	r24, r24
    5d9e:	1c f4       	brge	.+6      	; 0x5da6 <ULTSONIC_u8MeasureDistance+0x100>
		__ticks = 1;
    5da0:	81 e0       	ldi	r24, 0x01	; 1
    5da2:	88 8b       	std	Y+16, r24	; 0x10
    5da4:	91 c0       	rjmp	.+290    	; 0x5ec8 <ULTSONIC_u8MeasureDistance+0x222>
	else if (__tmp > 255)
    5da6:	69 89       	ldd	r22, Y+17	; 0x11
    5da8:	7a 89       	ldd	r23, Y+18	; 0x12
    5daa:	8b 89       	ldd	r24, Y+19	; 0x13
    5dac:	9c 89       	ldd	r25, Y+20	; 0x14
    5dae:	20 e0       	ldi	r18, 0x00	; 0
    5db0:	30 e0       	ldi	r19, 0x00	; 0
    5db2:	4f e7       	ldi	r20, 0x7F	; 127
    5db4:	53 e4       	ldi	r21, 0x43	; 67
    5db6:	0e 94 c5 03 	call	0x78a	; 0x78a <__gtsf2>
    5dba:	18 16       	cp	r1, r24
    5dbc:	0c f0       	brlt	.+2      	; 0x5dc0 <ULTSONIC_u8MeasureDistance+0x11a>
    5dbe:	7b c0       	rjmp	.+246    	; 0x5eb6 <ULTSONIC_u8MeasureDistance+0x210>
	{
		_delay_ms(__us / 1000.0);
    5dc0:	6d 89       	ldd	r22, Y+21	; 0x15
    5dc2:	7e 89       	ldd	r23, Y+22	; 0x16
    5dc4:	8f 89       	ldd	r24, Y+23	; 0x17
    5dc6:	98 8d       	ldd	r25, Y+24	; 0x18
    5dc8:	20 e0       	ldi	r18, 0x00	; 0
    5dca:	30 e0       	ldi	r19, 0x00	; 0
    5dcc:	4a e7       	ldi	r20, 0x7A	; 122
    5dce:	54 e4       	ldi	r21, 0x44	; 68
    5dd0:	0e 94 19 03 	call	0x632	; 0x632 <__divsf3>
    5dd4:	dc 01       	movw	r26, r24
    5dd6:	cb 01       	movw	r24, r22
    5dd8:	8c 87       	std	Y+12, r24	; 0x0c
    5dda:	9d 87       	std	Y+13, r25	; 0x0d
    5ddc:	ae 87       	std	Y+14, r26	; 0x0e
    5dde:	bf 87       	std	Y+15, r27	; 0x0f
 */
void
_delay_ms(double __ms)
{
	uint16_t __ticks;
	double __tmp = ((F_CPU) / 4e3) * __ms;
    5de0:	6c 85       	ldd	r22, Y+12	; 0x0c
    5de2:	7d 85       	ldd	r23, Y+13	; 0x0d
    5de4:	8e 85       	ldd	r24, Y+14	; 0x0e
    5de6:	9f 85       	ldd	r25, Y+15	; 0x0f
    5de8:	20 e0       	ldi	r18, 0x00	; 0
    5dea:	30 e0       	ldi	r19, 0x00	; 0
    5dec:	4a ef       	ldi	r20, 0xFA	; 250
    5dee:	54 e4       	ldi	r21, 0x44	; 68
    5df0:	0e 94 1f 02 	call	0x43e	; 0x43e <__mulsf3>
    5df4:	dc 01       	movw	r26, r24
    5df6:	cb 01       	movw	r24, r22
    5df8:	88 87       	std	Y+8, r24	; 0x08
    5dfa:	99 87       	std	Y+9, r25	; 0x09
    5dfc:	aa 87       	std	Y+10, r26	; 0x0a
    5dfe:	bb 87       	std	Y+11, r27	; 0x0b
	if (__tmp < 1.0)
    5e00:	68 85       	ldd	r22, Y+8	; 0x08
    5e02:	79 85       	ldd	r23, Y+9	; 0x09
    5e04:	8a 85       	ldd	r24, Y+10	; 0x0a
    5e06:	9b 85       	ldd	r25, Y+11	; 0x0b
    5e08:	20 e0       	ldi	r18, 0x00	; 0
    5e0a:	30 e0       	ldi	r19, 0x00	; 0
    5e0c:	40 e8       	ldi	r20, 0x80	; 128
    5e0e:	5f e3       	ldi	r21, 0x3F	; 63
    5e10:	0e 94 25 04 	call	0x84a	; 0x84a <__ltsf2>
    5e14:	88 23       	and	r24, r24
    5e16:	2c f4       	brge	.+10     	; 0x5e22 <ULTSONIC_u8MeasureDistance+0x17c>
		__ticks = 1;
    5e18:	81 e0       	ldi	r24, 0x01	; 1
    5e1a:	90 e0       	ldi	r25, 0x00	; 0
    5e1c:	9f 83       	std	Y+7, r25	; 0x07
    5e1e:	8e 83       	std	Y+6, r24	; 0x06
    5e20:	3f c0       	rjmp	.+126    	; 0x5ea0 <ULTSONIC_u8MeasureDistance+0x1fa>
	else if (__tmp > 65535)
    5e22:	68 85       	ldd	r22, Y+8	; 0x08
    5e24:	79 85       	ldd	r23, Y+9	; 0x09
    5e26:	8a 85       	ldd	r24, Y+10	; 0x0a
    5e28:	9b 85       	ldd	r25, Y+11	; 0x0b
    5e2a:	20 e0       	ldi	r18, 0x00	; 0
    5e2c:	3f ef       	ldi	r19, 0xFF	; 255
    5e2e:	4f e7       	ldi	r20, 0x7F	; 127
    5e30:	57 e4       	ldi	r21, 0x47	; 71
    5e32:	0e 94 c5 03 	call	0x78a	; 0x78a <__gtsf2>
    5e36:	18 16       	cp	r1, r24
    5e38:	4c f5       	brge	.+82     	; 0x5e8c <ULTSONIC_u8MeasureDistance+0x1e6>
	{
		//	__ticks = requested delay in 1/10 ms
		__ticks = (uint16_t) (__ms * 10.0);
    5e3a:	6c 85       	ldd	r22, Y+12	; 0x0c
    5e3c:	7d 85       	ldd	r23, Y+13	; 0x0d
    5e3e:	8e 85       	ldd	r24, Y+14	; 0x0e
    5e40:	9f 85       	ldd	r25, Y+15	; 0x0f
    5e42:	20 e0       	ldi	r18, 0x00	; 0
    5e44:	30 e0       	ldi	r19, 0x00	; 0
    5e46:	40 e2       	ldi	r20, 0x20	; 32
    5e48:	51 e4       	ldi	r21, 0x41	; 65
    5e4a:	0e 94 1f 02 	call	0x43e	; 0x43e <__mulsf3>
    5e4e:	dc 01       	movw	r26, r24
    5e50:	cb 01       	movw	r24, r22
    5e52:	bc 01       	movw	r22, r24
    5e54:	cd 01       	movw	r24, r26
    5e56:	0e 94 49 00 	call	0x92	; 0x92 <__fixunssfsi>
    5e5a:	dc 01       	movw	r26, r24
    5e5c:	cb 01       	movw	r24, r22
    5e5e:	9f 83       	std	Y+7, r25	; 0x07
    5e60:	8e 83       	std	Y+6, r24	; 0x06
    5e62:	0f c0       	rjmp	.+30     	; 0x5e82 <ULTSONIC_u8MeasureDistance+0x1dc>
    5e64:	88 ec       	ldi	r24, 0xC8	; 200
    5e66:	90 e0       	ldi	r25, 0x00	; 0
    5e68:	9d 83       	std	Y+5, r25	; 0x05
    5e6a:	8c 83       	std	Y+4, r24	; 0x04
    milliseconds can be achieved.
 */
void
_delay_loop_2(uint16_t __count)
{
	__asm__ volatile (
    5e6c:	8c 81       	ldd	r24, Y+4	; 0x04
    5e6e:	9d 81       	ldd	r25, Y+5	; 0x05
    5e70:	01 97       	sbiw	r24, 0x01	; 1
    5e72:	f1 f7       	brne	.-4      	; 0x5e70 <ULTSONIC_u8MeasureDistance+0x1ca>
    5e74:	9d 83       	std	Y+5, r25	; 0x05
    5e76:	8c 83       	std	Y+4, r24	; 0x04
		while(__ticks)
		{
			// wait 1/10 ms
			_delay_loop_2(((F_CPU) / 4e3) / 10);
			__ticks --;
    5e78:	8e 81       	ldd	r24, Y+6	; 0x06
    5e7a:	9f 81       	ldd	r25, Y+7	; 0x07
    5e7c:	01 97       	sbiw	r24, 0x01	; 1
    5e7e:	9f 83       	std	Y+7, r25	; 0x07
    5e80:	8e 83       	std	Y+6, r24	; 0x06
		__ticks = 1;
	else if (__tmp > 65535)
	{
		//	__ticks = requested delay in 1/10 ms
		__ticks = (uint16_t) (__ms * 10.0);
		while(__ticks)
    5e82:	8e 81       	ldd	r24, Y+6	; 0x06
    5e84:	9f 81       	ldd	r25, Y+7	; 0x07
    5e86:	00 97       	sbiw	r24, 0x00	; 0
    5e88:	69 f7       	brne	.-38     	; 0x5e64 <ULTSONIC_u8MeasureDistance+0x1be>
    5e8a:	24 c0       	rjmp	.+72     	; 0x5ed4 <ULTSONIC_u8MeasureDistance+0x22e>
			__ticks --;
		}
		return;
	}
	else
		__ticks = (uint16_t)__tmp;
    5e8c:	68 85       	ldd	r22, Y+8	; 0x08
    5e8e:	79 85       	ldd	r23, Y+9	; 0x09
    5e90:	8a 85       	ldd	r24, Y+10	; 0x0a
    5e92:	9b 85       	ldd	r25, Y+11	; 0x0b
    5e94:	0e 94 49 00 	call	0x92	; 0x92 <__fixunssfsi>
    5e98:	dc 01       	movw	r26, r24
    5e9a:	cb 01       	movw	r24, r22
    5e9c:	9f 83       	std	Y+7, r25	; 0x07
    5e9e:	8e 83       	std	Y+6, r24	; 0x06
    5ea0:	8e 81       	ldd	r24, Y+6	; 0x06
    5ea2:	9f 81       	ldd	r25, Y+7	; 0x07
    5ea4:	9b 83       	std	Y+3, r25	; 0x03
    5ea6:	8a 83       	std	Y+2, r24	; 0x02
    5ea8:	8a 81       	ldd	r24, Y+2	; 0x02
    5eaa:	9b 81       	ldd	r25, Y+3	; 0x03
    5eac:	01 97       	sbiw	r24, 0x01	; 1
    5eae:	f1 f7       	brne	.-4      	; 0x5eac <ULTSONIC_u8MeasureDistance+0x206>
    5eb0:	9b 83       	std	Y+3, r25	; 0x03
    5eb2:	8a 83       	std	Y+2, r24	; 0x02
    5eb4:	0f c0       	rjmp	.+30     	; 0x5ed4 <ULTSONIC_u8MeasureDistance+0x22e>
	{
		_delay_ms(__us / 1000.0);
		return;
	}
	else
		__ticks = (uint8_t)__tmp;
    5eb6:	69 89       	ldd	r22, Y+17	; 0x11
    5eb8:	7a 89       	ldd	r23, Y+18	; 0x12
    5eba:	8b 89       	ldd	r24, Y+19	; 0x13
    5ebc:	9c 89       	ldd	r25, Y+20	; 0x14
    5ebe:	0e 94 49 00 	call	0x92	; 0x92 <__fixunssfsi>
    5ec2:	dc 01       	movw	r26, r24
    5ec4:	cb 01       	movw	r24, r22
    5ec6:	88 8b       	std	Y+16, r24	; 0x10
    5ec8:	88 89       	ldd	r24, Y+16	; 0x10
    5eca:	89 83       	std	Y+1, r24	; 0x01
    can be achieved.
*/
void
_delay_loop_1(uint8_t __count)
{
	__asm__ volatile (
    5ecc:	89 81       	ldd	r24, Y+1	; 0x01
    5ece:	8a 95       	dec	r24
    5ed0:	f1 f7       	brne	.-4      	; 0x5ece <ULTSONIC_u8MeasureDistance+0x228>
    5ed2:	89 83       	std	Y+1, r24	; 0x01
		_delay_us(100);
		DIO_u8SetPinValue(Copy_stUltsonicData -> TrigPort, Copy_stUltsonicData -> TrigPin, DIO_u8PIN_LOW);
    5ed4:	ea a5       	ldd	r30, Y+42	; 0x2a
    5ed6:	fb a5       	ldd	r31, Y+43	; 0x2b
    5ed8:	80 81       	ld	r24, Z
    5eda:	ea a5       	ldd	r30, Y+42	; 0x2a
    5edc:	fb a5       	ldd	r31, Y+43	; 0x2b
    5ede:	91 81       	ldd	r25, Z+1	; 0x01
    5ee0:	69 2f       	mov	r22, r25
    5ee2:	40 e0       	ldi	r20, 0x00	; 0
    5ee4:	0e 94 b2 13 	call	0x2764	; 0x2764 <DIO_u8SetPinValue>
    5ee8:	0b c0       	rjmp	.+22     	; 0x5f00 <ULTSONIC_u8MeasureDistance+0x25a>


		/*Polling until the echo time is measured*/
		while(((ULTSONIC_u16Capture1 == 0) || (ULTSONIC_u16Capture2 == 0)) && (Local_u32TimeoutCounter < ULTSOINC_u32TIMEOUT))
		{
			Local_u32TimeoutCounter++;
    5eea:	89 8d       	ldd	r24, Y+25	; 0x19
    5eec:	9a 8d       	ldd	r25, Y+26	; 0x1a
    5eee:	ab 8d       	ldd	r26, Y+27	; 0x1b
    5ef0:	bc 8d       	ldd	r27, Y+28	; 0x1c
    5ef2:	01 96       	adiw	r24, 0x01	; 1
    5ef4:	a1 1d       	adc	r26, r1
    5ef6:	b1 1d       	adc	r27, r1
    5ef8:	89 8f       	std	Y+25, r24	; 0x19
    5efa:	9a 8f       	std	Y+26, r25	; 0x1a
    5efc:	ab 8f       	std	Y+27, r26	; 0x1b
    5efe:	bc 8f       	std	Y+28, r27	; 0x1c
		_delay_us(100);
		DIO_u8SetPinValue(Copy_stUltsonicData -> TrigPort, Copy_stUltsonicData -> TrigPin, DIO_u8PIN_LOW);


		/*Polling until the echo time is measured*/
		while(((ULTSONIC_u16Capture1 == 0) || (ULTSONIC_u16Capture2 == 0)) && (Local_u32TimeoutCounter < ULTSOINC_u32TIMEOUT))
    5f00:	80 91 86 03 	lds	r24, 0x0386
    5f04:	90 91 87 03 	lds	r25, 0x0387
    5f08:	00 97       	sbiw	r24, 0x00	; 0
    5f0a:	31 f0       	breq	.+12     	; 0x5f18 <ULTSONIC_u8MeasureDistance+0x272>
    5f0c:	80 91 88 03 	lds	r24, 0x0388
    5f10:	90 91 89 03 	lds	r25, 0x0389
    5f14:	00 97       	sbiw	r24, 0x00	; 0
    5f16:	61 f4       	brne	.+24     	; 0x5f30 <ULTSONIC_u8MeasureDistance+0x28a>
    5f18:	89 8d       	ldd	r24, Y+25	; 0x19
    5f1a:	9a 8d       	ldd	r25, Y+26	; 0x1a
    5f1c:	ab 8d       	ldd	r26, Y+27	; 0x1b
    5f1e:	bc 8d       	ldd	r27, Y+28	; 0x1c
    5f20:	80 35       	cpi	r24, 0x50	; 80
    5f22:	e3 ec       	ldi	r30, 0xC3	; 195
    5f24:	9e 07       	cpc	r25, r30
    5f26:	e0 e0       	ldi	r30, 0x00	; 0
    5f28:	ae 07       	cpc	r26, r30
    5f2a:	e0 e0       	ldi	r30, 0x00	; 0
    5f2c:	be 07       	cpc	r27, r30
    5f2e:	e8 f2       	brcs	.-70     	; 0x5eea <ULTSONIC_u8MeasureDistance+0x244>
		{
			Local_u32TimeoutCounter++;
		}

		/*Disable timer 1 and overflow interrupt of it*/
		TIMER_u8SetIntStatus(INT_TIMER1_OVF,INT_DISABLE);
    5f30:	85 e0       	ldi	r24, 0x05	; 5
    5f32:	62 e0       	ldi	r22, 0x02	; 2
    5f34:	0e 94 2f 20 	call	0x405e	; 0x405e <TIMER_u8SetIntStatus>
		TIMER_u8SetIntStatus(INT_TIMER1_CAPT,INT_DISABLE);
    5f38:	84 e0       	ldi	r24, 0x04	; 4
    5f3a:	62 e0       	ldi	r22, 0x02	; 2
    5f3c:	0e 94 2f 20 	call	0x405e	; 0x405e <TIMER_u8SetIntStatus>


		/*Check if there was overflow interrupts or not*/
		if(ULTSONIC_u16EchoOvfCounter == 0)
    5f40:	80 91 8c 03 	lds	r24, 0x038C
    5f44:	90 91 8d 03 	lds	r25, 0x038D
    5f48:	00 97       	sbiw	r24, 0x00	; 0
    5f4a:	a1 f4       	brne	.+40     	; 0x5f74 <ULTSONIC_u8MeasureDistance+0x2ce>
		{
			/*Calculate Echo Time in microseconds*/
			Local_u32EchoTime = ULTSONIC_u16Capture2 - ULTSONIC_u16Capture1;
    5f4c:	20 91 88 03 	lds	r18, 0x0388
    5f50:	30 91 89 03 	lds	r19, 0x0389
    5f54:	80 91 86 03 	lds	r24, 0x0386
    5f58:	90 91 87 03 	lds	r25, 0x0387
    5f5c:	a9 01       	movw	r20, r18
    5f5e:	48 1b       	sub	r20, r24
    5f60:	59 0b       	sbc	r21, r25
    5f62:	ca 01       	movw	r24, r20
    5f64:	cc 01       	movw	r24, r24
    5f66:	a0 e0       	ldi	r26, 0x00	; 0
    5f68:	b0 e0       	ldi	r27, 0x00	; 0
    5f6a:	8d 8f       	std	Y+29, r24	; 0x1d
    5f6c:	9e 8f       	std	Y+30, r25	; 0x1e
    5f6e:	af 8f       	std	Y+31, r26	; 0x1f
    5f70:	b8 a3       	std	Y+32, r27	; 0x20
    5f72:	59 c0       	rjmp	.+178    	; 0x6026 <ULTSONIC_u8MeasureDistance+0x380>
		}
		else
		{
			/*Calculate Echo Time in microseconds*/
			if(ULTSONIC_u16Capture2 >= ULTSONIC_u16Capture1)
    5f74:	20 91 88 03 	lds	r18, 0x0388
    5f78:	30 91 89 03 	lds	r19, 0x0389
    5f7c:	80 91 86 03 	lds	r24, 0x0386
    5f80:	90 91 87 03 	lds	r25, 0x0387
    5f84:	28 17       	cp	r18, r24
    5f86:	39 07       	cpc	r19, r25
    5f88:	10 f1       	brcs	.+68     	; 0x5fce <ULTSONIC_u8MeasureDistance+0x328>
			{
				Local_u32EchoTime = (ULTSONIC_u16Capture2 - ULTSONIC_u16Capture1) + (ULTSONIC_u16EchoOvfCounter * 65536u);
    5f8a:	20 91 88 03 	lds	r18, 0x0388
    5f8e:	30 91 89 03 	lds	r19, 0x0389
    5f92:	80 91 86 03 	lds	r24, 0x0386
    5f96:	90 91 87 03 	lds	r25, 0x0387
    5f9a:	f9 01       	movw	r30, r18
    5f9c:	e8 1b       	sub	r30, r24
    5f9e:	f9 0b       	sbc	r31, r25
    5fa0:	cf 01       	movw	r24, r30
    5fa2:	9c 01       	movw	r18, r24
    5fa4:	40 e0       	ldi	r20, 0x00	; 0
    5fa6:	50 e0       	ldi	r21, 0x00	; 0
    5fa8:	80 91 8c 03 	lds	r24, 0x038C
    5fac:	90 91 8d 03 	lds	r25, 0x038D
    5fb0:	cc 01       	movw	r24, r24
    5fb2:	a0 e0       	ldi	r26, 0x00	; 0
    5fb4:	b0 e0       	ldi	r27, 0x00	; 0
    5fb6:	dc 01       	movw	r26, r24
    5fb8:	99 27       	eor	r25, r25
    5fba:	88 27       	eor	r24, r24
    5fbc:	82 0f       	add	r24, r18
    5fbe:	93 1f       	adc	r25, r19
    5fc0:	a4 1f       	adc	r26, r20
    5fc2:	b5 1f       	adc	r27, r21
    5fc4:	8d 8f       	std	Y+29, r24	; 0x1d
    5fc6:	9e 8f       	std	Y+30, r25	; 0x1e
    5fc8:	af 8f       	std	Y+31, r26	; 0x1f
    5fca:	b8 a3       	std	Y+32, r27	; 0x20
    5fcc:	2c c0       	rjmp	.+88     	; 0x6026 <ULTSONIC_u8MeasureDistance+0x380>
			}
			else if(ULTSONIC_u16Capture2 < ULTSONIC_u16Capture1)
    5fce:	20 91 88 03 	lds	r18, 0x0388
    5fd2:	30 91 89 03 	lds	r19, 0x0389
    5fd6:	80 91 86 03 	lds	r24, 0x0386
    5fda:	90 91 87 03 	lds	r25, 0x0387
    5fde:	28 17       	cp	r18, r24
    5fe0:	39 07       	cpc	r19, r25
    5fe2:	08 f5       	brcc	.+66     	; 0x6026 <ULTSONIC_u8MeasureDistance+0x380>
			{
				Local_u32EchoTime = (ULTSONIC_u16Capture1 - ULTSONIC_u16Capture2) + (ULTSONIC_u16EchoOvfCounter * 65536u);
    5fe4:	20 91 86 03 	lds	r18, 0x0386
    5fe8:	30 91 87 03 	lds	r19, 0x0387
    5fec:	80 91 88 03 	lds	r24, 0x0388
    5ff0:	90 91 89 03 	lds	r25, 0x0389
    5ff4:	a9 01       	movw	r20, r18
    5ff6:	48 1b       	sub	r20, r24
    5ff8:	59 0b       	sbc	r21, r25
    5ffa:	ca 01       	movw	r24, r20
    5ffc:	9c 01       	movw	r18, r24
    5ffe:	40 e0       	ldi	r20, 0x00	; 0
    6000:	50 e0       	ldi	r21, 0x00	; 0
    6002:	80 91 8c 03 	lds	r24, 0x038C
    6006:	90 91 8d 03 	lds	r25, 0x038D
    600a:	cc 01       	movw	r24, r24
    600c:	a0 e0       	ldi	r26, 0x00	; 0
    600e:	b0 e0       	ldi	r27, 0x00	; 0
    6010:	dc 01       	movw	r26, r24
    6012:	99 27       	eor	r25, r25
    6014:	88 27       	eor	r24, r24
    6016:	82 0f       	add	r24, r18
    6018:	93 1f       	adc	r25, r19
    601a:	a4 1f       	adc	r26, r20
    601c:	b5 1f       	adc	r27, r21
    601e:	8d 8f       	std	Y+29, r24	; 0x1d
    6020:	9e 8f       	std	Y+30, r25	; 0x1e
    6022:	af 8f       	std	Y+31, r26	; 0x1f
    6024:	b8 a3       	std	Y+32, r27	; 0x20
			}
		}

		/*Measure Distance using Echo Time*/
		*Copy_u16Distance = (((f32) Local_u32EchoTime / 2.0) * (34.0 / 1000.0));
    6026:	6d 8d       	ldd	r22, Y+29	; 0x1d
    6028:	7e 8d       	ldd	r23, Y+30	; 0x1e
    602a:	8f 8d       	ldd	r24, Y+31	; 0x1f
    602c:	98 a1       	ldd	r25, Y+32	; 0x20
    602e:	0e 94 a9 04 	call	0x952	; 0x952 <__floatunsisf>
    6032:	dc 01       	movw	r26, r24
    6034:	cb 01       	movw	r24, r22
    6036:	bc 01       	movw	r22, r24
    6038:	cd 01       	movw	r24, r26
    603a:	20 e0       	ldi	r18, 0x00	; 0
    603c:	30 e0       	ldi	r19, 0x00	; 0
    603e:	40 e0       	ldi	r20, 0x00	; 0
    6040:	50 e4       	ldi	r21, 0x40	; 64
    6042:	0e 94 19 03 	call	0x632	; 0x632 <__divsf3>
    6046:	dc 01       	movw	r26, r24
    6048:	cb 01       	movw	r24, r22
    604a:	bc 01       	movw	r22, r24
    604c:	cd 01       	movw	r24, r26
    604e:	26 e9       	ldi	r18, 0x96	; 150
    6050:	33 e4       	ldi	r19, 0x43	; 67
    6052:	4b e0       	ldi	r20, 0x0B	; 11
    6054:	5d e3       	ldi	r21, 0x3D	; 61
    6056:	0e 94 1f 02 	call	0x43e	; 0x43e <__mulsf3>
    605a:	dc 01       	movw	r26, r24
    605c:	cb 01       	movw	r24, r22
    605e:	bc 01       	movw	r22, r24
    6060:	cd 01       	movw	r24, r26
    6062:	0e 94 49 00 	call	0x92	; 0x92 <__fixunssfsi>
    6066:	dc 01       	movw	r26, r24
    6068:	cb 01       	movw	r24, r22
    606a:	ec a5       	ldd	r30, Y+44	; 0x2c
    606c:	fd a5       	ldd	r31, Y+45	; 0x2d
    606e:	91 83       	std	Z+1, r25	; 0x01
    6070:	80 83       	st	Z, r24

		/*Reset the global variables*/
		ULTSONIC_u16Capture1 = 0;
    6072:	10 92 87 03 	sts	0x0387, r1
    6076:	10 92 86 03 	sts	0x0386, r1
		ULTSONIC_u16Capture2 = 0;
    607a:	10 92 89 03 	sts	0x0389, r1
    607e:	10 92 88 03 	sts	0x0388, r1
		ULTSONIC_u16OvfCounter = 0;
    6082:	10 92 8b 03 	sts	0x038B, r1
    6086:	10 92 8a 03 	sts	0x038A, r1
		ULTSONIC_u16EchoOvfCounter = 0;
    608a:	10 92 8d 03 	sts	0x038D, r1
    608e:	10 92 8c 03 	sts	0x038C, r1
//		Local_u8ErrorState = NOK;
//	}

	/*Return Error State*/
//	return Local_u8ErrorState;
}
    6092:	e2 96       	adiw	r28, 0x32	; 50
    6094:	0f b6       	in	r0, 0x3f	; 63
    6096:	f8 94       	cli
    6098:	de bf       	out	0x3e, r29	; 62
    609a:	0f be       	out	0x3f, r0	; 63
    609c:	cd bf       	out	0x3d, r28	; 61
    609e:	cf 91       	pop	r28
    60a0:	df 91       	pop	r29
    60a2:	08 95       	ret

000060a4 <ULTSONIC_voidCaptureISR>:

/*Input Capture ISR*/
static void ULTSONIC_voidCaptureISR(void)
{
    60a4:	df 93       	push	r29
    60a6:	cf 93       	push	r28
    60a8:	cd b7       	in	r28, 0x3d	; 61
    60aa:	de b7       	in	r29, 0x3e	; 62
	static u8 Local_u8Counter = 0;

	Local_u8Counter++;
    60ac:	80 91 8e 03 	lds	r24, 0x038E
    60b0:	8f 5f       	subi	r24, 0xFF	; 255
    60b2:	80 93 8e 03 	sts	0x038E, r24

	if(Local_u8Counter == 1)
    60b6:	80 91 8e 03 	lds	r24, 0x038E
    60ba:	81 30       	cpi	r24, 0x01	; 1
    60bc:	51 f4       	brne	.+20     	; 0x60d2 <ULTSONIC_voidCaptureISR+0x2e>
	{
		/*Enable Overflow interrupt of timer1*/
//		TIMER_u8SetIntStatus(INT_TIMER1_CAPT,INT_ENABLE);
		ULTSONIC_u16Capture1 = ICU_u16ReadInputCapture();
    60be:	0e 94 72 2a 	call	0x54e4	; 0x54e4 <ICU_u16ReadInputCapture>
    60c2:	90 93 87 03 	sts	0x0387, r25
    60c6:	80 93 86 03 	sts	0x0386, r24
		ICU_u8SetEdge(FALLING_EDGE);
    60ca:	80 e0       	ldi	r24, 0x00	; 0
    60cc:	0e 94 4d 2a 	call	0x549a	; 0x549a <ICU_u8SetEdge>
    60d0:	14 c0       	rjmp	.+40     	; 0x60fa <ULTSONIC_voidCaptureISR+0x56>
	}
	else if(Local_u8Counter == 2)
    60d2:	80 91 8e 03 	lds	r24, 0x038E
    60d6:	82 30       	cpi	r24, 0x02	; 2
    60d8:	81 f4       	brne	.+32     	; 0x60fa <ULTSONIC_voidCaptureISR+0x56>
	{
		ULTSONIC_u16Capture2 = ICU_u16ReadInputCapture();
    60da:	0e 94 72 2a 	call	0x54e4	; 0x54e4 <ICU_u16ReadInputCapture>
    60de:	90 93 89 03 	sts	0x0389, r25
    60e2:	80 93 88 03 	sts	0x0388, r24
		ULTSONIC_u16EchoOvfCounter = ULTSONIC_u16OvfCounter;
    60e6:	80 91 8a 03 	lds	r24, 0x038A
    60ea:	90 91 8b 03 	lds	r25, 0x038B
    60ee:	90 93 8d 03 	sts	0x038D, r25
    60f2:	80 93 8c 03 	sts	0x038C, r24
		Local_u8Counter = 0;
    60f6:	10 92 8e 03 	sts	0x038E, r1
	}
}
    60fa:	cf 91       	pop	r28
    60fc:	df 91       	pop	r29
    60fe:	08 95       	ret

00006100 <ULTSONIC_voidOvfISR>:

/*Overflow ISR*/
static void ULTSONIC_voidOvfISR(void)
{
    6100:	df 93       	push	r29
    6102:	cf 93       	push	r28
    6104:	cd b7       	in	r28, 0x3d	; 61
    6106:	de b7       	in	r29, 0x3e	; 62

	ULTSONIC_u16OvfCounter++;
    6108:	80 91 8a 03 	lds	r24, 0x038A
    610c:	90 91 8b 03 	lds	r25, 0x038B
    6110:	01 96       	adiw	r24, 0x01	; 1
    6112:	90 93 8b 03 	sts	0x038B, r25
    6116:	80 93 8a 03 	sts	0x038A, r24
}
    611a:	cf 91       	pop	r28
    611c:	df 91       	pop	r29
    611e:	08 95       	ret

00006120 <USART_voidInit>:

static void (*TXC_pvNotifFunc)(void);
static void (*RXC_pvNotifFunc)(void);
static void (*UDRE_pvNotifFunc)(void);

void USART_voidInit(void){
    6120:	df 93       	push	r29
    6122:	cf 93       	push	r28
    6124:	00 d0       	rcall	.+0      	; 0x6126 <USART_voidInit+0x6>
    6126:	0f 92       	push	r0
    6128:	cd b7       	in	r28, 0x3d	; 61
    612a:	de b7       	in	r29, 0x3e	; 62
	u16 Local_u16UBRR;
	u8 Local_u8UCSRC=0;
    612c:	19 82       	std	Y+1, r1	; 0x01
	SET_BIT(Local_u8UCSRC,UCSRC_URSEL);
    612e:	89 81       	ldd	r24, Y+1	; 0x01
    6130:	80 68       	ori	r24, 0x80	; 128
    6132:	89 83       	std	Y+1, r24	; 0x01
	
	//Receive Complete Interrupt
#if RX_COMPLETE_INT==ENABLE
	SET_BIT(UCSRB,UCSRB_RXCIE);
#elif RX_COMPLETE_INT==DISABLE
	CLR_BIT(UCSRB,UCSRB_RXCIE);
    6134:	aa e2       	ldi	r26, 0x2A	; 42
    6136:	b0 e0       	ldi	r27, 0x00	; 0
    6138:	ea e2       	ldi	r30, 0x2A	; 42
    613a:	f0 e0       	ldi	r31, 0x00	; 0
    613c:	80 81       	ld	r24, Z
    613e:	8f 77       	andi	r24, 0x7F	; 127
    6140:	8c 93       	st	X, r24

	//Transmission Complete Interrupt
#if TX_COMPLETE_INT==ENABLE
	SET_BIT(UCSRB,UCSRB_TXCIE);
#elif TX_COMPLETE_INT==DISABLE
	CLR_BIT(UCSRB,UCSRB_TXCIE);
    6142:	aa e2       	ldi	r26, 0x2A	; 42
    6144:	b0 e0       	ldi	r27, 0x00	; 0
    6146:	ea e2       	ldi	r30, 0x2A	; 42
    6148:	f0 e0       	ldi	r31, 0x00	; 0
    614a:	80 81       	ld	r24, Z
    614c:	8f 7b       	andi	r24, 0xBF	; 191
    614e:	8c 93       	st	X, r24

	//Data Register Empty Interrupt
#if DATA_REG_EMPTY_INT==ENABLE
	SET_BIT(UCSRB,UCSRB_UDRIE);
#elif DATA_REG_EMPTY_INT==DISABLE
	CLR_BIT(UCSRB,UCSRB_UDRIE);
    6150:	aa e2       	ldi	r26, 0x2A	; 42
    6152:	b0 e0       	ldi	r27, 0x00	; 0
    6154:	ea e2       	ldi	r30, 0x2A	; 42
    6156:	f0 e0       	ldi	r31, 0x00	; 0
    6158:	80 81       	ld	r24, Z
    615a:	8f 7d       	andi	r24, 0xDF	; 223
    615c:	8c 93       	st	X, r24

#endif

	//USART MODE and Clock Configurations
#if USART_MODE==ASYNCHRO
	CLR_BIT(Local_u8UCSRC,UCSRC_UMSEL);
    615e:	89 81       	ldd	r24, Y+1	; 0x01
    6160:	8f 7b       	andi	r24, 0xBF	; 191
    6162:	89 83       	std	Y+1, r24	; 0x01

#endif

	//Parity Mode
#if PARITY_MODE==DISABLE
	CLR_BIT(Local_u8UCSRC,UCSRC_UPM1);
    6164:	89 81       	ldd	r24, Y+1	; 0x01
    6166:	8f 7d       	andi	r24, 0xDF	; 223
    6168:	89 83       	std	Y+1, r24	; 0x01
	CLR_BIT(Local_u8UCSRC,UCSRC_UPM0);
    616a:	89 81       	ldd	r24, Y+1	; 0x01
    616c:	8f 7e       	andi	r24, 0xEF	; 239
    616e:	89 83       	std	Y+1, r24	; 0x01

#endif

	//Stop Bit Configuration
#if STOP_BIT_SELECT==STOP_1_BIT
	CLR_BIT(Local_u8UCSRC,UCSRC_USBS);
    6170:	89 81       	ldd	r24, Y+1	; 0x01
    6172:	87 7f       	andi	r24, 0xF7	; 247
    6174:	89 83       	std	Y+1, r24	; 0x01
#elif CHARACTER_SIZE == CHAR_7_BITS
	CLR_BIT(UCSRB,UCSRB_UCSZ2);
	SET_BIT(Local_u8UCSRC,UCSRC_UCSZ1);
	CLR_BIT(Local_u8UCSRC,UCSRC_UCSZ0);
#elif CHARACTER_SIZE == CHAR_8_BITS
	CLR_BIT(UCSRB,UCSRB_UCSZ2);
    6176:	aa e2       	ldi	r26, 0x2A	; 42
    6178:	b0 e0       	ldi	r27, 0x00	; 0
    617a:	ea e2       	ldi	r30, 0x2A	; 42
    617c:	f0 e0       	ldi	r31, 0x00	; 0
    617e:	80 81       	ld	r24, Z
    6180:	8b 7f       	andi	r24, 0xFB	; 251
    6182:	8c 93       	st	X, r24
	SET_BIT(Local_u8UCSRC,UCSRC_UCSZ1);
    6184:	89 81       	ldd	r24, Y+1	; 0x01
    6186:	84 60       	ori	r24, 0x04	; 4
    6188:	89 83       	std	Y+1, r24	; 0x01
	SET_BIT(Local_u8UCSRC,UCSRC_UCSZ0);
    618a:	89 81       	ldd	r24, Y+1	; 0x01
    618c:	82 60       	ori	r24, 0x02	; 2
    618e:	89 83       	std	Y+1, r24	; 0x01
#error "WRONG CHARACTER SIZE CONFIGURATION"

#endif

	//Setting UCSRC Register
	UCSRC=Local_u8UCSRC;
    6190:	e0 e4       	ldi	r30, 0x40	; 64
    6192:	f0 e0       	ldi	r31, 0x00	; 0
    6194:	89 81       	ldd	r24, Y+1	; 0x01
    6196:	80 83       	st	Z, r24
#if DOUBLE_TRANSMISSION_SPEED==ENABLE
	Local_u16UBRR = (((SYSTEM_FREQ)/(8*BAUD_RATE))-1);
	UBRRL=Local_u16UBBR;
	UBRRH = (Local_u16UBBR>>8);
#elif DOUBLE_TRANSMISSION_SPEED==DISABLE
	Local_u16UBRR = ((SYSTEM_FREQ)/(16*BAUD_RATE))-1;
    6198:	83 e3       	ldi	r24, 0x33	; 51
    619a:	90 e0       	ldi	r25, 0x00	; 0
    619c:	9b 83       	std	Y+3, r25	; 0x03
    619e:	8a 83       	std	Y+2, r24	; 0x02
	UBRRL=Local_u16UBRR;
    61a0:	e9 e2       	ldi	r30, 0x29	; 41
    61a2:	f0 e0       	ldi	r31, 0x00	; 0
    61a4:	8a 81       	ldd	r24, Y+2	; 0x02
    61a6:	80 83       	st	Z, r24
	UBRRH = (Local_u16UBRR>>8);
    61a8:	e0 e4       	ldi	r30, 0x40	; 64
    61aa:	f0 e0       	ldi	r31, 0x00	; 0
    61ac:	8a 81       	ldd	r24, Y+2	; 0x02
    61ae:	9b 81       	ldd	r25, Y+3	; 0x03
    61b0:	89 2f       	mov	r24, r25
    61b2:	99 27       	eor	r25, r25
    61b4:	80 83       	st	Z, r24
#endif

	//Reciever and Transmitter Setting
#if RECEIVER==ENABLE
	SET_BIT(UCSRB,UCSRB_RXEN);
    61b6:	aa e2       	ldi	r26, 0x2A	; 42
    61b8:	b0 e0       	ldi	r27, 0x00	; 0
    61ba:	ea e2       	ldi	r30, 0x2A	; 42
    61bc:	f0 e0       	ldi	r31, 0x00	; 0
    61be:	80 81       	ld	r24, Z
    61c0:	80 61       	ori	r24, 0x10	; 16
    61c2:	8c 93       	st	X, r24
#error "WRONG RECEIVER CONFIGURATION"

#endif

#if TRANSMITTER==ENABLE
	SET_BIT(UCSRB,UCSRB_TXEN);
    61c4:	aa e2       	ldi	r26, 0x2A	; 42
    61c6:	b0 e0       	ldi	r27, 0x00	; 0
    61c8:	ea e2       	ldi	r30, 0x2A	; 42
    61ca:	f0 e0       	ldi	r31, 0x00	; 0
    61cc:	80 81       	ld	r24, Z
    61ce:	88 60       	ori	r24, 0x08	; 8
    61d0:	8c 93       	st	X, r24

#error "WRONG TRANSMITTER CONFIGURATION"

#endif

}
    61d2:	0f 90       	pop	r0
    61d4:	0f 90       	pop	r0
    61d6:	0f 90       	pop	r0
    61d8:	cf 91       	pop	r28
    61da:	df 91       	pop	r29
    61dc:	08 95       	ret

000061de <USART_u8SendCharSynch>:

u8 USART_u8SendCharSynch(u16 Copy_u16Data){
    61de:	df 93       	push	r29
    61e0:	cf 93       	push	r28
    61e2:	cd b7       	in	r28, 0x3d	; 61
    61e4:	de b7       	in	r29, 0x3e	; 62
    61e6:	27 97       	sbiw	r28, 0x07	; 7
    61e8:	0f b6       	in	r0, 0x3f	; 63
    61ea:	f8 94       	cli
    61ec:	de bf       	out	0x3e, r29	; 62
    61ee:	0f be       	out	0x3f, r0	; 63
    61f0:	cd bf       	out	0x3d, r28	; 61
    61f2:	9f 83       	std	Y+7, r25	; 0x07
    61f4:	8e 83       	std	Y+6, r24	; 0x06
	u8 Local_u8ErrorState=OK;
    61f6:	1d 82       	std	Y+5, r1	; 0x05
	
	if(USART_u8State==IDLE)
    61f8:	80 91 27 03 	lds	r24, 0x0327
    61fc:	81 30       	cpi	r24, 0x01	; 1
    61fe:	09 f0       	breq	.+2      	; 0x6202 <USART_u8SendCharSynch+0x24>
    6200:	41 c0       	rjmp	.+130    	; 0x6284 <USART_u8SendCharSynch+0xa6>
	{
		USART_u8State=BUSY;
    6202:	10 92 27 03 	sts	0x0327, r1
		u32 Local_u32Counter=0;
    6206:	19 82       	std	Y+1, r1	; 0x01
    6208:	1a 82       	std	Y+2, r1	; 0x02
    620a:	1b 82       	std	Y+3, r1	; 0x03
    620c:	1c 82       	std	Y+4, r1	; 0x04
    620e:	0b c0       	rjmp	.+22     	; 0x6226 <USART_u8SendCharSynch+0x48>
		while(GET_BIT(UCSRA,UCSRA_UDRE)==0&&Local_u32Counter!=TIMEOUT){
			Local_u32Counter++;
    6210:	89 81       	ldd	r24, Y+1	; 0x01
    6212:	9a 81       	ldd	r25, Y+2	; 0x02
    6214:	ab 81       	ldd	r26, Y+3	; 0x03
    6216:	bc 81       	ldd	r27, Y+4	; 0x04
    6218:	01 96       	adiw	r24, 0x01	; 1
    621a:	a1 1d       	adc	r26, r1
    621c:	b1 1d       	adc	r27, r1
    621e:	89 83       	std	Y+1, r24	; 0x01
    6220:	9a 83       	std	Y+2, r25	; 0x02
    6222:	ab 83       	std	Y+3, r26	; 0x03
    6224:	bc 83       	std	Y+4, r27	; 0x04
	
	if(USART_u8State==IDLE)
	{
		USART_u8State=BUSY;
		u32 Local_u32Counter=0;
		while(GET_BIT(UCSRA,UCSRA_UDRE)==0&&Local_u32Counter!=TIMEOUT){
    6226:	eb e2       	ldi	r30, 0x2B	; 43
    6228:	f0 e0       	ldi	r31, 0x00	; 0
    622a:	80 81       	ld	r24, Z
    622c:	82 95       	swap	r24
    622e:	86 95       	lsr	r24
    6230:	87 70       	andi	r24, 0x07	; 7
    6232:	88 2f       	mov	r24, r24
    6234:	90 e0       	ldi	r25, 0x00	; 0
    6236:	81 70       	andi	r24, 0x01	; 1
    6238:	90 70       	andi	r25, 0x00	; 0
    623a:	00 97       	sbiw	r24, 0x00	; 0
    623c:	61 f4       	brne	.+24     	; 0x6256 <USART_u8SendCharSynch+0x78>
    623e:	89 81       	ldd	r24, Y+1	; 0x01
    6240:	9a 81       	ldd	r25, Y+2	; 0x02
    6242:	ab 81       	ldd	r26, Y+3	; 0x03
    6244:	bc 81       	ldd	r27, Y+4	; 0x04
    6246:	80 32       	cpi	r24, 0x20	; 32
    6248:	21 ea       	ldi	r18, 0xA1	; 161
    624a:	92 07       	cpc	r25, r18
    624c:	27 e0       	ldi	r18, 0x07	; 7
    624e:	a2 07       	cpc	r26, r18
    6250:	20 e0       	ldi	r18, 0x00	; 0
    6252:	b2 07       	cpc	r27, r18
    6254:	e9 f6       	brne	.-70     	; 0x6210 <USART_u8SendCharSynch+0x32>
			Local_u32Counter++;
		}
		if(Local_u32Counter==TIMEOUT){
    6256:	89 81       	ldd	r24, Y+1	; 0x01
    6258:	9a 81       	ldd	r25, Y+2	; 0x02
    625a:	ab 81       	ldd	r26, Y+3	; 0x03
    625c:	bc 81       	ldd	r27, Y+4	; 0x04
    625e:	80 32       	cpi	r24, 0x20	; 32
    6260:	21 ea       	ldi	r18, 0xA1	; 161
    6262:	92 07       	cpc	r25, r18
    6264:	27 e0       	ldi	r18, 0x07	; 7
    6266:	a2 07       	cpc	r26, r18
    6268:	20 e0       	ldi	r18, 0x00	; 0
    626a:	b2 07       	cpc	r27, r18
    626c:	19 f4       	brne	.+6      	; 0x6274 <USART_u8SendCharSynch+0x96>
			Local_u8ErrorState=FUNC_TIMEOUT;
    626e:	84 e0       	ldi	r24, 0x04	; 4
    6270:	8d 83       	std	Y+5, r24	; 0x05
    6272:	04 c0       	rjmp	.+8      	; 0x627c <USART_u8SendCharSynch+0x9e>
		}
		else
		{
			UDR=Copy_u16Data;
    6274:	ec e2       	ldi	r30, 0x2C	; 44
    6276:	f0 e0       	ldi	r31, 0x00	; 0
    6278:	8e 81       	ldd	r24, Y+6	; 0x06
    627a:	80 83       	st	Z, r24
				{
					CLR_BIT(UCSRB,UCSRB_TXB8);
				}
			}
		}
		USART_u8State=IDLE;
    627c:	81 e0       	ldi	r24, 0x01	; 1
    627e:	80 93 27 03 	sts	0x0327, r24
    6282:	02 c0       	rjmp	.+4      	; 0x6288 <USART_u8SendCharSynch+0xaa>
	}
	else
	{
		Local_u8ErrorState=BUSY_FUNC;
    6284:	83 e0       	ldi	r24, 0x03	; 3
    6286:	8d 83       	std	Y+5, r24	; 0x05
	}



	return Local_u8ErrorState;
    6288:	8d 81       	ldd	r24, Y+5	; 0x05


}
    628a:	27 96       	adiw	r28, 0x07	; 7
    628c:	0f b6       	in	r0, 0x3f	; 63
    628e:	f8 94       	cli
    6290:	de bf       	out	0x3e, r29	; 62
    6292:	0f be       	out	0x3f, r0	; 63
    6294:	cd bf       	out	0x3d, r28	; 61
    6296:	cf 91       	pop	r28
    6298:	df 91       	pop	r29
    629a:	08 95       	ret

0000629c <USART_u8SendCharAsynch>:

u8 USART_u8SendCharAsynch(u16 Copy_u16Data,void (*Copy_pvNotifFunc)(void)){
    629c:	df 93       	push	r29
    629e:	cf 93       	push	r28
    62a0:	00 d0       	rcall	.+0      	; 0x62a2 <USART_u8SendCharAsynch+0x6>
    62a2:	00 d0       	rcall	.+0      	; 0x62a4 <USART_u8SendCharAsynch+0x8>
    62a4:	0f 92       	push	r0
    62a6:	cd b7       	in	r28, 0x3d	; 61
    62a8:	de b7       	in	r29, 0x3e	; 62
    62aa:	9b 83       	std	Y+3, r25	; 0x03
    62ac:	8a 83       	std	Y+2, r24	; 0x02
    62ae:	7d 83       	std	Y+5, r23	; 0x05
    62b0:	6c 83       	std	Y+4, r22	; 0x04
	u8 Local_u8ErrorState=OK;
    62b2:	19 82       	std	Y+1, r1	; 0x01
	if(USART_u8State==IDLE)
    62b4:	80 91 27 03 	lds	r24, 0x0327
    62b8:	81 30       	cpi	r24, 0x01	; 1
    62ba:	39 f5       	brne	.+78     	; 0x630a <USART_u8SendCharAsynch+0x6e>
	{
		if(Copy_pvNotifFunc!=NULL)
    62bc:	8c 81       	ldd	r24, Y+4	; 0x04
    62be:	9d 81       	ldd	r25, Y+5	; 0x05
    62c0:	00 97       	sbiw	r24, 0x00	; 0
    62c2:	01 f1       	breq	.+64     	; 0x6304 <USART_u8SendCharAsynch+0x68>
		{
			USART_u8State=BUSY;
    62c4:	10 92 27 03 	sts	0x0327, r1
			
			USART_u8TransmissionState=CHAR;
    62c8:	81 e0       	ldi	r24, 0x01	; 1
    62ca:	80 93 91 03 	sts	0x0391, r24
			
			USART_u16TransmittedData=Copy_u16Data;
    62ce:	8a 81       	ldd	r24, Y+2	; 0x02
    62d0:	9b 81       	ldd	r25, Y+3	; 0x03
    62d2:	90 93 93 03 	sts	0x0393, r25
    62d6:	80 93 92 03 	sts	0x0392, r24
			TXC_pvNotifFunc=Copy_pvNotifFunc;
    62da:	8c 81       	ldd	r24, Y+4	; 0x04
    62dc:	9d 81       	ldd	r25, Y+5	; 0x05
    62de:	90 93 9c 03 	sts	0x039C, r25
    62e2:	80 93 9b 03 	sts	0x039B, r24
			SET_BIT(UCSRB,UCSRB_TXCIE);
    62e6:	aa e2       	ldi	r26, 0x2A	; 42
    62e8:	b0 e0       	ldi	r27, 0x00	; 0
    62ea:	ea e2       	ldi	r30, 0x2A	; 42
    62ec:	f0 e0       	ldi	r31, 0x00	; 0
    62ee:	80 81       	ld	r24, Z
    62f0:	80 64       	ori	r24, 0x40	; 64
    62f2:	8c 93       	st	X, r24
			SET_BIT(UCSRB,UCSRB_UDRIE);
    62f4:	aa e2       	ldi	r26, 0x2A	; 42
    62f6:	b0 e0       	ldi	r27, 0x00	; 0
    62f8:	ea e2       	ldi	r30, 0x2A	; 42
    62fa:	f0 e0       	ldi	r31, 0x00	; 0
    62fc:	80 81       	ld	r24, Z
    62fe:	80 62       	ori	r24, 0x20	; 32
    6300:	8c 93       	st	X, r24
    6302:	05 c0       	rjmp	.+10     	; 0x630e <USART_u8SendCharAsynch+0x72>
		}
		else
		{
			Local_u8ErrorState=NULL_POINTER;
    6304:	82 e0       	ldi	r24, 0x02	; 2
    6306:	89 83       	std	Y+1, r24	; 0x01
    6308:	02 c0       	rjmp	.+4      	; 0x630e <USART_u8SendCharAsynch+0x72>
		}
	}
	else
	{
		Local_u8ErrorState=BUSY_FUNC;
    630a:	83 e0       	ldi	r24, 0x03	; 3
    630c:	89 83       	std	Y+1, r24	; 0x01
	}

	return Local_u8ErrorState;
    630e:	89 81       	ldd	r24, Y+1	; 0x01
}
    6310:	0f 90       	pop	r0
    6312:	0f 90       	pop	r0
    6314:	0f 90       	pop	r0
    6316:	0f 90       	pop	r0
    6318:	0f 90       	pop	r0
    631a:	cf 91       	pop	r28
    631c:	df 91       	pop	r29
    631e:	08 95       	ret

00006320 <USART_u8SendStringSynch>:

u8 USART_u8SendStringSynch(char* Copy_pchString)
{
    6320:	df 93       	push	r29
    6322:	cf 93       	push	r28
    6324:	00 d0       	rcall	.+0      	; 0x6326 <USART_u8SendStringSynch+0x6>
    6326:	00 d0       	rcall	.+0      	; 0x6328 <USART_u8SendStringSynch+0x8>
    6328:	cd b7       	in	r28, 0x3d	; 61
    632a:	de b7       	in	r29, 0x3e	; 62
    632c:	9c 83       	std	Y+4, r25	; 0x04
    632e:	8b 83       	std	Y+3, r24	; 0x03
	u8 Local_u8ErrorState=OK;
    6330:	1a 82       	std	Y+2, r1	; 0x02
	if(Copy_pchString!=NULL)
    6332:	8b 81       	ldd	r24, Y+3	; 0x03
    6334:	9c 81       	ldd	r25, Y+4	; 0x04
    6336:	00 97       	sbiw	r24, 0x00	; 0
    6338:	f9 f0       	breq	.+62     	; 0x6378 <USART_u8SendStringSynch+0x58>
	{
		u8 Local_u8Index=0;
    633a:	19 82       	std	Y+1, r1	; 0x01
    633c:	11 c0       	rjmp	.+34     	; 0x6360 <USART_u8SendStringSynch+0x40>
		while(Copy_pchString[Local_u8Index]!='\0')
		{
			USART_u8SendCharSynch(Copy_pchString[Local_u8Index++]);
    633e:	89 81       	ldd	r24, Y+1	; 0x01
    6340:	28 2f       	mov	r18, r24
    6342:	30 e0       	ldi	r19, 0x00	; 0
    6344:	8b 81       	ldd	r24, Y+3	; 0x03
    6346:	9c 81       	ldd	r25, Y+4	; 0x04
    6348:	fc 01       	movw	r30, r24
    634a:	e2 0f       	add	r30, r18
    634c:	f3 1f       	adc	r31, r19
    634e:	80 81       	ld	r24, Z
    6350:	28 2f       	mov	r18, r24
    6352:	30 e0       	ldi	r19, 0x00	; 0
    6354:	89 81       	ldd	r24, Y+1	; 0x01
    6356:	8f 5f       	subi	r24, 0xFF	; 255
    6358:	89 83       	std	Y+1, r24	; 0x01
    635a:	c9 01       	movw	r24, r18
    635c:	0e 94 ef 30 	call	0x61de	; 0x61de <USART_u8SendCharSynch>
{
	u8 Local_u8ErrorState=OK;
	if(Copy_pchString!=NULL)
	{
		u8 Local_u8Index=0;
		while(Copy_pchString[Local_u8Index]!='\0')
    6360:	89 81       	ldd	r24, Y+1	; 0x01
    6362:	28 2f       	mov	r18, r24
    6364:	30 e0       	ldi	r19, 0x00	; 0
    6366:	8b 81       	ldd	r24, Y+3	; 0x03
    6368:	9c 81       	ldd	r25, Y+4	; 0x04
    636a:	fc 01       	movw	r30, r24
    636c:	e2 0f       	add	r30, r18
    636e:	f3 1f       	adc	r31, r19
    6370:	80 81       	ld	r24, Z
    6372:	88 23       	and	r24, r24
    6374:	21 f7       	brne	.-56     	; 0x633e <USART_u8SendStringSynch+0x1e>
    6376:	02 c0       	rjmp	.+4      	; 0x637c <USART_u8SendStringSynch+0x5c>
			USART_u8SendCharSynch(Copy_pchString[Local_u8Index++]);
		}
	}
	else
	{
		Local_u8ErrorState=NULL_POINTER;
    6378:	82 e0       	ldi	r24, 0x02	; 2
    637a:	8a 83       	std	Y+2, r24	; 0x02
	}
	return Local_u8ErrorState;
    637c:	8a 81       	ldd	r24, Y+2	; 0x02
}
    637e:	0f 90       	pop	r0
    6380:	0f 90       	pop	r0
    6382:	0f 90       	pop	r0
    6384:	0f 90       	pop	r0
    6386:	cf 91       	pop	r28
    6388:	df 91       	pop	r29
    638a:	08 95       	ret

0000638c <USART_u8SendStringAsynch>:

u8 USART_u8SendStringAsynch(char* Copy_pchString,void (*Copy_pvNotifFunc)(void))
{
    638c:	df 93       	push	r29
    638e:	cf 93       	push	r28
    6390:	00 d0       	rcall	.+0      	; 0x6392 <USART_u8SendStringAsynch+0x6>
    6392:	00 d0       	rcall	.+0      	; 0x6394 <USART_u8SendStringAsynch+0x8>
    6394:	0f 92       	push	r0
    6396:	cd b7       	in	r28, 0x3d	; 61
    6398:	de b7       	in	r29, 0x3e	; 62
    639a:	9b 83       	std	Y+3, r25	; 0x03
    639c:	8a 83       	std	Y+2, r24	; 0x02
    639e:	7d 83       	std	Y+5, r23	; 0x05
    63a0:	6c 83       	std	Y+4, r22	; 0x04
	u8 Local_u8ErrorState=OK;
    63a2:	19 82       	std	Y+1, r1	; 0x01
	if(USART_u8State==IDLE)
    63a4:	80 91 27 03 	lds	r24, 0x0327
    63a8:	81 30       	cpi	r24, 0x01	; 1
    63aa:	21 f5       	brne	.+72     	; 0x63f4 <USART_u8SendStringAsynch+0x68>
	{
		if(Copy_pvNotifFunc!=NULL&&Copy_pchString!=NULL)
    63ac:	8c 81       	ldd	r24, Y+4	; 0x04
    63ae:	9d 81       	ldd	r25, Y+5	; 0x05
    63b0:	00 97       	sbiw	r24, 0x00	; 0
    63b2:	e9 f0       	breq	.+58     	; 0x63ee <USART_u8SendStringAsynch+0x62>
    63b4:	8a 81       	ldd	r24, Y+2	; 0x02
    63b6:	9b 81       	ldd	r25, Y+3	; 0x03
    63b8:	00 97       	sbiw	r24, 0x00	; 0
    63ba:	c9 f0       	breq	.+50     	; 0x63ee <USART_u8SendStringAsynch+0x62>
		{
			USART_u8State=BUSY;
    63bc:	10 92 27 03 	sts	0x0327, r1
			USART_u8TransmissionState=STRING;
    63c0:	82 e0       	ldi	r24, 0x02	; 2
    63c2:	80 93 91 03 	sts	0x0391, r24
			USART_pchTransmittedString=Copy_pchString;
    63c6:	8a 81       	ldd	r24, Y+2	; 0x02
    63c8:	9b 81       	ldd	r25, Y+3	; 0x03
    63ca:	90 93 95 03 	sts	0x0395, r25
    63ce:	80 93 94 03 	sts	0x0394, r24
			UDRE_pvNotifFunc = Copy_pvNotifFunc;
    63d2:	8c 81       	ldd	r24, Y+4	; 0x04
    63d4:	9d 81       	ldd	r25, Y+5	; 0x05
    63d6:	90 93 a0 03 	sts	0x03A0, r25
    63da:	80 93 9f 03 	sts	0x039F, r24
			SET_BIT(UCSRB,UCSRB_UDRIE);
    63de:	aa e2       	ldi	r26, 0x2A	; 42
    63e0:	b0 e0       	ldi	r27, 0x00	; 0
    63e2:	ea e2       	ldi	r30, 0x2A	; 42
    63e4:	f0 e0       	ldi	r31, 0x00	; 0
    63e6:	80 81       	ld	r24, Z
    63e8:	80 62       	ori	r24, 0x20	; 32
    63ea:	8c 93       	st	X, r24
    63ec:	05 c0       	rjmp	.+10     	; 0x63f8 <USART_u8SendStringAsynch+0x6c>
		}
		else
		{
			Local_u8ErrorState=NULL_POINTER;
    63ee:	82 e0       	ldi	r24, 0x02	; 2
    63f0:	89 83       	std	Y+1, r24	; 0x01
    63f2:	02 c0       	rjmp	.+4      	; 0x63f8 <USART_u8SendStringAsynch+0x6c>
		}
	}
	else
	{
		Local_u8ErrorState=BUSY_FUNC;
    63f4:	83 e0       	ldi	r24, 0x03	; 3
    63f6:	89 83       	std	Y+1, r24	; 0x01
	}

	return Local_u8ErrorState;
    63f8:	89 81       	ldd	r24, Y+1	; 0x01
}
    63fa:	0f 90       	pop	r0
    63fc:	0f 90       	pop	r0
    63fe:	0f 90       	pop	r0
    6400:	0f 90       	pop	r0
    6402:	0f 90       	pop	r0
    6404:	cf 91       	pop	r28
    6406:	df 91       	pop	r29
    6408:	08 95       	ret

0000640a <USART_u8ReceiveCharSynch>:

u8 USART_u8ReceiveCharSynch(u16* Copy_pu16ReceivedData){
    640a:	df 93       	push	r29
    640c:	cf 93       	push	r28
    640e:	cd b7       	in	r28, 0x3d	; 61
    6410:	de b7       	in	r29, 0x3e	; 62
    6412:	27 97       	sbiw	r28, 0x07	; 7
    6414:	0f b6       	in	r0, 0x3f	; 63
    6416:	f8 94       	cli
    6418:	de bf       	out	0x3e, r29	; 62
    641a:	0f be       	out	0x3f, r0	; 63
    641c:	cd bf       	out	0x3d, r28	; 61
    641e:	9f 83       	std	Y+7, r25	; 0x07
    6420:	8e 83       	std	Y+6, r24	; 0x06
	u8 Local_u8ErrorState=OK;
    6422:	1d 82       	std	Y+5, r1	; 0x05
	if(USART_u8State==IDLE)
    6424:	80 91 27 03 	lds	r24, 0x0327
    6428:	81 30       	cpi	r24, 0x01	; 1
    642a:	09 f0       	breq	.+2      	; 0x642e <USART_u8ReceiveCharSynch+0x24>
    642c:	47 c0       	rjmp	.+142    	; 0x64bc <USART_u8ReceiveCharSynch+0xb2>
	{
		if(Copy_pu16ReceivedData!=NULL)
    642e:	8e 81       	ldd	r24, Y+6	; 0x06
    6430:	9f 81       	ldd	r25, Y+7	; 0x07
    6432:	00 97       	sbiw	r24, 0x00	; 0
    6434:	09 f4       	brne	.+2      	; 0x6438 <USART_u8ReceiveCharSynch+0x2e>
    6436:	3f c0       	rjmp	.+126    	; 0x64b6 <USART_u8ReceiveCharSynch+0xac>
		{
			USART_u8State=BUSY;
    6438:	10 92 27 03 	sts	0x0327, r1
			u32 Local_u32Counter=0;
    643c:	19 82       	std	Y+1, r1	; 0x01
    643e:	1a 82       	std	Y+2, r1	; 0x02
    6440:	1b 82       	std	Y+3, r1	; 0x03
    6442:	1c 82       	std	Y+4, r1	; 0x04
    6444:	0b c0       	rjmp	.+22     	; 0x645c <USART_u8ReceiveCharSynch+0x52>
			while(GET_BIT(UCSRA,UCSRA_RXC)==0&&Local_u32Counter!=TIMEOUT){
				Local_u32Counter++;
    6446:	89 81       	ldd	r24, Y+1	; 0x01
    6448:	9a 81       	ldd	r25, Y+2	; 0x02
    644a:	ab 81       	ldd	r26, Y+3	; 0x03
    644c:	bc 81       	ldd	r27, Y+4	; 0x04
    644e:	01 96       	adiw	r24, 0x01	; 1
    6450:	a1 1d       	adc	r26, r1
    6452:	b1 1d       	adc	r27, r1
    6454:	89 83       	std	Y+1, r24	; 0x01
    6456:	9a 83       	std	Y+2, r25	; 0x02
    6458:	ab 83       	std	Y+3, r26	; 0x03
    645a:	bc 83       	std	Y+4, r27	; 0x04
	{
		if(Copy_pu16ReceivedData!=NULL)
		{
			USART_u8State=BUSY;
			u32 Local_u32Counter=0;
			while(GET_BIT(UCSRA,UCSRA_RXC)==0&&Local_u32Counter!=TIMEOUT){
    645c:	eb e2       	ldi	r30, 0x2B	; 43
    645e:	f0 e0       	ldi	r31, 0x00	; 0
    6460:	80 81       	ld	r24, Z
    6462:	88 23       	and	r24, r24
    6464:	64 f0       	brlt	.+24     	; 0x647e <USART_u8ReceiveCharSynch+0x74>
    6466:	89 81       	ldd	r24, Y+1	; 0x01
    6468:	9a 81       	ldd	r25, Y+2	; 0x02
    646a:	ab 81       	ldd	r26, Y+3	; 0x03
    646c:	bc 81       	ldd	r27, Y+4	; 0x04
    646e:	80 32       	cpi	r24, 0x20	; 32
    6470:	21 ea       	ldi	r18, 0xA1	; 161
    6472:	92 07       	cpc	r25, r18
    6474:	27 e0       	ldi	r18, 0x07	; 7
    6476:	a2 07       	cpc	r26, r18
    6478:	20 e0       	ldi	r18, 0x00	; 0
    647a:	b2 07       	cpc	r27, r18
    647c:	21 f7       	brne	.-56     	; 0x6446 <USART_u8ReceiveCharSynch+0x3c>
				Local_u32Counter++;
			}
			if(Local_u32Counter==TIMEOUT)
    647e:	89 81       	ldd	r24, Y+1	; 0x01
    6480:	9a 81       	ldd	r25, Y+2	; 0x02
    6482:	ab 81       	ldd	r26, Y+3	; 0x03
    6484:	bc 81       	ldd	r27, Y+4	; 0x04
    6486:	80 32       	cpi	r24, 0x20	; 32
    6488:	21 ea       	ldi	r18, 0xA1	; 161
    648a:	92 07       	cpc	r25, r18
    648c:	27 e0       	ldi	r18, 0x07	; 7
    648e:	a2 07       	cpc	r26, r18
    6490:	20 e0       	ldi	r18, 0x00	; 0
    6492:	b2 07       	cpc	r27, r18
    6494:	19 f4       	brne	.+6      	; 0x649c <USART_u8ReceiveCharSynch+0x92>
			{
				Local_u8ErrorState=FUNC_TIMEOUT;
    6496:	84 e0       	ldi	r24, 0x04	; 4
    6498:	8d 83       	std	Y+5, r24	; 0x05
    649a:	09 c0       	rjmp	.+18     	; 0x64ae <USART_u8ReceiveCharSynch+0xa4>
			}
			else
			{
				*Copy_pu16ReceivedData=UDR;
    649c:	ec e2       	ldi	r30, 0x2C	; 44
    649e:	f0 e0       	ldi	r31, 0x00	; 0
    64a0:	80 81       	ld	r24, Z
    64a2:	88 2f       	mov	r24, r24
    64a4:	90 e0       	ldi	r25, 0x00	; 0
    64a6:	ee 81       	ldd	r30, Y+6	; 0x06
    64a8:	ff 81       	ldd	r31, Y+7	; 0x07
    64aa:	91 83       	std	Z+1, r25	; 0x01
    64ac:	80 83       	st	Z, r24
					{
						CLR_BIT(*Copy_pu16ReceivedData,8);
					}
				}
			}
			USART_u8State=IDLE;
    64ae:	81 e0       	ldi	r24, 0x01	; 1
    64b0:	80 93 27 03 	sts	0x0327, r24
    64b4:	05 c0       	rjmp	.+10     	; 0x64c0 <USART_u8ReceiveCharSynch+0xb6>
		}
		else{
			Local_u8ErrorState=NULL_POINTER;
    64b6:	82 e0       	ldi	r24, 0x02	; 2
    64b8:	8d 83       	std	Y+5, r24	; 0x05
    64ba:	02 c0       	rjmp	.+4      	; 0x64c0 <USART_u8ReceiveCharSynch+0xb6>
		}
	}
	else{
		Local_u8ErrorState=BUSY_FUNC;
    64bc:	83 e0       	ldi	r24, 0x03	; 3
    64be:	8d 83       	std	Y+5, r24	; 0x05
	}
	return Local_u8ErrorState;
    64c0:	8d 81       	ldd	r24, Y+5	; 0x05
}
    64c2:	27 96       	adiw	r28, 0x07	; 7
    64c4:	0f b6       	in	r0, 0x3f	; 63
    64c6:	f8 94       	cli
    64c8:	de bf       	out	0x3e, r29	; 62
    64ca:	0f be       	out	0x3f, r0	; 63
    64cc:	cd bf       	out	0x3d, r28	; 61
    64ce:	cf 91       	pop	r28
    64d0:	df 91       	pop	r29
    64d2:	08 95       	ret

000064d4 <USART_u8ReceiveCharAsynch>:

u8 USART_u8ReceiveCharAsynch(u16* Copy_pu16ReceivedData,void (*Copy_pvNotifFunc)(void)){
    64d4:	df 93       	push	r29
    64d6:	cf 93       	push	r28
    64d8:	00 d0       	rcall	.+0      	; 0x64da <USART_u8ReceiveCharAsynch+0x6>
    64da:	00 d0       	rcall	.+0      	; 0x64dc <USART_u8ReceiveCharAsynch+0x8>
    64dc:	0f 92       	push	r0
    64de:	cd b7       	in	r28, 0x3d	; 61
    64e0:	de b7       	in	r29, 0x3e	; 62
    64e2:	9b 83       	std	Y+3, r25	; 0x03
    64e4:	8a 83       	std	Y+2, r24	; 0x02
    64e6:	7d 83       	std	Y+5, r23	; 0x05
    64e8:	6c 83       	std	Y+4, r22	; 0x04
	u8 Local_u8ErrorState=OK;
    64ea:	19 82       	std	Y+1, r1	; 0x01
	if(USART_u8State==IDLE){
    64ec:	80 91 27 03 	lds	r24, 0x0327
    64f0:	81 30       	cpi	r24, 0x01	; 1
    64f2:	21 f5       	brne	.+72     	; 0x653c <USART_u8ReceiveCharAsynch+0x68>
		if(Copy_pu16ReceivedData!=NULL && Copy_pvNotifFunc!=NULL){
    64f4:	8a 81       	ldd	r24, Y+2	; 0x02
    64f6:	9b 81       	ldd	r25, Y+3	; 0x03
    64f8:	00 97       	sbiw	r24, 0x00	; 0
    64fa:	e9 f0       	breq	.+58     	; 0x6536 <USART_u8ReceiveCharAsynch+0x62>
    64fc:	8c 81       	ldd	r24, Y+4	; 0x04
    64fe:	9d 81       	ldd	r25, Y+5	; 0x05
    6500:	00 97       	sbiw	r24, 0x00	; 0
    6502:	c9 f0       	breq	.+50     	; 0x6536 <USART_u8ReceiveCharAsynch+0x62>
			USART_u8State=BUSY;
    6504:	10 92 27 03 	sts	0x0327, r1
			USART_u8TransmissionState=CHAR;
    6508:	81 e0       	ldi	r24, 0x01	; 1
    650a:	80 93 91 03 	sts	0x0391, r24
			RXC_pvNotifFunc=Copy_pvNotifFunc;
    650e:	8c 81       	ldd	r24, Y+4	; 0x04
    6510:	9d 81       	ldd	r25, Y+5	; 0x05
    6512:	90 93 9e 03 	sts	0x039E, r25
    6516:	80 93 9d 03 	sts	0x039D, r24
			USART_pu16ReceivedData = Copy_pu16ReceivedData;
    651a:	8a 81       	ldd	r24, Y+2	; 0x02
    651c:	9b 81       	ldd	r25, Y+3	; 0x03
    651e:	90 93 97 03 	sts	0x0397, r25
    6522:	80 93 96 03 	sts	0x0396, r24
			SET_BIT(UCSRB,UCSRB_RXCIE);
    6526:	aa e2       	ldi	r26, 0x2A	; 42
    6528:	b0 e0       	ldi	r27, 0x00	; 0
    652a:	ea e2       	ldi	r30, 0x2A	; 42
    652c:	f0 e0       	ldi	r31, 0x00	; 0
    652e:	80 81       	ld	r24, Z
    6530:	80 68       	ori	r24, 0x80	; 128
    6532:	8c 93       	st	X, r24
    6534:	05 c0       	rjmp	.+10     	; 0x6540 <USART_u8ReceiveCharAsynch+0x6c>
		}
		else{
			Local_u8ErrorState=NULL_POINTER;
    6536:	82 e0       	ldi	r24, 0x02	; 2
    6538:	89 83       	std	Y+1, r24	; 0x01
    653a:	02 c0       	rjmp	.+4      	; 0x6540 <USART_u8ReceiveCharAsynch+0x6c>
		}
	}
	else{
		Local_u8ErrorState=BUSY_FUNC;
    653c:	83 e0       	ldi	r24, 0x03	; 3
    653e:	89 83       	std	Y+1, r24	; 0x01
	}


	return Local_u8ErrorState;
    6540:	89 81       	ldd	r24, Y+1	; 0x01
}
    6542:	0f 90       	pop	r0
    6544:	0f 90       	pop	r0
    6546:	0f 90       	pop	r0
    6548:	0f 90       	pop	r0
    654a:	0f 90       	pop	r0
    654c:	cf 91       	pop	r28
    654e:	df 91       	pop	r29
    6550:	08 95       	ret

00006552 <USART_u8ReceiveBufferSynch>:

u8 USART_u8ReceiveBufferSynch(u8* Copy_u8Buffer,u8 Copy_u8BufferSize){
    6552:	df 93       	push	r29
    6554:	cf 93       	push	r28
    6556:	00 d0       	rcall	.+0      	; 0x6558 <USART_u8ReceiveBufferSynch+0x6>
    6558:	00 d0       	rcall	.+0      	; 0x655a <USART_u8ReceiveBufferSynch+0x8>
    655a:	0f 92       	push	r0
    655c:	cd b7       	in	r28, 0x3d	; 61
    655e:	de b7       	in	r29, 0x3e	; 62
    6560:	9c 83       	std	Y+4, r25	; 0x04
    6562:	8b 83       	std	Y+3, r24	; 0x03
    6564:	6d 83       	std	Y+5, r22	; 0x05
	u8 Local_u8ErrorState=OK;
    6566:	1a 82       	std	Y+2, r1	; 0x02
	if(USART_u8State==IDLE)
    6568:	80 91 27 03 	lds	r24, 0x0327
    656c:	81 30       	cpi	r24, 0x01	; 1
    656e:	d1 f4       	brne	.+52     	; 0x65a4 <USART_u8ReceiveBufferSynch+0x52>
	{
		if(Copy_u8Buffer!=NULL)
    6570:	8b 81       	ldd	r24, Y+3	; 0x03
    6572:	9c 81       	ldd	r25, Y+4	; 0x04
    6574:	00 97       	sbiw	r24, 0x00	; 0
    6576:	99 f0       	breq	.+38     	; 0x659e <USART_u8ReceiveBufferSynch+0x4c>
		{
			u8 Local_u8Iterator;
			for(Local_u8Iterator=0;Local_u8Iterator<Copy_u8BufferSize;Local_u8Iterator++){
    6578:	19 82       	std	Y+1, r1	; 0x01
    657a:	0c c0       	rjmp	.+24     	; 0x6594 <USART_u8ReceiveBufferSynch+0x42>
				USART_u8ReceiveCharSynch(&Copy_u8Buffer[Local_u8Iterator]);
    657c:	2b 81       	ldd	r18, Y+3	; 0x03
    657e:	3c 81       	ldd	r19, Y+4	; 0x04
    6580:	89 81       	ldd	r24, Y+1	; 0x01
    6582:	88 2f       	mov	r24, r24
    6584:	90 e0       	ldi	r25, 0x00	; 0
    6586:	82 0f       	add	r24, r18
    6588:	93 1f       	adc	r25, r19
    658a:	0e 94 05 32 	call	0x640a	; 0x640a <USART_u8ReceiveCharSynch>
	if(USART_u8State==IDLE)
	{
		if(Copy_u8Buffer!=NULL)
		{
			u8 Local_u8Iterator;
			for(Local_u8Iterator=0;Local_u8Iterator<Copy_u8BufferSize;Local_u8Iterator++){
    658e:	89 81       	ldd	r24, Y+1	; 0x01
    6590:	8f 5f       	subi	r24, 0xFF	; 255
    6592:	89 83       	std	Y+1, r24	; 0x01
    6594:	99 81       	ldd	r25, Y+1	; 0x01
    6596:	8d 81       	ldd	r24, Y+5	; 0x05
    6598:	98 17       	cp	r25, r24
    659a:	80 f3       	brcs	.-32     	; 0x657c <USART_u8ReceiveBufferSynch+0x2a>
    659c:	05 c0       	rjmp	.+10     	; 0x65a8 <USART_u8ReceiveBufferSynch+0x56>
				USART_u8ReceiveCharSynch(&Copy_u8Buffer[Local_u8Iterator]);
			}
		}
		else{
			Local_u8ErrorState=NULL_POINTER;
    659e:	82 e0       	ldi	r24, 0x02	; 2
    65a0:	8a 83       	std	Y+2, r24	; 0x02
    65a2:	02 c0       	rjmp	.+4      	; 0x65a8 <USART_u8ReceiveBufferSynch+0x56>
		}
	}
	else{
		Local_u8ErrorState=BUSY_FUNC;
    65a4:	83 e0       	ldi	r24, 0x03	; 3
    65a6:	8a 83       	std	Y+2, r24	; 0x02
	}

	return Local_u8ErrorState;
    65a8:	8a 81       	ldd	r24, Y+2	; 0x02
}
    65aa:	0f 90       	pop	r0
    65ac:	0f 90       	pop	r0
    65ae:	0f 90       	pop	r0
    65b0:	0f 90       	pop	r0
    65b2:	0f 90       	pop	r0
    65b4:	cf 91       	pop	r28
    65b6:	df 91       	pop	r29
    65b8:	08 95       	ret

000065ba <USART_u8ReceiveBufferAsynch>:

u8 USART_u8ReceiveBufferAsynch(u8* Copy_u8Buffer,u8 Copy_u8BufferSize,void (*Copy_pvNotifFunc)(void)){
    65ba:	df 93       	push	r29
    65bc:	cf 93       	push	r28
    65be:	00 d0       	rcall	.+0      	; 0x65c0 <USART_u8ReceiveBufferAsynch+0x6>
    65c0:	00 d0       	rcall	.+0      	; 0x65c2 <USART_u8ReceiveBufferAsynch+0x8>
    65c2:	00 d0       	rcall	.+0      	; 0x65c4 <USART_u8ReceiveBufferAsynch+0xa>
    65c4:	cd b7       	in	r28, 0x3d	; 61
    65c6:	de b7       	in	r29, 0x3e	; 62
    65c8:	9b 83       	std	Y+3, r25	; 0x03
    65ca:	8a 83       	std	Y+2, r24	; 0x02
    65cc:	6c 83       	std	Y+4, r22	; 0x04
    65ce:	5e 83       	std	Y+6, r21	; 0x06
    65d0:	4d 83       	std	Y+5, r20	; 0x05
	u8 Local_u8ErrorState=OK;
    65d2:	19 82       	std	Y+1, r1	; 0x01
	if(USART_u8State==IDLE)
    65d4:	80 91 27 03 	lds	r24, 0x0327
    65d8:	81 30       	cpi	r24, 0x01	; 1
    65da:	39 f5       	brne	.+78     	; 0x662a <USART_u8ReceiveBufferAsynch+0x70>
	{
		if(Copy_u8Buffer!=NULL && Copy_pvNotifFunc!=NULL)
    65dc:	8a 81       	ldd	r24, Y+2	; 0x02
    65de:	9b 81       	ldd	r25, Y+3	; 0x03
    65e0:	00 97       	sbiw	r24, 0x00	; 0
    65e2:	01 f1       	breq	.+64     	; 0x6624 <USART_u8ReceiveBufferAsynch+0x6a>
    65e4:	8d 81       	ldd	r24, Y+5	; 0x05
    65e6:	9e 81       	ldd	r25, Y+6	; 0x06
    65e8:	00 97       	sbiw	r24, 0x00	; 0
    65ea:	e1 f0       	breq	.+56     	; 0x6624 <USART_u8ReceiveBufferAsynch+0x6a>
		{
			USART_u8State=BUSY;
    65ec:	10 92 27 03 	sts	0x0327, r1
			USART_u8TransmissionState=STRING;
    65f0:	82 e0       	ldi	r24, 0x02	; 2
    65f2:	80 93 91 03 	sts	0x0391, r24
			USART_pu8ReceivedBuffer=Copy_u8Buffer;
    65f6:	8a 81       	ldd	r24, Y+2	; 0x02
    65f8:	9b 81       	ldd	r25, Y+3	; 0x03
    65fa:	90 93 99 03 	sts	0x0399, r25
    65fe:	80 93 98 03 	sts	0x0398, r24
			USART_u8ReceivedBufferSize=Copy_u8BufferSize;
    6602:	8c 81       	ldd	r24, Y+4	; 0x04
    6604:	80 93 9a 03 	sts	0x039A, r24
			RXC_pvNotifFunc=Copy_pvNotifFunc;
    6608:	8d 81       	ldd	r24, Y+5	; 0x05
    660a:	9e 81       	ldd	r25, Y+6	; 0x06
    660c:	90 93 9e 03 	sts	0x039E, r25
    6610:	80 93 9d 03 	sts	0x039D, r24
			SET_BIT(UCSRB,UCSRB_RXCIE);
    6614:	aa e2       	ldi	r26, 0x2A	; 42
    6616:	b0 e0       	ldi	r27, 0x00	; 0
    6618:	ea e2       	ldi	r30, 0x2A	; 42
    661a:	f0 e0       	ldi	r31, 0x00	; 0
    661c:	80 81       	ld	r24, Z
    661e:	80 68       	ori	r24, 0x80	; 128
    6620:	8c 93       	st	X, r24
    6622:	05 c0       	rjmp	.+10     	; 0x662e <USART_u8ReceiveBufferAsynch+0x74>
		}
		else
		{
			Local_u8ErrorState=NULL_POINTER;
    6624:	82 e0       	ldi	r24, 0x02	; 2
    6626:	89 83       	std	Y+1, r24	; 0x01
    6628:	02 c0       	rjmp	.+4      	; 0x662e <USART_u8ReceiveBufferAsynch+0x74>
		}
	}
	else
	{
		Local_u8ErrorState=BUSY_FUNC;
    662a:	83 e0       	ldi	r24, 0x03	; 3
    662c:	89 83       	std	Y+1, r24	; 0x01
	}

	return Local_u8ErrorState;
    662e:	89 81       	ldd	r24, Y+1	; 0x01
}
    6630:	26 96       	adiw	r28, 0x06	; 6
    6632:	0f b6       	in	r0, 0x3f	; 63
    6634:	f8 94       	cli
    6636:	de bf       	out	0x3e, r29	; 62
    6638:	0f be       	out	0x3f, r0	; 63
    663a:	cd bf       	out	0x3d, r28	; 61
    663c:	cf 91       	pop	r28
    663e:	df 91       	pop	r29
    6640:	08 95       	ret

00006642 <__vector_13>:

//RX Complete ISR
void __vector_13(void)  __attribute__((signal));
void __vector_13(void){
    6642:	1f 92       	push	r1
    6644:	0f 92       	push	r0
    6646:	0f b6       	in	r0, 0x3f	; 63
    6648:	0f 92       	push	r0
    664a:	11 24       	eor	r1, r1
    664c:	2f 93       	push	r18
    664e:	3f 93       	push	r19
    6650:	4f 93       	push	r20
    6652:	5f 93       	push	r21
    6654:	6f 93       	push	r22
    6656:	7f 93       	push	r23
    6658:	8f 93       	push	r24
    665a:	9f 93       	push	r25
    665c:	af 93       	push	r26
    665e:	bf 93       	push	r27
    6660:	ef 93       	push	r30
    6662:	ff 93       	push	r31
    6664:	df 93       	push	r29
    6666:	cf 93       	push	r28
    6668:	cd b7       	in	r28, 0x3d	; 61
    666a:	de b7       	in	r29, 0x3e	; 62
	if(USART_u8TransmissionState==CHAR)
    666c:	80 91 91 03 	lds	r24, 0x0391
    6670:	81 30       	cpi	r24, 0x01	; 1
    6672:	d9 f4       	brne	.+54     	; 0x66aa <__vector_13+0x68>
	{
		*USART_pu16ReceivedData = UDR;
    6674:	a0 91 96 03 	lds	r26, 0x0396
    6678:	b0 91 97 03 	lds	r27, 0x0397
    667c:	ec e2       	ldi	r30, 0x2C	; 44
    667e:	f0 e0       	ldi	r31, 0x00	; 0
    6680:	80 81       	ld	r24, Z
    6682:	88 2f       	mov	r24, r24
    6684:	90 e0       	ldi	r25, 0x00	; 0
    6686:	8d 93       	st	X+, r24
    6688:	9c 93       	st	X, r25
			else if(GET_BIT(UCSRB,UCSRB_RXB8)==0)
			{
				CLR_BIT((*USART_pu16ReceivedData),8);
			}
		}
		USART_u8State=IDLE;
    668a:	81 e0       	ldi	r24, 0x01	; 1
    668c:	80 93 27 03 	sts	0x0327, r24
		RXC_pvNotifFunc();
    6690:	e0 91 9d 03 	lds	r30, 0x039D
    6694:	f0 91 9e 03 	lds	r31, 0x039E
    6698:	09 95       	icall
		CLR_BIT(UCSRB,UCSRB_RXCIE);
    669a:	aa e2       	ldi	r26, 0x2A	; 42
    669c:	b0 e0       	ldi	r27, 0x00	; 0
    669e:	ea e2       	ldi	r30, 0x2A	; 42
    66a0:	f0 e0       	ldi	r31, 0x00	; 0
    66a2:	80 81       	ld	r24, Z
    66a4:	8f 77       	andi	r24, 0x7F	; 127
    66a6:	8c 93       	st	X, r24
    66a8:	34 c0       	rjmp	.+104    	; 0x6712 <__vector_13+0xd0>
	}
	else if(USART_u8TransmissionState==STRING)
    66aa:	80 91 91 03 	lds	r24, 0x0391
    66ae:	82 30       	cpi	r24, 0x02	; 2
    66b0:	81 f5       	brne	.+96     	; 0x6712 <__vector_13+0xd0>
	{
		static u8 Local_u8Counter=0;
		if(Local_u8Counter<USART_u8ReceivedBufferSize)
    66b2:	90 91 8f 03 	lds	r25, 0x038F
    66b6:	80 91 9a 03 	lds	r24, 0x039A
    66ba:	98 17       	cp	r25, r24
    66bc:	50 f5       	brcc	.+84     	; 0x6712 <__vector_13+0xd0>
		{
			USART_pu8ReceivedBuffer[Local_u8Counter++]=UDR;
    66be:	20 91 98 03 	lds	r18, 0x0398
    66c2:	30 91 99 03 	lds	r19, 0x0399
    66c6:	40 91 8f 03 	lds	r20, 0x038F
    66ca:	84 2f       	mov	r24, r20
    66cc:	90 e0       	ldi	r25, 0x00	; 0
    66ce:	d9 01       	movw	r26, r18
    66d0:	a8 0f       	add	r26, r24
    66d2:	b9 1f       	adc	r27, r25
    66d4:	ec e2       	ldi	r30, 0x2C	; 44
    66d6:	f0 e0       	ldi	r31, 0x00	; 0
    66d8:	80 81       	ld	r24, Z
    66da:	8c 93       	st	X, r24
    66dc:	84 2f       	mov	r24, r20
    66de:	8f 5f       	subi	r24, 0xFF	; 255
    66e0:	80 93 8f 03 	sts	0x038F, r24
			if(Local_u8Counter==USART_u8ReceivedBufferSize)
    66e4:	90 91 8f 03 	lds	r25, 0x038F
    66e8:	80 91 9a 03 	lds	r24, 0x039A
    66ec:	98 17       	cp	r25, r24
    66ee:	89 f4       	brne	.+34     	; 0x6712 <__vector_13+0xd0>
			{
				USART_u8State=IDLE;
    66f0:	81 e0       	ldi	r24, 0x01	; 1
    66f2:	80 93 27 03 	sts	0x0327, r24
				Local_u8Counter=0;
    66f6:	10 92 8f 03 	sts	0x038F, r1
				RXC_pvNotifFunc();
    66fa:	e0 91 9d 03 	lds	r30, 0x039D
    66fe:	f0 91 9e 03 	lds	r31, 0x039E
    6702:	09 95       	icall
				CLR_BIT(UCSRB,UCSRB_RXCIE);
    6704:	aa e2       	ldi	r26, 0x2A	; 42
    6706:	b0 e0       	ldi	r27, 0x00	; 0
    6708:	ea e2       	ldi	r30, 0x2A	; 42
    670a:	f0 e0       	ldi	r31, 0x00	; 0
    670c:	80 81       	ld	r24, Z
    670e:	8f 77       	andi	r24, 0x7F	; 127
    6710:	8c 93       	st	X, r24
			}
		}

	}

}
    6712:	cf 91       	pop	r28
    6714:	df 91       	pop	r29
    6716:	ff 91       	pop	r31
    6718:	ef 91       	pop	r30
    671a:	bf 91       	pop	r27
    671c:	af 91       	pop	r26
    671e:	9f 91       	pop	r25
    6720:	8f 91       	pop	r24
    6722:	7f 91       	pop	r23
    6724:	6f 91       	pop	r22
    6726:	5f 91       	pop	r21
    6728:	4f 91       	pop	r20
    672a:	3f 91       	pop	r19
    672c:	2f 91       	pop	r18
    672e:	0f 90       	pop	r0
    6730:	0f be       	out	0x3f, r0	; 63
    6732:	0f 90       	pop	r0
    6734:	1f 90       	pop	r1
    6736:	18 95       	reti

00006738 <__vector_14>:

//Data Register Empty ISR
void __vector_14(void)  __attribute__((signal));
void __vector_14(void)
{
    6738:	1f 92       	push	r1
    673a:	0f 92       	push	r0
    673c:	0f b6       	in	r0, 0x3f	; 63
    673e:	0f 92       	push	r0
    6740:	11 24       	eor	r1, r1
    6742:	2f 93       	push	r18
    6744:	3f 93       	push	r19
    6746:	4f 93       	push	r20
    6748:	5f 93       	push	r21
    674a:	6f 93       	push	r22
    674c:	7f 93       	push	r23
    674e:	8f 93       	push	r24
    6750:	9f 93       	push	r25
    6752:	af 93       	push	r26
    6754:	bf 93       	push	r27
    6756:	ef 93       	push	r30
    6758:	ff 93       	push	r31
    675a:	df 93       	push	r29
    675c:	cf 93       	push	r28
    675e:	cd b7       	in	r28, 0x3d	; 61
    6760:	de b7       	in	r29, 0x3e	; 62
	static u8 Local_u8Counter=0;
	
	if(USART_u8TransmissionState==CHAR)
    6762:	80 91 91 03 	lds	r24, 0x0391
    6766:	81 30       	cpi	r24, 0x01	; 1
    6768:	79 f4       	brne	.+30     	; 0x6788 <__vector_14+0x50>
	{

		UDR=USART_u16TransmittedData;
    676a:	ec e2       	ldi	r30, 0x2C	; 44
    676c:	f0 e0       	ldi	r31, 0x00	; 0
    676e:	80 91 92 03 	lds	r24, 0x0392
    6772:	90 91 93 03 	lds	r25, 0x0393
    6776:	80 83       	st	Z, r24
			{
				CLR_BIT(UCSRB,UCSRB_TXB8);
			}
		}
		/*Disable UDRIE Complete Interrupt*/
		CLR_BIT(UCSRB,UCSRB_UDRIE);
    6778:	aa e2       	ldi	r26, 0x2A	; 42
    677a:	b0 e0       	ldi	r27, 0x00	; 0
    677c:	ea e2       	ldi	r30, 0x2A	; 42
    677e:	f0 e0       	ldi	r31, 0x00	; 0
    6780:	80 81       	ld	r24, Z
    6782:	8f 7d       	andi	r24, 0xDF	; 223
    6784:	8c 93       	st	X, r24
    6786:	37 c0       	rjmp	.+110    	; 0x67f6 <__vector_14+0xbe>
	}
	else if(USART_u8TransmissionState==STRING)
    6788:	80 91 91 03 	lds	r24, 0x0391
    678c:	82 30       	cpi	r24, 0x02	; 2
    678e:	99 f5       	brne	.+102    	; 0x67f6 <__vector_14+0xbe>
	{
		if(USART_pchTransmittedString[Local_u8Counter]!='\0')
    6790:	20 91 94 03 	lds	r18, 0x0394
    6794:	30 91 95 03 	lds	r19, 0x0395
    6798:	80 91 90 03 	lds	r24, 0x0390
    679c:	88 2f       	mov	r24, r24
    679e:	90 e0       	ldi	r25, 0x00	; 0
    67a0:	f9 01       	movw	r30, r18
    67a2:	e8 0f       	add	r30, r24
    67a4:	f9 1f       	adc	r31, r25
    67a6:	80 81       	ld	r24, Z
    67a8:	88 23       	and	r24, r24
    67aa:	a1 f0       	breq	.+40     	; 0x67d4 <__vector_14+0x9c>
		{
			UDR=USART_pchTransmittedString[Local_u8Counter++];
    67ac:	ac e2       	ldi	r26, 0x2C	; 44
    67ae:	b0 e0       	ldi	r27, 0x00	; 0
    67b0:	20 91 94 03 	lds	r18, 0x0394
    67b4:	30 91 95 03 	lds	r19, 0x0395
    67b8:	40 91 90 03 	lds	r20, 0x0390
    67bc:	84 2f       	mov	r24, r20
    67be:	90 e0       	ldi	r25, 0x00	; 0
    67c0:	f9 01       	movw	r30, r18
    67c2:	e8 0f       	add	r30, r24
    67c4:	f9 1f       	adc	r31, r25
    67c6:	80 81       	ld	r24, Z
    67c8:	8c 93       	st	X, r24
    67ca:	84 2f       	mov	r24, r20
    67cc:	8f 5f       	subi	r24, 0xFF	; 255
    67ce:	80 93 90 03 	sts	0x0390, r24
    67d2:	11 c0       	rjmp	.+34     	; 0x67f6 <__vector_14+0xbe>
		}
		else
		{
			USART_u8State=IDLE;
    67d4:	81 e0       	ldi	r24, 0x01	; 1
    67d6:	80 93 27 03 	sts	0x0327, r24
			Local_u8Counter=0;
    67da:	10 92 90 03 	sts	0x0390, r1
			UDRE_pvNotifFunc();
    67de:	e0 91 9f 03 	lds	r30, 0x039F
    67e2:	f0 91 a0 03 	lds	r31, 0x03A0
    67e6:	09 95       	icall
			/*Disable UDRIE Complete Interrupt*/
			CLR_BIT(UCSRB,UCSRB_UDRIE);
    67e8:	aa e2       	ldi	r26, 0x2A	; 42
    67ea:	b0 e0       	ldi	r27, 0x00	; 0
    67ec:	ea e2       	ldi	r30, 0x2A	; 42
    67ee:	f0 e0       	ldi	r31, 0x00	; 0
    67f0:	80 81       	ld	r24, Z
    67f2:	8f 7d       	andi	r24, 0xDF	; 223
    67f4:	8c 93       	st	X, r24
		}
	}


}
    67f6:	cf 91       	pop	r28
    67f8:	df 91       	pop	r29
    67fa:	ff 91       	pop	r31
    67fc:	ef 91       	pop	r30
    67fe:	bf 91       	pop	r27
    6800:	af 91       	pop	r26
    6802:	9f 91       	pop	r25
    6804:	8f 91       	pop	r24
    6806:	7f 91       	pop	r23
    6808:	6f 91       	pop	r22
    680a:	5f 91       	pop	r21
    680c:	4f 91       	pop	r20
    680e:	3f 91       	pop	r19
    6810:	2f 91       	pop	r18
    6812:	0f 90       	pop	r0
    6814:	0f be       	out	0x3f, r0	; 63
    6816:	0f 90       	pop	r0
    6818:	1f 90       	pop	r1
    681a:	18 95       	reti

0000681c <__vector_15>:

//TX Complete ISR
void __vector_15(void)  __attribute__((signal));
void __vector_15(void){
    681c:	1f 92       	push	r1
    681e:	0f 92       	push	r0
    6820:	0f b6       	in	r0, 0x3f	; 63
    6822:	0f 92       	push	r0
    6824:	11 24       	eor	r1, r1
    6826:	2f 93       	push	r18
    6828:	3f 93       	push	r19
    682a:	4f 93       	push	r20
    682c:	5f 93       	push	r21
    682e:	6f 93       	push	r22
    6830:	7f 93       	push	r23
    6832:	8f 93       	push	r24
    6834:	9f 93       	push	r25
    6836:	af 93       	push	r26
    6838:	bf 93       	push	r27
    683a:	ef 93       	push	r30
    683c:	ff 93       	push	r31
    683e:	df 93       	push	r29
    6840:	cf 93       	push	r28
    6842:	cd b7       	in	r28, 0x3d	; 61
    6844:	de b7       	in	r29, 0x3e	; 62
	if(USART_u8TransmissionState==CHAR)
    6846:	80 91 91 03 	lds	r24, 0x0391
    684a:	81 30       	cpi	r24, 0x01	; 1
    684c:	79 f4       	brne	.+30     	; 0x686c <__vector_15+0x50>
	{
		USART_u8State=IDLE;
    684e:	81 e0       	ldi	r24, 0x01	; 1
    6850:	80 93 27 03 	sts	0x0327, r24
		TXC_pvNotifFunc();
    6854:	e0 91 9b 03 	lds	r30, 0x039B
    6858:	f0 91 9c 03 	lds	r31, 0x039C
    685c:	09 95       	icall
		CLR_BIT(UCSRB,UCSRB_TXCIE);
    685e:	aa e2       	ldi	r26, 0x2A	; 42
    6860:	b0 e0       	ldi	r27, 0x00	; 0
    6862:	ea e2       	ldi	r30, 0x2A	; 42
    6864:	f0 e0       	ldi	r31, 0x00	; 0
    6866:	80 81       	ld	r24, Z
    6868:	8f 7b       	andi	r24, 0xBF	; 191
    686a:	8c 93       	st	X, r24
	else if(USART_u8TransmissionState==STRING)
	{

	}

}
    686c:	cf 91       	pop	r28
    686e:	df 91       	pop	r29
    6870:	ff 91       	pop	r31
    6872:	ef 91       	pop	r30
    6874:	bf 91       	pop	r27
    6876:	af 91       	pop	r26
    6878:	9f 91       	pop	r25
    687a:	8f 91       	pop	r24
    687c:	7f 91       	pop	r23
    687e:	6f 91       	pop	r22
    6880:	5f 91       	pop	r21
    6882:	4f 91       	pop	r20
    6884:	3f 91       	pop	r19
    6886:	2f 91       	pop	r18
    6888:	0f 90       	pop	r0
    688a:	0f be       	out	0x3f, r0	; 63
    688c:	0f 90       	pop	r0
    688e:	1f 90       	pop	r1
    6890:	18 95       	reti

00006892 <main>:
void INT0Emergency();

/*************************************************************************************************************************/

void main (void)
{
    6892:	af 92       	push	r10
    6894:	bf 92       	push	r11
    6896:	cf 92       	push	r12
    6898:	df 92       	push	r13
    689a:	ef 92       	push	r14
    689c:	ff 92       	push	r15
    689e:	0f 93       	push	r16
    68a0:	1f 93       	push	r17
    68a2:	df 93       	push	r29
    68a4:	cf 93       	push	r28
    68a6:	cd b7       	in	r28, 0x3d	; 61
    68a8:	de b7       	in	r29, 0x3e	; 62
    68aa:	c7 54       	subi	r28, 0x47	; 71
    68ac:	d0 40       	sbci	r29, 0x00	; 0
    68ae:	0f b6       	in	r0, 0x3f	; 63
    68b0:	f8 94       	cli
    68b2:	de bf       	out	0x3e, r29	; 62
    68b4:	0f be       	out	0x3f, r0	; 63
    68b6:	cd bf       	out	0x3d, r28	; 61
	APP_voidInit();
    68b8:	0e 94 83 09 	call	0x1306	; 0x1306 <APP_voidInit>
	u8 Local_u8SystemKey;
	do
	{
		Local_u8SystemKey = KPD_u8GetPressedKey();
    68bc:	0e 94 66 18 	call	0x30cc	; 0x30cc <KPD_u8GetPressedKey>
    68c0:	8d a7       	std	Y+45, r24	; 0x2d

	} while (Local_u8SystemKey == 0xff);
    68c2:	8d a5       	ldd	r24, Y+45	; 0x2d
    68c4:	8f 3f       	cpi	r24, 0xFF	; 255
    68c6:	d1 f3       	breq	.-12     	; 0x68bc <main+0x2a>

	if(Local_u8SystemKey=='A')
    68c8:	8d a5       	ldd	r24, Y+45	; 0x2d
    68ca:	81 34       	cpi	r24, 0x41	; 65
    68cc:	09 f0       	breq	.+2      	; 0x68d0 <main+0x3e>
    68ce:	0f c3       	rjmp	.+1566   	; 0x6eee <main+0x65c>
	{
		LCD_voidSendString2("**** HELLO ****");
    68d0:	81 e1       	ldi	r24, 0x11	; 17
    68d2:	91 e0       	ldi	r25, 0x01	; 1
    68d4:	0e 94 7c 1c 	call	0x38f8	; 0x38f8 <LCD_voidSendString2>
		LCD_voidPositionSet(1,0);
    68d8:	81 e0       	ldi	r24, 0x01	; 1
    68da:	60 e0       	ldi	r22, 0x00	; 0
    68dc:	0e 94 2b 1b 	call	0x3656	; 0x3656 <LCD_voidPositionSet>
		LCD_voidSendString2("Let's Start ^_^");
    68e0:	81 e2       	ldi	r24, 0x21	; 33
    68e2:	91 e0       	ldi	r25, 0x01	; 1
    68e4:	0e 94 7c 1c 	call	0x38f8	; 0x38f8 <LCD_voidSendString2>
    68e8:	80 e0       	ldi	r24, 0x00	; 0
    68ea:	90 e0       	ldi	r25, 0x00	; 0
    68ec:	aa ef       	ldi	r26, 0xFA	; 250
    68ee:	b4 e4       	ldi	r27, 0x44	; 68
    68f0:	8f a3       	std	Y+39, r24	; 0x27
    68f2:	98 a7       	std	Y+40, r25	; 0x28
    68f4:	a9 a7       	std	Y+41, r26	; 0x29
    68f6:	ba a7       	std	Y+42, r27	; 0x2a
 */
void
_delay_ms(double __ms)
{
	uint16_t __ticks;
	double __tmp = ((F_CPU) / 4e3) * __ms;
    68f8:	6f a1       	ldd	r22, Y+39	; 0x27
    68fa:	78 a5       	ldd	r23, Y+40	; 0x28
    68fc:	89 a5       	ldd	r24, Y+41	; 0x29
    68fe:	9a a5       	ldd	r25, Y+42	; 0x2a
    6900:	20 e0       	ldi	r18, 0x00	; 0
    6902:	30 e0       	ldi	r19, 0x00	; 0
    6904:	4a ef       	ldi	r20, 0xFA	; 250
    6906:	54 e4       	ldi	r21, 0x44	; 68
    6908:	0e 94 1f 02 	call	0x43e	; 0x43e <__mulsf3>
    690c:	dc 01       	movw	r26, r24
    690e:	cb 01       	movw	r24, r22
    6910:	8b a3       	std	Y+35, r24	; 0x23
    6912:	9c a3       	std	Y+36, r25	; 0x24
    6914:	ad a3       	std	Y+37, r26	; 0x25
    6916:	be a3       	std	Y+38, r27	; 0x26
	if (__tmp < 1.0)
    6918:	6b a1       	ldd	r22, Y+35	; 0x23
    691a:	7c a1       	ldd	r23, Y+36	; 0x24
    691c:	8d a1       	ldd	r24, Y+37	; 0x25
    691e:	9e a1       	ldd	r25, Y+38	; 0x26
    6920:	20 e0       	ldi	r18, 0x00	; 0
    6922:	30 e0       	ldi	r19, 0x00	; 0
    6924:	40 e8       	ldi	r20, 0x80	; 128
    6926:	5f e3       	ldi	r21, 0x3F	; 63
    6928:	0e 94 25 04 	call	0x84a	; 0x84a <__ltsf2>
    692c:	88 23       	and	r24, r24
    692e:	2c f4       	brge	.+10     	; 0x693a <main+0xa8>
		__ticks = 1;
    6930:	81 e0       	ldi	r24, 0x01	; 1
    6932:	90 e0       	ldi	r25, 0x00	; 0
    6934:	9a a3       	std	Y+34, r25	; 0x22
    6936:	89 a3       	std	Y+33, r24	; 0x21
    6938:	3f c0       	rjmp	.+126    	; 0x69b8 <main+0x126>
	else if (__tmp > 65535)
    693a:	6b a1       	ldd	r22, Y+35	; 0x23
    693c:	7c a1       	ldd	r23, Y+36	; 0x24
    693e:	8d a1       	ldd	r24, Y+37	; 0x25
    6940:	9e a1       	ldd	r25, Y+38	; 0x26
    6942:	20 e0       	ldi	r18, 0x00	; 0
    6944:	3f ef       	ldi	r19, 0xFF	; 255
    6946:	4f e7       	ldi	r20, 0x7F	; 127
    6948:	57 e4       	ldi	r21, 0x47	; 71
    694a:	0e 94 c5 03 	call	0x78a	; 0x78a <__gtsf2>
    694e:	18 16       	cp	r1, r24
    6950:	4c f5       	brge	.+82     	; 0x69a4 <main+0x112>
	{
		//	__ticks = requested delay in 1/10 ms
		__ticks = (uint16_t) (__ms * 10.0);
    6952:	6f a1       	ldd	r22, Y+39	; 0x27
    6954:	78 a5       	ldd	r23, Y+40	; 0x28
    6956:	89 a5       	ldd	r24, Y+41	; 0x29
    6958:	9a a5       	ldd	r25, Y+42	; 0x2a
    695a:	20 e0       	ldi	r18, 0x00	; 0
    695c:	30 e0       	ldi	r19, 0x00	; 0
    695e:	40 e2       	ldi	r20, 0x20	; 32
    6960:	51 e4       	ldi	r21, 0x41	; 65
    6962:	0e 94 1f 02 	call	0x43e	; 0x43e <__mulsf3>
    6966:	dc 01       	movw	r26, r24
    6968:	cb 01       	movw	r24, r22
    696a:	bc 01       	movw	r22, r24
    696c:	cd 01       	movw	r24, r26
    696e:	0e 94 49 00 	call	0x92	; 0x92 <__fixunssfsi>
    6972:	dc 01       	movw	r26, r24
    6974:	cb 01       	movw	r24, r22
    6976:	9a a3       	std	Y+34, r25	; 0x22
    6978:	89 a3       	std	Y+33, r24	; 0x21
    697a:	0f c0       	rjmp	.+30     	; 0x699a <main+0x108>
    697c:	88 ec       	ldi	r24, 0xC8	; 200
    697e:	90 e0       	ldi	r25, 0x00	; 0
    6980:	98 a3       	std	Y+32, r25	; 0x20
    6982:	8f 8f       	std	Y+31, r24	; 0x1f
    milliseconds can be achieved.
 */
void
_delay_loop_2(uint16_t __count)
{
	__asm__ volatile (
    6984:	8f 8d       	ldd	r24, Y+31	; 0x1f
    6986:	98 a1       	ldd	r25, Y+32	; 0x20
    6988:	01 97       	sbiw	r24, 0x01	; 1
    698a:	f1 f7       	brne	.-4      	; 0x6988 <main+0xf6>
    698c:	98 a3       	std	Y+32, r25	; 0x20
    698e:	8f 8f       	std	Y+31, r24	; 0x1f
		while(__ticks)
		{
			// wait 1/10 ms
			_delay_loop_2(((F_CPU) / 4e3) / 10);
			__ticks --;
    6990:	89 a1       	ldd	r24, Y+33	; 0x21
    6992:	9a a1       	ldd	r25, Y+34	; 0x22
    6994:	01 97       	sbiw	r24, 0x01	; 1
    6996:	9a a3       	std	Y+34, r25	; 0x22
    6998:	89 a3       	std	Y+33, r24	; 0x21
		__ticks = 1;
	else if (__tmp > 65535)
	{
		//	__ticks = requested delay in 1/10 ms
		__ticks = (uint16_t) (__ms * 10.0);
		while(__ticks)
    699a:	89 a1       	ldd	r24, Y+33	; 0x21
    699c:	9a a1       	ldd	r25, Y+34	; 0x22
    699e:	00 97       	sbiw	r24, 0x00	; 0
    69a0:	69 f7       	brne	.-38     	; 0x697c <main+0xea>
    69a2:	14 c0       	rjmp	.+40     	; 0x69cc <main+0x13a>
			__ticks --;
		}
		return;
	}
	else
		__ticks = (uint16_t)__tmp;
    69a4:	6b a1       	ldd	r22, Y+35	; 0x23
    69a6:	7c a1       	ldd	r23, Y+36	; 0x24
    69a8:	8d a1       	ldd	r24, Y+37	; 0x25
    69aa:	9e a1       	ldd	r25, Y+38	; 0x26
    69ac:	0e 94 49 00 	call	0x92	; 0x92 <__fixunssfsi>
    69b0:	dc 01       	movw	r26, r24
    69b2:	cb 01       	movw	r24, r22
    69b4:	9a a3       	std	Y+34, r25	; 0x22
    69b6:	89 a3       	std	Y+33, r24	; 0x21
    69b8:	89 a1       	ldd	r24, Y+33	; 0x21
    69ba:	9a a1       	ldd	r25, Y+34	; 0x22
    69bc:	9e 8f       	std	Y+30, r25	; 0x1e
    69be:	8d 8f       	std	Y+29, r24	; 0x1d
    69c0:	8d 8d       	ldd	r24, Y+29	; 0x1d
    69c2:	9e 8d       	ldd	r25, Y+30	; 0x1e
    69c4:	01 97       	sbiw	r24, 0x01	; 1
    69c6:	f1 f7       	brne	.-4      	; 0x69c4 <main+0x132>
    69c8:	9e 8f       	std	Y+30, r25	; 0x1e
    69ca:	8d 8f       	std	Y+29, r24	; 0x1d
		_delay_ms(2000);

		APP_voidLoginSystem();
    69cc:	0e 94 92 09 	call	0x1324	; 0x1324 <APP_voidLoginSystem>
		/*************************************************************************************************************************/
		/*timer2 for deleay*/
		Timer_t Timer2={TIMER_CTC,PRSCLR_DIV_BY_8,OCM_DISCONNECT,INT_DISABLE,INT_DISABLE};
    69d0:	ce 01       	movw	r24, r28
    69d2:	8e 96       	adiw	r24, 0x2e	; 46
    69d4:	9f af       	std	Y+63, r25	; 0x3f
    69d6:	8e af       	std	Y+62, r24	; 0x3e
    69d8:	ed e4       	ldi	r30, 0x4D	; 77
    69da:	f3 e0       	ldi	r31, 0x03	; 3
    69dc:	22 96       	adiw	r28, 0x02	; 2
    69de:	ff af       	std	Y+63, r31	; 0x3f
    69e0:	ee af       	std	Y+62, r30	; 0x3e
    69e2:	22 97       	sbiw	r28, 0x02	; 2
    69e4:	f5 e0       	ldi	r31, 0x05	; 5
    69e6:	23 96       	adiw	r28, 0x03	; 3
    69e8:	ff af       	std	Y+63, r31	; 0x3f
    69ea:	23 97       	sbiw	r28, 0x03	; 3
    69ec:	22 96       	adiw	r28, 0x02	; 2
    69ee:	ee ad       	ldd	r30, Y+62	; 0x3e
    69f0:	ff ad       	ldd	r31, Y+63	; 0x3f
    69f2:	22 97       	sbiw	r28, 0x02	; 2
    69f4:	00 80       	ld	r0, Z
    69f6:	22 96       	adiw	r28, 0x02	; 2
    69f8:	8e ad       	ldd	r24, Y+62	; 0x3e
    69fa:	9f ad       	ldd	r25, Y+63	; 0x3f
    69fc:	22 97       	sbiw	r28, 0x02	; 2
    69fe:	01 96       	adiw	r24, 0x01	; 1
    6a00:	22 96       	adiw	r28, 0x02	; 2
    6a02:	9f af       	std	Y+63, r25	; 0x3f
    6a04:	8e af       	std	Y+62, r24	; 0x3e
    6a06:	22 97       	sbiw	r28, 0x02	; 2
    6a08:	ee ad       	ldd	r30, Y+62	; 0x3e
    6a0a:	ff ad       	ldd	r31, Y+63	; 0x3f
    6a0c:	00 82       	st	Z, r0
    6a0e:	8e ad       	ldd	r24, Y+62	; 0x3e
    6a10:	9f ad       	ldd	r25, Y+63	; 0x3f
    6a12:	01 96       	adiw	r24, 0x01	; 1
    6a14:	9f af       	std	Y+63, r25	; 0x3f
    6a16:	8e af       	std	Y+62, r24	; 0x3e
    6a18:	23 96       	adiw	r28, 0x03	; 3
    6a1a:	9f ad       	ldd	r25, Y+63	; 0x3f
    6a1c:	23 97       	sbiw	r28, 0x03	; 3
    6a1e:	91 50       	subi	r25, 0x01	; 1
    6a20:	23 96       	adiw	r28, 0x03	; 3
    6a22:	9f af       	std	Y+63, r25	; 0x3f
    6a24:	23 97       	sbiw	r28, 0x03	; 3
    6a26:	23 96       	adiw	r28, 0x03	; 3
    6a28:	ef ad       	ldd	r30, Y+63	; 0x3f
    6a2a:	23 97       	sbiw	r28, 0x03	; 3
    6a2c:	ee 23       	and	r30, r30
    6a2e:	f1 f6       	brne	.-68     	; 0x69ec <main+0x15a>
		TIMER2_u8Init(&Timer2);
    6a30:	ce 01       	movw	r24, r28
    6a32:	8e 96       	adiw	r24, 0x2e	; 46
    6a34:	0e 94 f3 26 	call	0x4de6	; 0x4de6 <TIMER2_u8Init>
		/*if true ID&PASS Open the door for 3sec only*/
		APP_voidDoorOpen();
    6a38:	0e 94 e8 10 	call	0x21d0	; 0x21d0 <APP_voidDoorOpen>
		TIMER0_delay_ms(&Timer2,2000);
    6a3c:	ce 01       	movw	r24, r28
    6a3e:	8e 96       	adiw	r24, 0x2e	; 46
    6a40:	60 ed       	ldi	r22, 0xD0	; 208
    6a42:	77 e0       	ldi	r23, 0x07	; 7
    6a44:	0e 94 0b 22 	call	0x4416	; 0x4416 <TIMER0_delay_ms>
		APP_voidDoorClose();
    6a48:	0e 94 a0 11 	call	0x2340	; 0x2340 <APP_voidDoorClose>

		u8 Local_u8LEDsMappingNumber,Local_u8ONLEDsNumber;
		u16 Local_u16Distance,Local_u16LDRReading;

		ULTSONIC_t Local_stUltsonic;
		Local_stUltsonic.TrigPort = BUZZER_PORT;
    6a4c:	1f aa       	std	Y+55, r1	; 0x37
		Local_stUltsonic.TrigPin = DIO_u8PIN7;
    6a4e:	87 e0       	ldi	r24, 0x07	; 7
    6a50:	88 af       	std	Y+56, r24	; 0x38
				TIMER_CTC,
				PRSCLR_DIV_BY_8,
				OCM_DISCONNECT,
				INT_ENABLE,
				INT_DISABLE
		};
    6a52:	ce 01       	movw	r24, r28
    6a54:	c9 96       	adiw	r24, 0x39	; 57
    6a56:	25 96       	adiw	r28, 0x05	; 5
    6a58:	9f af       	std	Y+63, r25	; 0x3f
    6a5a:	8e af       	std	Y+62, r24	; 0x3e
    6a5c:	25 97       	sbiw	r28, 0x05	; 5
    6a5e:	e8 e4       	ldi	r30, 0x48	; 72
    6a60:	f3 e0       	ldi	r31, 0x03	; 3
    6a62:	27 96       	adiw	r28, 0x07	; 7
    6a64:	ff af       	std	Y+63, r31	; 0x3f
    6a66:	ee af       	std	Y+62, r30	; 0x3e
    6a68:	27 97       	sbiw	r28, 0x07	; 7
    6a6a:	f5 e0       	ldi	r31, 0x05	; 5
    6a6c:	28 96       	adiw	r28, 0x08	; 8
    6a6e:	ff af       	std	Y+63, r31	; 0x3f
    6a70:	28 97       	sbiw	r28, 0x08	; 8
    6a72:	27 96       	adiw	r28, 0x07	; 7
    6a74:	ee ad       	ldd	r30, Y+62	; 0x3e
    6a76:	ff ad       	ldd	r31, Y+63	; 0x3f
    6a78:	27 97       	sbiw	r28, 0x07	; 7
    6a7a:	00 80       	ld	r0, Z
    6a7c:	27 96       	adiw	r28, 0x07	; 7
    6a7e:	8e ad       	ldd	r24, Y+62	; 0x3e
    6a80:	9f ad       	ldd	r25, Y+63	; 0x3f
    6a82:	27 97       	sbiw	r28, 0x07	; 7
    6a84:	01 96       	adiw	r24, 0x01	; 1
    6a86:	27 96       	adiw	r28, 0x07	; 7
    6a88:	9f af       	std	Y+63, r25	; 0x3f
    6a8a:	8e af       	std	Y+62, r24	; 0x3e
    6a8c:	27 97       	sbiw	r28, 0x07	; 7
    6a8e:	25 96       	adiw	r28, 0x05	; 5
    6a90:	ee ad       	ldd	r30, Y+62	; 0x3e
    6a92:	ff ad       	ldd	r31, Y+63	; 0x3f
    6a94:	25 97       	sbiw	r28, 0x05	; 5
    6a96:	00 82       	st	Z, r0
    6a98:	25 96       	adiw	r28, 0x05	; 5
    6a9a:	8e ad       	ldd	r24, Y+62	; 0x3e
    6a9c:	9f ad       	ldd	r25, Y+63	; 0x3f
    6a9e:	25 97       	sbiw	r28, 0x05	; 5
    6aa0:	01 96       	adiw	r24, 0x01	; 1
    6aa2:	25 96       	adiw	r28, 0x05	; 5
    6aa4:	9f af       	std	Y+63, r25	; 0x3f
    6aa6:	8e af       	std	Y+62, r24	; 0x3e
    6aa8:	25 97       	sbiw	r28, 0x05	; 5
    6aaa:	28 96       	adiw	r28, 0x08	; 8
    6aac:	9f ad       	ldd	r25, Y+63	; 0x3f
    6aae:	28 97       	sbiw	r28, 0x08	; 8
    6ab0:	91 50       	subi	r25, 0x01	; 1
    6ab2:	28 96       	adiw	r28, 0x08	; 8
    6ab4:	9f af       	std	Y+63, r25	; 0x3f
    6ab6:	28 97       	sbiw	r28, 0x08	; 8
    6ab8:	28 96       	adiw	r28, 0x08	; 8
    6aba:	ef ad       	ldd	r30, Y+63	; 0x3f
    6abc:	28 97       	sbiw	r28, 0x08	; 8
    6abe:	ee 23       	and	r30, r30
    6ac0:	c1 f6       	brne	.-80     	; 0x6a72 <main+0x1e0>
		TIMER_u8SetCompMatch(TIMER0,200);
    6ac2:	80 e0       	ldi	r24, 0x00	; 0
    6ac4:	68 ec       	ldi	r22, 0xC8	; 200
    6ac6:	70 e0       	ldi	r23, 0x00	; 0
    6ac8:	0e 94 cf 1f 	call	0x3f9e	; 0x3f9e <TIMER_u8SetCompMatch>
		TIMER_u8SetCallBack(INT_TIMER0_COMP,&NotificationTimer0Func);
    6acc:	20 eb       	ldi	r18, 0xB0	; 176
    6ace:	3b e3       	ldi	r19, 0x3B	; 59
    6ad0:	86 e0       	ldi	r24, 0x06	; 6
    6ad2:	b9 01       	movw	r22, r18
    6ad4:	0e 94 7d 2a 	call	0x54fa	; 0x54fa <TIMER_u8SetCallBack>

		EXTI_voidINT0Init();
    6ad8:	0e 94 a4 15 	call	0x2b48	; 0x2b48 <EXTI_voidINT0Init>
		EXTI_u8Int0SetCallBack(&INT0Emergency);
    6adc:	8b ed       	ldi	r24, 0xDB	; 219
    6ade:	9b e3       	ldi	r25, 0x3B	; 59
    6ae0:	0e 94 56 17 	call	0x2eac	; 0x2eac <EXTI_u8Int0SetCallBack>

		GIE_voidEnable();
    6ae4:	0e 94 4a 18 	call	0x3094	; 0x3094 <GIE_voidEnable>

		while(1)
		{

			USART_u8ReceiveCharAsynch(&ReceivedData,&APP_voidMainMenu);
    6ae8:	29 e8       	ldi	r18, 0x89	; 137
    6aea:	37 e3       	ldi	r19, 0x37	; 55
    6aec:	87 ea       	ldi	r24, 0xA7	; 167
    6aee:	93 e0       	ldi	r25, 0x03	; 3
    6af0:	b9 01       	movw	r22, r18
    6af2:	0e 94 6a 32 	call	0x64d4	; 0x64d4 <USART_u8ReceiveCharAsynch>
			Local_u8SystemKey = KPD_u8GetPressedKey();
    6af6:	0e 94 66 18 	call	0x30cc	; 0x30cc <KPD_u8GetPressedKey>
    6afa:	8d a7       	std	Y+45, r24	; 0x2d

			/*************************************************************************************************************************/
			if(Local_u8SystemKey == 'B')
    6afc:	8d a5       	ldd	r24, Y+45	; 0x2d
    6afe:	82 34       	cpi	r24, 0x42	; 66
    6b00:	79 f4       	brne	.+30     	; 0x6b20 <main+0x28e>
			{
				LCD_voidClearDisplay();
    6b02:	0e 94 72 1c 	call	0x38e4	; 0x38e4 <LCD_voidClearDisplay>
				while(1)
				{
					LCD_voidSendString2("**** Thanks ****");
    6b06:	81 e3       	ldi	r24, 0x31	; 49
    6b08:	91 e0       	ldi	r25, 0x01	; 1
    6b0a:	0e 94 7c 1c 	call	0x38f8	; 0x38f8 <LCD_voidSendString2>
					LCD_voidPositionSet(1,0);
    6b0e:	81 e0       	ldi	r24, 0x01	; 1
    6b10:	60 e0       	ldi	r22, 0x00	; 0
    6b12:	0e 94 2b 1b 	call	0x3656	; 0x3656 <LCD_voidPositionSet>
					LCD_voidSendString2("See You Soon ^_^");
    6b16:	82 e4       	ldi	r24, 0x42	; 66
    6b18:	91 e0       	ldi	r25, 0x01	; 1
    6b1a:	0e 94 7c 1c 	call	0x38f8	; 0x38f8 <LCD_voidSendString2>
    6b1e:	f3 cf       	rjmp	.-26     	; 0x6b06 <main+0x274>
				}
			}
			if(Main_u8LDRFlag==OPENED)
    6b20:	80 91 a1 03 	lds	r24, 0x03A1
    6b24:	81 30       	cpi	r24, 0x01	; 1
    6b26:	09 f0       	breq	.+2      	; 0x6b2a <main+0x298>
    6b28:	e6 c0       	rjmp	.+460    	; 0x6cf6 <main+0x464>
			{
				LCD_voidClearDisplay();
    6b2a:	0e 94 72 1c 	call	0x38e4	; 0x38e4 <LCD_voidClearDisplay>
				LDR_u8GetDigitalReading(LDR_u8ADC_CHANNEL4,&Local_u16LDRReading);
    6b2e:	9e 01       	movw	r18, r28
    6b30:	2b 5c       	subi	r18, 0xCB	; 203
    6b32:	3f 4f       	sbci	r19, 0xFF	; 255
    6b34:	84 e0       	ldi	r24, 0x04	; 4
    6b36:	b9 01       	movw	r22, r18
    6b38:	0e 94 98 1c 	call	0x3930	; 0x3930 <LDR_u8GetDigitalReading>
				Local_u8LEDsMappingNumber=MATH_s32Map(LDR_MIN_READING,LDR_MAX_READING,LDR_MIN_LEDsNumber,LDR_MAX_LEDsNumber,Local_u16LDRReading);
    6b3c:	8d a9       	ldd	r24, Y+53	; 0x35
    6b3e:	9e a9       	ldd	r25, Y+54	; 0x36
    6b40:	cc 01       	movw	r24, r24
    6b42:	a0 e0       	ldi	r26, 0x00	; 0
    6b44:	b0 e0       	ldi	r27, 0x00	; 0
    6b46:	00 d0       	rcall	.+0      	; 0x6b48 <main+0x2b6>
    6b48:	00 d0       	rcall	.+0      	; 0x6b4a <main+0x2b8>
    6b4a:	ed b7       	in	r30, 0x3d	; 61
    6b4c:	fe b7       	in	r31, 0x3e	; 62
    6b4e:	31 96       	adiw	r30, 0x01	; 1
    6b50:	80 83       	st	Z, r24
    6b52:	91 83       	std	Z+1, r25	; 0x01
    6b54:	a2 83       	std	Z+2, r26	; 0x02
    6b56:	b3 83       	std	Z+3, r27	; 0x03
    6b58:	60 e0       	ldi	r22, 0x00	; 0
    6b5a:	70 e0       	ldi	r23, 0x00	; 0
    6b5c:	80 e0       	ldi	r24, 0x00	; 0
    6b5e:	90 e0       	ldi	r25, 0x00	; 0
    6b60:	20 ef       	ldi	r18, 0xF0	; 240
    6b62:	30 e0       	ldi	r19, 0x00	; 0
    6b64:	40 e0       	ldi	r20, 0x00	; 0
    6b66:	50 e0       	ldi	r21, 0x00	; 0
    6b68:	ee 24       	eor	r14, r14
    6b6a:	ff 24       	eor	r15, r15
    6b6c:	87 01       	movw	r16, r14
    6b6e:	aa 24       	eor	r10, r10
    6b70:	bb 24       	eor	r11, r11
    6b72:	65 01       	movw	r12, r10
    6b74:	68 94       	set
    6b76:	a2 f8       	bld	r10, 2
    6b78:	0e 94 e7 1d 	call	0x3bce	; 0x3bce <MATH_s32Map>
    6b7c:	0f 90       	pop	r0
    6b7e:	0f 90       	pop	r0
    6b80:	0f 90       	pop	r0
    6b82:	0f 90       	pop	r0
    6b84:	dc 01       	movw	r26, r24
    6b86:	cb 01       	movw	r24, r22
    6b88:	8c a7       	std	Y+44, r24	; 0x2c
				Local_u8ONLEDsNumber=LDR_MAX_LEDsNumber-Local_u8LEDsMappingNumber;
    6b8a:	94 e0       	ldi	r25, 0x04	; 4
    6b8c:	8c a5       	ldd	r24, Y+44	; 0x2c
    6b8e:	f9 2f       	mov	r31, r25
    6b90:	f8 1b       	sub	r31, r24
    6b92:	8f 2f       	mov	r24, r31
    6b94:	8b a7       	std	Y+43, r24	; 0x2b
				DIO_u8SetPortValue(LDR_LEDs_PORT,DIO_u8PORT_LOW);
    6b96:	80 e0       	ldi	r24, 0x00	; 0
    6b98:	60 e0       	ldi	r22, 0x00	; 0
    6b9a:	0e 94 c4 14 	call	0x2988	; 0x2988 <DIO_u8SetPortValue>
				for(Local_u8Counter=0; Local_u8Counter<Local_u8ONLEDsNumber; Local_u8Counter++)
    6b9e:	10 92 aa 03 	sts	0x03AA, r1
    6ba2:	0c c0       	rjmp	.+24     	; 0x6bbc <main+0x32a>
				{
					DIO_u8SetPinValue(LDR_LEDs_PORT,Local_u8Counter,DIO_u8PIN_HIGH);
    6ba4:	90 91 aa 03 	lds	r25, 0x03AA
    6ba8:	80 e0       	ldi	r24, 0x00	; 0
    6baa:	69 2f       	mov	r22, r25
    6bac:	41 e0       	ldi	r20, 0x01	; 1
    6bae:	0e 94 b2 13 	call	0x2764	; 0x2764 <DIO_u8SetPinValue>
				LCD_voidClearDisplay();
				LDR_u8GetDigitalReading(LDR_u8ADC_CHANNEL4,&Local_u16LDRReading);
				Local_u8LEDsMappingNumber=MATH_s32Map(LDR_MIN_READING,LDR_MAX_READING,LDR_MIN_LEDsNumber,LDR_MAX_LEDsNumber,Local_u16LDRReading);
				Local_u8ONLEDsNumber=LDR_MAX_LEDsNumber-Local_u8LEDsMappingNumber;
				DIO_u8SetPortValue(LDR_LEDs_PORT,DIO_u8PORT_LOW);
				for(Local_u8Counter=0; Local_u8Counter<Local_u8ONLEDsNumber; Local_u8Counter++)
    6bb2:	80 91 aa 03 	lds	r24, 0x03AA
    6bb6:	8f 5f       	subi	r24, 0xFF	; 255
    6bb8:	80 93 aa 03 	sts	0x03AA, r24
    6bbc:	90 91 aa 03 	lds	r25, 0x03AA
    6bc0:	8b a5       	ldd	r24, Y+43	; 0x2b
    6bc2:	98 17       	cp	r25, r24
    6bc4:	78 f3       	brcs	.-34     	; 0x6ba4 <main+0x312>
				{
					DIO_u8SetPinValue(LDR_LEDs_PORT,Local_u8Counter,DIO_u8PIN_HIGH);
				}
				/*Display the Digital value of ADC reading on LCD*/
				LCD_voidSendString2("ADC Reading:");
    6bc6:	83 e5       	ldi	r24, 0x53	; 83
    6bc8:	91 e0       	ldi	r25, 0x01	; 1
    6bca:	0e 94 7c 1c 	call	0x38f8	; 0x38f8 <LCD_voidSendString2>
				LCD_voidPositionSet(0,12);
    6bce:	80 e0       	ldi	r24, 0x00	; 0
    6bd0:	6c e0       	ldi	r22, 0x0C	; 12
    6bd2:	0e 94 2b 1b 	call	0x3656	; 0x3656 <LCD_voidPositionSet>
				LCD_voidSendNumber(Local_u16LDRReading);
    6bd6:	8d a9       	ldd	r24, Y+53	; 0x35
    6bd8:	9e a9       	ldd	r25, Y+54	; 0x36
    6bda:	cc 01       	movw	r24, r24
    6bdc:	a0 e0       	ldi	r26, 0x00	; 0
    6bde:	b0 e0       	ldi	r27, 0x00	; 0
    6be0:	bc 01       	movw	r22, r24
    6be2:	cd 01       	movw	r24, r26
    6be4:	0e 94 89 1b 	call	0x3712	; 0x3712 <LCD_voidSendNumber>
				LCD_voidPositionSet(1,0);
    6be8:	81 e0       	ldi	r24, 0x01	; 1
    6bea:	60 e0       	ldi	r22, 0x00	; 0
    6bec:	0e 94 2b 1b 	call	0x3656	; 0x3656 <LCD_voidPositionSet>
				LCD_voidSendString2("ON LEDs:");
    6bf0:	80 e6       	ldi	r24, 0x60	; 96
    6bf2:	91 e0       	ldi	r25, 0x01	; 1
    6bf4:	0e 94 7c 1c 	call	0x38f8	; 0x38f8 <LCD_voidSendString2>
				LCD_voidPositionSet(1,12);
    6bf8:	81 e0       	ldi	r24, 0x01	; 1
    6bfa:	6c e0       	ldi	r22, 0x0C	; 12
    6bfc:	0e 94 2b 1b 	call	0x3656	; 0x3656 <LCD_voidPositionSet>
				LCD_voidSendNumber(Local_u8ONLEDsNumber);
    6c00:	8b a5       	ldd	r24, Y+43	; 0x2b
    6c02:	88 2f       	mov	r24, r24
    6c04:	90 e0       	ldi	r25, 0x00	; 0
    6c06:	a0 e0       	ldi	r26, 0x00	; 0
    6c08:	b0 e0       	ldi	r27, 0x00	; 0
    6c0a:	bc 01       	movw	r22, r24
    6c0c:	cd 01       	movw	r24, r26
    6c0e:	0e 94 89 1b 	call	0x3712	; 0x3712 <LCD_voidSendNumber>
    6c12:	80 e0       	ldi	r24, 0x00	; 0
    6c14:	90 e0       	ldi	r25, 0x00	; 0
    6c16:	aa ef       	ldi	r26, 0xFA	; 250
    6c18:	b3 e4       	ldi	r27, 0x43	; 67
    6c1a:	89 8f       	std	Y+25, r24	; 0x19
    6c1c:	9a 8f       	std	Y+26, r25	; 0x1a
    6c1e:	ab 8f       	std	Y+27, r26	; 0x1b
    6c20:	bc 8f       	std	Y+28, r27	; 0x1c
 */
void
_delay_ms(double __ms)
{
	uint16_t __ticks;
	double __tmp = ((F_CPU) / 4e3) * __ms;
    6c22:	69 8d       	ldd	r22, Y+25	; 0x19
    6c24:	7a 8d       	ldd	r23, Y+26	; 0x1a
    6c26:	8b 8d       	ldd	r24, Y+27	; 0x1b
    6c28:	9c 8d       	ldd	r25, Y+28	; 0x1c
    6c2a:	20 e0       	ldi	r18, 0x00	; 0
    6c2c:	30 e0       	ldi	r19, 0x00	; 0
    6c2e:	4a ef       	ldi	r20, 0xFA	; 250
    6c30:	54 e4       	ldi	r21, 0x44	; 68
    6c32:	0e 94 1f 02 	call	0x43e	; 0x43e <__mulsf3>
    6c36:	dc 01       	movw	r26, r24
    6c38:	cb 01       	movw	r24, r22
    6c3a:	8d 8b       	std	Y+21, r24	; 0x15
    6c3c:	9e 8b       	std	Y+22, r25	; 0x16
    6c3e:	af 8b       	std	Y+23, r26	; 0x17
    6c40:	b8 8f       	std	Y+24, r27	; 0x18
	if (__tmp < 1.0)
    6c42:	6d 89       	ldd	r22, Y+21	; 0x15
    6c44:	7e 89       	ldd	r23, Y+22	; 0x16
    6c46:	8f 89       	ldd	r24, Y+23	; 0x17
    6c48:	98 8d       	ldd	r25, Y+24	; 0x18
    6c4a:	20 e0       	ldi	r18, 0x00	; 0
    6c4c:	30 e0       	ldi	r19, 0x00	; 0
    6c4e:	40 e8       	ldi	r20, 0x80	; 128
    6c50:	5f e3       	ldi	r21, 0x3F	; 63
    6c52:	0e 94 25 04 	call	0x84a	; 0x84a <__ltsf2>
    6c56:	88 23       	and	r24, r24
    6c58:	2c f4       	brge	.+10     	; 0x6c64 <main+0x3d2>
		__ticks = 1;
    6c5a:	81 e0       	ldi	r24, 0x01	; 1
    6c5c:	90 e0       	ldi	r25, 0x00	; 0
    6c5e:	9c 8b       	std	Y+20, r25	; 0x14
    6c60:	8b 8b       	std	Y+19, r24	; 0x13
    6c62:	3f c0       	rjmp	.+126    	; 0x6ce2 <main+0x450>
	else if (__tmp > 65535)
    6c64:	6d 89       	ldd	r22, Y+21	; 0x15
    6c66:	7e 89       	ldd	r23, Y+22	; 0x16
    6c68:	8f 89       	ldd	r24, Y+23	; 0x17
    6c6a:	98 8d       	ldd	r25, Y+24	; 0x18
    6c6c:	20 e0       	ldi	r18, 0x00	; 0
    6c6e:	3f ef       	ldi	r19, 0xFF	; 255
    6c70:	4f e7       	ldi	r20, 0x7F	; 127
    6c72:	57 e4       	ldi	r21, 0x47	; 71
    6c74:	0e 94 c5 03 	call	0x78a	; 0x78a <__gtsf2>
    6c78:	18 16       	cp	r1, r24
    6c7a:	4c f5       	brge	.+82     	; 0x6cce <main+0x43c>
	{
		//	__ticks = requested delay in 1/10 ms
		__ticks = (uint16_t) (__ms * 10.0);
    6c7c:	69 8d       	ldd	r22, Y+25	; 0x19
    6c7e:	7a 8d       	ldd	r23, Y+26	; 0x1a
    6c80:	8b 8d       	ldd	r24, Y+27	; 0x1b
    6c82:	9c 8d       	ldd	r25, Y+28	; 0x1c
    6c84:	20 e0       	ldi	r18, 0x00	; 0
    6c86:	30 e0       	ldi	r19, 0x00	; 0
    6c88:	40 e2       	ldi	r20, 0x20	; 32
    6c8a:	51 e4       	ldi	r21, 0x41	; 65
    6c8c:	0e 94 1f 02 	call	0x43e	; 0x43e <__mulsf3>
    6c90:	dc 01       	movw	r26, r24
    6c92:	cb 01       	movw	r24, r22
    6c94:	bc 01       	movw	r22, r24
    6c96:	cd 01       	movw	r24, r26
    6c98:	0e 94 49 00 	call	0x92	; 0x92 <__fixunssfsi>
    6c9c:	dc 01       	movw	r26, r24
    6c9e:	cb 01       	movw	r24, r22
    6ca0:	9c 8b       	std	Y+20, r25	; 0x14
    6ca2:	8b 8b       	std	Y+19, r24	; 0x13
    6ca4:	0f c0       	rjmp	.+30     	; 0x6cc4 <main+0x432>
    6ca6:	88 ec       	ldi	r24, 0xC8	; 200
    6ca8:	90 e0       	ldi	r25, 0x00	; 0
    6caa:	9a 8b       	std	Y+18, r25	; 0x12
    6cac:	89 8b       	std	Y+17, r24	; 0x11
    6cae:	89 89       	ldd	r24, Y+17	; 0x11
    6cb0:	9a 89       	ldd	r25, Y+18	; 0x12
    6cb2:	01 97       	sbiw	r24, 0x01	; 1
    6cb4:	f1 f7       	brne	.-4      	; 0x6cb2 <main+0x420>
    6cb6:	9a 8b       	std	Y+18, r25	; 0x12
    6cb8:	89 8b       	std	Y+17, r24	; 0x11
		while(__ticks)
		{
			// wait 1/10 ms
			_delay_loop_2(((F_CPU) / 4e3) / 10);
			__ticks --;
    6cba:	8b 89       	ldd	r24, Y+19	; 0x13
    6cbc:	9c 89       	ldd	r25, Y+20	; 0x14
    6cbe:	01 97       	sbiw	r24, 0x01	; 1
    6cc0:	9c 8b       	std	Y+20, r25	; 0x14
    6cc2:	8b 8b       	std	Y+19, r24	; 0x13
		__ticks = 1;
	else if (__tmp > 65535)
	{
		//	__ticks = requested delay in 1/10 ms
		__ticks = (uint16_t) (__ms * 10.0);
		while(__ticks)
    6cc4:	8b 89       	ldd	r24, Y+19	; 0x13
    6cc6:	9c 89       	ldd	r25, Y+20	; 0x14
    6cc8:	00 97       	sbiw	r24, 0x00	; 0
    6cca:	69 f7       	brne	.-38     	; 0x6ca6 <main+0x414>
    6ccc:	14 c0       	rjmp	.+40     	; 0x6cf6 <main+0x464>
			__ticks --;
		}
		return;
	}
	else
		__ticks = (uint16_t)__tmp;
    6cce:	6d 89       	ldd	r22, Y+21	; 0x15
    6cd0:	7e 89       	ldd	r23, Y+22	; 0x16
    6cd2:	8f 89       	ldd	r24, Y+23	; 0x17
    6cd4:	98 8d       	ldd	r25, Y+24	; 0x18
    6cd6:	0e 94 49 00 	call	0x92	; 0x92 <__fixunssfsi>
    6cda:	dc 01       	movw	r26, r24
    6cdc:	cb 01       	movw	r24, r22
    6cde:	9c 8b       	std	Y+20, r25	; 0x14
    6ce0:	8b 8b       	std	Y+19, r24	; 0x13
    6ce2:	8b 89       	ldd	r24, Y+19	; 0x13
    6ce4:	9c 89       	ldd	r25, Y+20	; 0x14
    6ce6:	98 8b       	std	Y+16, r25	; 0x10
    6ce8:	8f 87       	std	Y+15, r24	; 0x0f
    6cea:	8f 85       	ldd	r24, Y+15	; 0x0f
    6cec:	98 89       	ldd	r25, Y+16	; 0x10
    6cee:	01 97       	sbiw	r24, 0x01	; 1
    6cf0:	f1 f7       	brne	.-4      	; 0x6cee <main+0x45c>
    6cf2:	98 8b       	std	Y+16, r25	; 0x10
    6cf4:	8f 87       	std	Y+15, r24	; 0x0f
				_delay_ms(500);
			}
			/*************************************************************************************************************************/
			if(Main_u8ControlFan==OPENED)
    6cf6:	80 91 a2 03 	lds	r24, 0x03A2
    6cfa:	81 30       	cpi	r24, 0x01	; 1
    6cfc:	09 f0       	breq	.+2      	; 0x6d00 <main+0x46e>
    6cfe:	da c0       	rjmp	.+436    	; 0x6eb4 <main+0x622>
			{
				TIMER0_u8Init(&Timer0);
    6d00:	ce 01       	movw	r24, r28
    6d02:	c9 96       	adiw	r24, 0x39	; 57
    6d04:	0e 94 3e 21 	call	0x427c	; 0x427c <TIMER0_u8Init>
				ULTSONIC_u8MeasureDistance(&Local_stUltsonic, &Local_u16Distance);
    6d08:	ce 01       	movw	r24, r28
    6d0a:	c7 96       	adiw	r24, 0x37	; 55
    6d0c:	9e 01       	movw	r18, r28
    6d0e:	2d 5c       	subi	r18, 0xCD	; 205
    6d10:	3f 4f       	sbci	r19, 0xFF	; 255
    6d12:	b9 01       	movw	r22, r18
    6d14:	0e 94 53 2e 	call	0x5ca6	; 0x5ca6 <ULTSONIC_u8MeasureDistance>
				Main_u8MotorSpeed=MATH_s32Map(0,160,3,100,Local_u16Distance);
    6d18:	8b a9       	ldd	r24, Y+51	; 0x33
    6d1a:	9c a9       	ldd	r25, Y+52	; 0x34
    6d1c:	cc 01       	movw	r24, r24
    6d1e:	a0 e0       	ldi	r26, 0x00	; 0
    6d20:	b0 e0       	ldi	r27, 0x00	; 0
    6d22:	00 d0       	rcall	.+0      	; 0x6d24 <main+0x492>
    6d24:	00 d0       	rcall	.+0      	; 0x6d26 <main+0x494>
    6d26:	ed b7       	in	r30, 0x3d	; 61
    6d28:	fe b7       	in	r31, 0x3e	; 62
    6d2a:	31 96       	adiw	r30, 0x01	; 1
    6d2c:	80 83       	st	Z, r24
    6d2e:	91 83       	std	Z+1, r25	; 0x01
    6d30:	a2 83       	std	Z+2, r26	; 0x02
    6d32:	b3 83       	std	Z+3, r27	; 0x03
    6d34:	60 e0       	ldi	r22, 0x00	; 0
    6d36:	70 e0       	ldi	r23, 0x00	; 0
    6d38:	80 e0       	ldi	r24, 0x00	; 0
    6d3a:	90 e0       	ldi	r25, 0x00	; 0
    6d3c:	20 ea       	ldi	r18, 0xA0	; 160
    6d3e:	30 e0       	ldi	r19, 0x00	; 0
    6d40:	40 e0       	ldi	r20, 0x00	; 0
    6d42:	50 e0       	ldi	r21, 0x00	; 0
    6d44:	0f 2e       	mov	r0, r31
    6d46:	f3 e0       	ldi	r31, 0x03	; 3
    6d48:	ef 2e       	mov	r14, r31
    6d4a:	f0 e0       	ldi	r31, 0x00	; 0
    6d4c:	ff 2e       	mov	r15, r31
    6d4e:	f0 e0       	ldi	r31, 0x00	; 0
    6d50:	0f 2f       	mov	r16, r31
    6d52:	f0 e0       	ldi	r31, 0x00	; 0
    6d54:	1f 2f       	mov	r17, r31
    6d56:	f0 2d       	mov	r31, r0
    6d58:	0f 2e       	mov	r0, r31
    6d5a:	f4 e6       	ldi	r31, 0x64	; 100
    6d5c:	af 2e       	mov	r10, r31
    6d5e:	f0 e0       	ldi	r31, 0x00	; 0
    6d60:	bf 2e       	mov	r11, r31
    6d62:	f0 e0       	ldi	r31, 0x00	; 0
    6d64:	cf 2e       	mov	r12, r31
    6d66:	f0 e0       	ldi	r31, 0x00	; 0
    6d68:	df 2e       	mov	r13, r31
    6d6a:	f0 2d       	mov	r31, r0
    6d6c:	0e 94 e7 1d 	call	0x3bce	; 0x3bce <MATH_s32Map>
    6d70:	0f 90       	pop	r0
    6d72:	0f 90       	pop	r0
    6d74:	0f 90       	pop	r0
    6d76:	0f 90       	pop	r0
    6d78:	dc 01       	movw	r26, r24
    6d7a:	cb 01       	movw	r24, r22
    6d7c:	80 93 a9 03 	sts	0x03A9, r24

				LCD_voidClearDisplay();
    6d80:	0e 94 72 1c 	call	0x38e4	; 0x38e4 <LCD_voidClearDisplay>
				LCD_voidSendString2("Distance: ");
    6d84:	89 e6       	ldi	r24, 0x69	; 105
    6d86:	91 e0       	ldi	r25, 0x01	; 1
    6d88:	0e 94 7c 1c 	call	0x38f8	; 0x38f8 <LCD_voidSendString2>
				LCD_voidSendNumber(Local_u16Distance);
    6d8c:	8b a9       	ldd	r24, Y+51	; 0x33
    6d8e:	9c a9       	ldd	r25, Y+52	; 0x34
    6d90:	cc 01       	movw	r24, r24
    6d92:	a0 e0       	ldi	r26, 0x00	; 0
    6d94:	b0 e0       	ldi	r27, 0x00	; 0
    6d96:	bc 01       	movw	r22, r24
    6d98:	cd 01       	movw	r24, r26
    6d9a:	0e 94 89 1b 	call	0x3712	; 0x3712 <LCD_voidSendNumber>
				LCD_voidSendString2("cm");
    6d9e:	84 e7       	ldi	r24, 0x74	; 116
    6da0:	91 e0       	ldi	r25, 0x01	; 1
    6da2:	0e 94 7c 1c 	call	0x38f8	; 0x38f8 <LCD_voidSendString2>
				LCD_voidPositionSet(1,0);
    6da6:	81 e0       	ldi	r24, 0x01	; 1
    6da8:	60 e0       	ldi	r22, 0x00	; 0
    6daa:	0e 94 2b 1b 	call	0x3656	; 0x3656 <LCD_voidPositionSet>
				LCD_voidSendString2("Motor Speed: ");
    6dae:	87 e7       	ldi	r24, 0x77	; 119
    6db0:	91 e0       	ldi	r25, 0x01	; 1
    6db2:	0e 94 7c 1c 	call	0x38f8	; 0x38f8 <LCD_voidSendString2>
				LCD_voidSendNumber(Main_u8MotorSpeed);
    6db6:	80 91 a9 03 	lds	r24, 0x03A9
    6dba:	88 2f       	mov	r24, r24
    6dbc:	90 e0       	ldi	r25, 0x00	; 0
    6dbe:	a0 e0       	ldi	r26, 0x00	; 0
    6dc0:	b0 e0       	ldi	r27, 0x00	; 0
    6dc2:	bc 01       	movw	r22, r24
    6dc4:	cd 01       	movw	r24, r26
    6dc6:	0e 94 89 1b 	call	0x3712	; 0x3712 <LCD_voidSendNumber>
				LCD_voidSendData('%');
    6dca:	85 e2       	ldi	r24, 0x25	; 37
    6dcc:	0e 94 0a 1a 	call	0x3414	; 0x3414 <LCD_voidSendData>
    6dd0:	80 e0       	ldi	r24, 0x00	; 0
    6dd2:	90 e0       	ldi	r25, 0x00	; 0
    6dd4:	a6 e9       	ldi	r26, 0x96	; 150
    6dd6:	b3 e4       	ldi	r27, 0x43	; 67
    6dd8:	8b 87       	std	Y+11, r24	; 0x0b
    6dda:	9c 87       	std	Y+12, r25	; 0x0c
    6ddc:	ad 87       	std	Y+13, r26	; 0x0d
    6dde:	be 87       	std	Y+14, r27	; 0x0e
 */
void
_delay_ms(double __ms)
{
	uint16_t __ticks;
	double __tmp = ((F_CPU) / 4e3) * __ms;
    6de0:	6b 85       	ldd	r22, Y+11	; 0x0b
    6de2:	7c 85       	ldd	r23, Y+12	; 0x0c
    6de4:	8d 85       	ldd	r24, Y+13	; 0x0d
    6de6:	9e 85       	ldd	r25, Y+14	; 0x0e
    6de8:	20 e0       	ldi	r18, 0x00	; 0
    6dea:	30 e0       	ldi	r19, 0x00	; 0
    6dec:	4a ef       	ldi	r20, 0xFA	; 250
    6dee:	54 e4       	ldi	r21, 0x44	; 68
    6df0:	0e 94 1f 02 	call	0x43e	; 0x43e <__mulsf3>
    6df4:	dc 01       	movw	r26, r24
    6df6:	cb 01       	movw	r24, r22
    6df8:	8f 83       	std	Y+7, r24	; 0x07
    6dfa:	98 87       	std	Y+8, r25	; 0x08
    6dfc:	a9 87       	std	Y+9, r26	; 0x09
    6dfe:	ba 87       	std	Y+10, r27	; 0x0a
	if (__tmp < 1.0)
    6e00:	6f 81       	ldd	r22, Y+7	; 0x07
    6e02:	78 85       	ldd	r23, Y+8	; 0x08
    6e04:	89 85       	ldd	r24, Y+9	; 0x09
    6e06:	9a 85       	ldd	r25, Y+10	; 0x0a
    6e08:	20 e0       	ldi	r18, 0x00	; 0
    6e0a:	30 e0       	ldi	r19, 0x00	; 0
    6e0c:	40 e8       	ldi	r20, 0x80	; 128
    6e0e:	5f e3       	ldi	r21, 0x3F	; 63
    6e10:	0e 94 25 04 	call	0x84a	; 0x84a <__ltsf2>
    6e14:	88 23       	and	r24, r24
    6e16:	2c f4       	brge	.+10     	; 0x6e22 <main+0x590>
		__ticks = 1;
    6e18:	81 e0       	ldi	r24, 0x01	; 1
    6e1a:	90 e0       	ldi	r25, 0x00	; 0
    6e1c:	9e 83       	std	Y+6, r25	; 0x06
    6e1e:	8d 83       	std	Y+5, r24	; 0x05
    6e20:	3f c0       	rjmp	.+126    	; 0x6ea0 <main+0x60e>
	else if (__tmp > 65535)
    6e22:	6f 81       	ldd	r22, Y+7	; 0x07
    6e24:	78 85       	ldd	r23, Y+8	; 0x08
    6e26:	89 85       	ldd	r24, Y+9	; 0x09
    6e28:	9a 85       	ldd	r25, Y+10	; 0x0a
    6e2a:	20 e0       	ldi	r18, 0x00	; 0
    6e2c:	3f ef       	ldi	r19, 0xFF	; 255
    6e2e:	4f e7       	ldi	r20, 0x7F	; 127
    6e30:	57 e4       	ldi	r21, 0x47	; 71
    6e32:	0e 94 c5 03 	call	0x78a	; 0x78a <__gtsf2>
    6e36:	18 16       	cp	r1, r24
    6e38:	4c f5       	brge	.+82     	; 0x6e8c <main+0x5fa>
	{
		//	__ticks = requested delay in 1/10 ms
		__ticks = (uint16_t) (__ms * 10.0);
    6e3a:	6b 85       	ldd	r22, Y+11	; 0x0b
    6e3c:	7c 85       	ldd	r23, Y+12	; 0x0c
    6e3e:	8d 85       	ldd	r24, Y+13	; 0x0d
    6e40:	9e 85       	ldd	r25, Y+14	; 0x0e
    6e42:	20 e0       	ldi	r18, 0x00	; 0
    6e44:	30 e0       	ldi	r19, 0x00	; 0
    6e46:	40 e2       	ldi	r20, 0x20	; 32
    6e48:	51 e4       	ldi	r21, 0x41	; 65
    6e4a:	0e 94 1f 02 	call	0x43e	; 0x43e <__mulsf3>
    6e4e:	dc 01       	movw	r26, r24
    6e50:	cb 01       	movw	r24, r22
    6e52:	bc 01       	movw	r22, r24
    6e54:	cd 01       	movw	r24, r26
    6e56:	0e 94 49 00 	call	0x92	; 0x92 <__fixunssfsi>
    6e5a:	dc 01       	movw	r26, r24
    6e5c:	cb 01       	movw	r24, r22
    6e5e:	9e 83       	std	Y+6, r25	; 0x06
    6e60:	8d 83       	std	Y+5, r24	; 0x05
    6e62:	0f c0       	rjmp	.+30     	; 0x6e82 <main+0x5f0>
    6e64:	88 ec       	ldi	r24, 0xC8	; 200
    6e66:	90 e0       	ldi	r25, 0x00	; 0
    6e68:	9c 83       	std	Y+4, r25	; 0x04
    6e6a:	8b 83       	std	Y+3, r24	; 0x03
    6e6c:	8b 81       	ldd	r24, Y+3	; 0x03
    6e6e:	9c 81       	ldd	r25, Y+4	; 0x04
    6e70:	01 97       	sbiw	r24, 0x01	; 1
    6e72:	f1 f7       	brne	.-4      	; 0x6e70 <main+0x5de>
    6e74:	9c 83       	std	Y+4, r25	; 0x04
    6e76:	8b 83       	std	Y+3, r24	; 0x03
		while(__ticks)
		{
			// wait 1/10 ms
			_delay_loop_2(((F_CPU) / 4e3) / 10);
			__ticks --;
    6e78:	8d 81       	ldd	r24, Y+5	; 0x05
    6e7a:	9e 81       	ldd	r25, Y+6	; 0x06
    6e7c:	01 97       	sbiw	r24, 0x01	; 1
    6e7e:	9e 83       	std	Y+6, r25	; 0x06
    6e80:	8d 83       	std	Y+5, r24	; 0x05
		__ticks = 1;
	else if (__tmp > 65535)
	{
		//	__ticks = requested delay in 1/10 ms
		__ticks = (uint16_t) (__ms * 10.0);
		while(__ticks)
    6e82:	8d 81       	ldd	r24, Y+5	; 0x05
    6e84:	9e 81       	ldd	r25, Y+6	; 0x06
    6e86:	00 97       	sbiw	r24, 0x00	; 0
    6e88:	69 f7       	brne	.-38     	; 0x6e64 <main+0x5d2>
    6e8a:	14 c0       	rjmp	.+40     	; 0x6eb4 <main+0x622>
			__ticks --;
		}
		return;
	}
	else
		__ticks = (uint16_t)__tmp;
    6e8c:	6f 81       	ldd	r22, Y+7	; 0x07
    6e8e:	78 85       	ldd	r23, Y+8	; 0x08
    6e90:	89 85       	ldd	r24, Y+9	; 0x09
    6e92:	9a 85       	ldd	r25, Y+10	; 0x0a
    6e94:	0e 94 49 00 	call	0x92	; 0x92 <__fixunssfsi>
    6e98:	dc 01       	movw	r26, r24
    6e9a:	cb 01       	movw	r24, r22
    6e9c:	9e 83       	std	Y+6, r25	; 0x06
    6e9e:	8d 83       	std	Y+5, r24	; 0x05
    6ea0:	8d 81       	ldd	r24, Y+5	; 0x05
    6ea2:	9e 81       	ldd	r25, Y+6	; 0x06
    6ea4:	9a 83       	std	Y+2, r25	; 0x02
    6ea6:	89 83       	std	Y+1, r24	; 0x01
    6ea8:	89 81       	ldd	r24, Y+1	; 0x01
    6eaa:	9a 81       	ldd	r25, Y+2	; 0x02
    6eac:	01 97       	sbiw	r24, 0x01	; 1
    6eae:	f1 f7       	brne	.-4      	; 0x6eac <main+0x61a>
    6eb0:	9a 83       	std	Y+2, r25	; 0x02
    6eb2:	89 83       	std	Y+1, r24	; 0x01
				_delay_ms(300);
			}
			/*************************************************************************************************************************/
			if(Main_u8FanFlag==OPENED && Main_u8FanState==ON)
    6eb4:	80 91 a4 03 	lds	r24, 0x03A4
    6eb8:	81 30       	cpi	r24, 0x01	; 1
    6eba:	49 f4       	brne	.+18     	; 0x6ece <main+0x63c>
    6ebc:	80 91 a5 03 	lds	r24, 0x03A5
    6ec0:	82 30       	cpi	r24, 0x02	; 2
    6ec2:	29 f4       	brne	.+10     	; 0x6ece <main+0x63c>
			{
				DIO_u8SetPinValue(FAN_PORT,FAN_PIN,DIO_u8PIN_HIGH);
    6ec4:	80 e0       	ldi	r24, 0x00	; 0
    6ec6:	66 e0       	ldi	r22, 0x06	; 6
    6ec8:	41 e0       	ldi	r20, 0x01	; 1
    6eca:	0e 94 b2 13 	call	0x2764	; 0x2764 <DIO_u8SetPinValue>
			}
			/*************************************************************************************************************************/

			if(Main_u8FanFlag==OPENED  && Main_u8FanState==OFF)
    6ece:	80 91 a4 03 	lds	r24, 0x03A4
    6ed2:	81 30       	cpi	r24, 0x01	; 1
    6ed4:	09 f0       	breq	.+2      	; 0x6ed8 <main+0x646>
    6ed6:	08 ce       	rjmp	.-1008   	; 0x6ae8 <main+0x256>
    6ed8:	80 91 a5 03 	lds	r24, 0x03A5
    6edc:	83 30       	cpi	r24, 0x03	; 3
    6ede:	09 f0       	breq	.+2      	; 0x6ee2 <main+0x650>
    6ee0:	03 ce       	rjmp	.-1018   	; 0x6ae8 <main+0x256>
			{
				DIO_u8SetPinValue(FAN_PORT,FAN_PIN,DIO_u8PIN_LOW);
    6ee2:	80 e0       	ldi	r24, 0x00	; 0
    6ee4:	66 e0       	ldi	r22, 0x06	; 6
    6ee6:	40 e0       	ldi	r20, 0x00	; 0
    6ee8:	0e 94 b2 13 	call	0x2764	; 0x2764 <DIO_u8SetPinValue>
    6eec:	fd cd       	rjmp	.-1030   	; 0x6ae8 <main+0x256>
	}
	else
	{

	}
}
    6eee:	c9 5b       	subi	r28, 0xB9	; 185
    6ef0:	df 4f       	sbci	r29, 0xFF	; 255
    6ef2:	0f b6       	in	r0, 0x3f	; 63
    6ef4:	f8 94       	cli
    6ef6:	de bf       	out	0x3e, r29	; 62
    6ef8:	0f be       	out	0x3f, r0	; 63
    6efa:	cd bf       	out	0x3d, r28	; 61
    6efc:	cf 91       	pop	r28
    6efe:	df 91       	pop	r29
    6f00:	1f 91       	pop	r17
    6f02:	0f 91       	pop	r16
    6f04:	ff 90       	pop	r15
    6f06:	ef 90       	pop	r14
    6f08:	df 90       	pop	r13
    6f0a:	cf 90       	pop	r12
    6f0c:	bf 90       	pop	r11
    6f0e:	af 90       	pop	r10
    6f10:	08 95       	ret

00006f12 <APP_voidMainMenu>:

void APP_voidMainMenu()
{
    6f12:	0f 93       	push	r16
    6f14:	1f 93       	push	r17
    6f16:	df 93       	push	r29
    6f18:	cf 93       	push	r28
    6f1a:	cd b7       	in	r28, 0x3d	; 61
    6f1c:	de b7       	in	r29, 0x3e	; 62
    6f1e:	c6 55       	subi	r28, 0x56	; 86
    6f20:	d0 40       	sbci	r29, 0x00	; 0
    6f22:	0f b6       	in	r0, 0x3f	; 63
    6f24:	f8 94       	cli
    6f26:	de bf       	out	0x3e, r29	; 62
    6f28:	0f be       	out	0x3f, r0	; 63
    6f2a:	cd bf       	out	0x3d, r28	; 61
	switch(ReceivedData)
    6f2c:	80 91 a7 03 	lds	r24, 0x03A7
    6f30:	90 91 a8 03 	lds	r25, 0x03A8
    6f34:	67 96       	adiw	r28, 0x17	; 23
    6f36:	9f af       	std	Y+63, r25	; 0x3f
    6f38:	8e af       	std	Y+62, r24	; 0x3e
    6f3a:	67 97       	sbiw	r28, 0x17	; 23
    6f3c:	67 96       	adiw	r28, 0x17	; 23
    6f3e:	ee ad       	ldd	r30, Y+62	; 0x3e
    6f40:	ff ad       	ldd	r31, Y+63	; 0x3f
    6f42:	67 97       	sbiw	r28, 0x17	; 23
    6f44:	e5 33       	cpi	r30, 0x35	; 53
    6f46:	f1 05       	cpc	r31, r1
    6f48:	09 f4       	brne	.+2      	; 0x6f4c <APP_voidMainMenu+0x3a>
    6f4a:	54 c0       	rjmp	.+168    	; 0x6ff4 <APP_voidMainMenu+0xe2>
    6f4c:	67 96       	adiw	r28, 0x17	; 23
    6f4e:	8e ad       	ldd	r24, Y+62	; 0x3e
    6f50:	9f ad       	ldd	r25, Y+63	; 0x3f
    6f52:	67 97       	sbiw	r28, 0x17	; 23
    6f54:	86 33       	cpi	r24, 0x36	; 54
    6f56:	91 05       	cpc	r25, r1
    6f58:	38 f5       	brcc	.+78     	; 0x6fa8 <APP_voidMainMenu+0x96>
    6f5a:	67 96       	adiw	r28, 0x17	; 23
    6f5c:	ee ad       	ldd	r30, Y+62	; 0x3e
    6f5e:	ff ad       	ldd	r31, Y+63	; 0x3f
    6f60:	67 97       	sbiw	r28, 0x17	; 23
    6f62:	e2 33       	cpi	r30, 0x32	; 50
    6f64:	f1 05       	cpc	r31, r1
    6f66:	09 f4       	brne	.+2      	; 0x6f6a <APP_voidMainMenu+0x58>
    6f68:	59 c0       	rjmp	.+178    	; 0x701c <APP_voidMainMenu+0x10a>
    6f6a:	67 96       	adiw	r28, 0x17	; 23
    6f6c:	8e ad       	ldd	r24, Y+62	; 0x3e
    6f6e:	9f ad       	ldd	r25, Y+63	; 0x3f
    6f70:	67 97       	sbiw	r28, 0x17	; 23
    6f72:	83 33       	cpi	r24, 0x33	; 51
    6f74:	91 05       	cpc	r25, r1
    6f76:	48 f4       	brcc	.+18     	; 0x6f8a <APP_voidMainMenu+0x78>
    6f78:	67 96       	adiw	r28, 0x17	; 23
    6f7a:	ee ad       	ldd	r30, Y+62	; 0x3e
    6f7c:	ff ad       	ldd	r31, Y+63	; 0x3f
    6f7e:	67 97       	sbiw	r28, 0x17	; 23
    6f80:	e1 33       	cpi	r30, 0x31	; 49
    6f82:	f1 05       	cpc	r31, r1
    6f84:	09 f4       	brne	.+2      	; 0x6f88 <APP_voidMainMenu+0x76>
    6f86:	45 c0       	rjmp	.+138    	; 0x7012 <APP_voidMainMenu+0x100>
    6f88:	df c3       	rjmp	.+1982   	; 0x7748 <APP_voidMainMenu+0x836>
    6f8a:	67 96       	adiw	r28, 0x17	; 23
    6f8c:	8e ad       	ldd	r24, Y+62	; 0x3e
    6f8e:	9f ad       	ldd	r25, Y+63	; 0x3f
    6f90:	67 97       	sbiw	r28, 0x17	; 23
    6f92:	83 33       	cpi	r24, 0x33	; 51
    6f94:	91 05       	cpc	r25, r1
    6f96:	39 f1       	breq	.+78     	; 0x6fe6 <APP_voidMainMenu+0xd4>
    6f98:	67 96       	adiw	r28, 0x17	; 23
    6f9a:	ee ad       	ldd	r30, Y+62	; 0x3e
    6f9c:	ff ad       	ldd	r31, Y+63	; 0x3f
    6f9e:	67 97       	sbiw	r28, 0x17	; 23
    6fa0:	e4 33       	cpi	r30, 0x34	; 52
    6fa2:	f1 05       	cpc	r31, r1
    6fa4:	71 f1       	breq	.+92     	; 0x7002 <APP_voidMainMenu+0xf0>
    6fa6:	d0 c3       	rjmp	.+1952   	; 0x7748 <APP_voidMainMenu+0x836>
    6fa8:	67 96       	adiw	r28, 0x17	; 23
    6faa:	8e ad       	ldd	r24, Y+62	; 0x3e
    6fac:	9f ad       	ldd	r25, Y+63	; 0x3f
    6fae:	67 97       	sbiw	r28, 0x17	; 23
    6fb0:	87 33       	cpi	r24, 0x37	; 55
    6fb2:	91 05       	cpc	r25, r1
    6fb4:	c1 f1       	breq	.+112    	; 0x7026 <APP_voidMainMenu+0x114>
    6fb6:	67 96       	adiw	r28, 0x17	; 23
    6fb8:	ee ad       	ldd	r30, Y+62	; 0x3e
    6fba:	ff ad       	ldd	r31, Y+63	; 0x3f
    6fbc:	67 97       	sbiw	r28, 0x17	; 23
    6fbe:	e7 33       	cpi	r30, 0x37	; 55
    6fc0:	f1 05       	cpc	r31, r1
    6fc2:	08 f4       	brcc	.+2      	; 0x6fc6 <APP_voidMainMenu+0xb4>
    6fc4:	68 c0       	rjmp	.+208    	; 0x7096 <APP_voidMainMenu+0x184>
    6fc6:	67 96       	adiw	r28, 0x17	; 23
    6fc8:	8e ad       	ldd	r24, Y+62	; 0x3e
    6fca:	9f ad       	ldd	r25, Y+63	; 0x3f
    6fcc:	67 97       	sbiw	r28, 0x17	; 23
    6fce:	88 33       	cpi	r24, 0x38	; 56
    6fd0:	91 05       	cpc	r25, r1
    6fd2:	09 f4       	brne	.+2      	; 0x6fd6 <APP_voidMainMenu+0xc4>
    6fd4:	56 c0       	rjmp	.+172    	; 0x7082 <APP_voidMainMenu+0x170>
    6fd6:	67 96       	adiw	r28, 0x17	; 23
    6fd8:	ee ad       	ldd	r30, Y+62	; 0x3e
    6fda:	ff ad       	ldd	r31, Y+63	; 0x3f
    6fdc:	67 97       	sbiw	r28, 0x17	; 23
    6fde:	e9 33       	cpi	r30, 0x39	; 57
    6fe0:	f1 05       	cpc	r31, r1
    6fe2:	e1 f1       	breq	.+120    	; 0x705c <APP_voidMainMenu+0x14a>
    6fe4:	b1 c3       	rjmp	.+1890   	; 0x7748 <APP_voidMainMenu+0x836>
	{
	case TURN_ON_LIGHT:
		LCD_voidClearDisplay();
    6fe6:	0e 94 72 1c 	call	0x38e4	; 0x38e4 <LCD_voidClearDisplay>
		Main_u8LDRFlag=CLOSED;
    6fea:	10 92 a1 03 	sts	0x03A1, r1
		APP_voidLight_ON();
    6fee:	0e 94 a6 0f 	call	0x1f4c	; 0x1f4c <APP_voidLight_ON>
    6ff2:	aa c3       	rjmp	.+1876   	; 0x7748 <APP_voidMainMenu+0x836>
		break;

	case TURN_OFF_LIGHT:
		LCD_voidClearDisplay();
    6ff4:	0e 94 72 1c 	call	0x38e4	; 0x38e4 <LCD_voidClearDisplay>
		Main_u8LDRFlag=CLOSED;
    6ff8:	10 92 a1 03 	sts	0x03A1, r1
		APP_voidLight_OFF();
    6ffc:	0e 94 c7 0f 	call	0x1f8e	; 0x1f8e <APP_voidLight_OFF>
    7000:	a3 c3       	rjmp	.+1862   	; 0x7748 <APP_voidMainMenu+0x836>
		break;

	case CONTROL_LIGHT_LEDs:
		LCD_voidClearDisplay();
    7002:	0e 94 72 1c 	call	0x38e4	; 0x38e4 <LCD_voidClearDisplay>
		Main_u8ControlFan=CLOSED;
    7006:	10 92 a2 03 	sts	0x03A2, r1
		Main_u8LDRFlag=OPENED;
    700a:	81 e0       	ldi	r24, 0x01	; 1
    700c:	80 93 a1 03 	sts	0x03A1, r24
    7010:	9b c3       	rjmp	.+1846   	; 0x7748 <APP_voidMainMenu+0x836>
		break;

	case OPEN_THE_DOOR :
		LCD_voidClearDisplay();
    7012:	0e 94 72 1c 	call	0x38e4	; 0x38e4 <LCD_voidClearDisplay>
		APP_voidDoorOpen();
    7016:	0e 94 e8 10 	call	0x21d0	; 0x21d0 <APP_voidDoorOpen>
    701a:	96 c3       	rjmp	.+1836   	; 0x7748 <APP_voidMainMenu+0x836>
		break;

	case CLOSE_THE_DOOR :
		LCD_voidClearDisplay();
    701c:	0e 94 72 1c 	call	0x38e4	; 0x38e4 <LCD_voidClearDisplay>
		APP_voidDoorClose();
    7020:	0e 94 a0 11 	call	0x2340	; 0x2340 <APP_voidDoorClose>
    7024:	91 c3       	rjmp	.+1826   	; 0x7748 <APP_voidMainMenu+0x836>
		break;

	case OPEN_THE_FAN :
		LCD_voidClearDisplay();
    7026:	0e 94 72 1c 	call	0x38e4	; 0x38e4 <LCD_voidClearDisplay>
		Main_u8LDRFlag=CLOSED;
    702a:	10 92 a1 03 	sts	0x03A1, r1
		Main_u8ControlFan=CLOSED;
    702e:	10 92 a2 03 	sts	0x03A2, r1
		Main_u8FanFlag=OPENED;
    7032:	81 e0       	ldi	r24, 0x01	; 1
    7034:	80 93 a4 03 	sts	0x03A4, r24
		LCD_voidSendString2("___Fan is ON___  ");
    7038:	85 e8       	ldi	r24, 0x85	; 133
    703a:	91 e0       	ldi	r25, 0x01	; 1
    703c:	0e 94 7c 1c 	call	0x38f8	; 0x38f8 <LCD_voidSendString2>
		LCD_voidPositionSet(1,0);
    7040:	81 e0       	ldi	r24, 0x01	; 1
    7042:	60 e0       	ldi	r22, 0x00	; 0
    7044:	0e 94 2b 1b 	call	0x3656	; 0x3656 <LCD_voidPositionSet>
		LCD_voidSendString2("Temperature: 35 ");
    7048:	87 e9       	ldi	r24, 0x97	; 151
    704a:	91 e0       	ldi	r25, 0x01	; 1
    704c:	0e 94 7c 1c 	call	0x38f8	; 0x38f8 <LCD_voidSendString2>
		DIO_u8SetPinValue(FAN_PORT,FAN_PIN,DIO_u8PIN_HIGH);
    7050:	80 e0       	ldi	r24, 0x00	; 0
    7052:	66 e0       	ldi	r22, 0x06	; 6
    7054:	41 e0       	ldi	r20, 0x01	; 1
    7056:	0e 94 b2 13 	call	0x2764	; 0x2764 <DIO_u8SetPinValue>
    705a:	76 c3       	rjmp	.+1772   	; 0x7748 <APP_voidMainMenu+0x836>
		break;

	case CLOSE_THE_FAN :
		LCD_voidClearDisplay();
    705c:	0e 94 72 1c 	call	0x38e4	; 0x38e4 <LCD_voidClearDisplay>
		Main_u8ControlFan=CLOSED;
    7060:	10 92 a2 03 	sts	0x03A2, r1
		Main_u8LDRFlag=CLOSED;
    7064:	10 92 a1 03 	sts	0x03A1, r1
		Main_u8FanFlag=OPENED;
    7068:	81 e0       	ldi	r24, 0x01	; 1
    706a:	80 93 a4 03 	sts	0x03A4, r24
		LCD_voidSendString2("___Fan is OFF___");
    706e:	88 ea       	ldi	r24, 0xA8	; 168
    7070:	91 e0       	ldi	r25, 0x01	; 1
    7072:	0e 94 7c 1c 	call	0x38f8	; 0x38f8 <LCD_voidSendString2>
		DIO_u8SetPinValue(FAN_PORT,FAN_PIN,DIO_u8PIN_LOW);
    7076:	80 e0       	ldi	r24, 0x00	; 0
    7078:	66 e0       	ldi	r22, 0x06	; 6
    707a:	40 e0       	ldi	r20, 0x00	; 0
    707c:	0e 94 b2 13 	call	0x2764	; 0x2764 <DIO_u8SetPinValue>
    7080:	63 c3       	rjmp	.+1734   	; 0x7748 <APP_voidMainMenu+0x836>
		break;

	case CONTROL_THE_FAN_SPEED :
		LCD_voidClearDisplay();
    7082:	0e 94 72 1c 	call	0x38e4	; 0x38e4 <LCD_voidClearDisplay>
		Main_u8LDRFlag=CLOSED;
    7086:	10 92 a1 03 	sts	0x03A1, r1
		LCD_voidClearDisplay();
    708a:	0e 94 72 1c 	call	0x38e4	; 0x38e4 <LCD_voidClearDisplay>
		Main_u8ControlFan=OPENED;
    708e:	81 e0       	ldi	r24, 0x01	; 1
    7090:	80 93 a2 03 	sts	0x03A2, r24
    7094:	59 c3       	rjmp	.+1714   	; 0x7748 <APP_voidMainMenu+0x836>
		break;

	case ALARM :
		LCD_voidClearDisplay();
    7096:	0e 94 72 1c 	call	0x38e4	; 0x38e4 <LCD_voidClearDisplay>
		Main_u8LDRFlag=CLOSED;
    709a:	10 92 a1 03 	sts	0x03A1, r1
		Main_u8ControlFan=CLOSED;
    709e:	10 92 a2 03 	sts	0x03A2, r1
		Main_u8AlarmFlag=OPENED;
    70a2:	81 e0       	ldi	r24, 0x01	; 1
    70a4:	80 93 a3 03 	sts	0x03A3, r24
		LCD_voidSendString2("ALARM !!!!");
    70a8:	89 eb       	ldi	r24, 0xB9	; 185
    70aa:	91 e0       	ldi	r25, 0x01	; 1
    70ac:	0e 94 7c 1c 	call	0x38f8	; 0x38f8 <LCD_voidSendString2>
		if(Main_u8AlarmFlag==OPENED)
    70b0:	80 91 a3 03 	lds	r24, 0x03A3
    70b4:	81 30       	cpi	r24, 0x01	; 1
    70b6:	09 f0       	breq	.+2      	; 0x70ba <APP_voidMainMenu+0x1a8>
    70b8:	45 c3       	rjmp	.+1674   	; 0x7744 <APP_voidMainMenu+0x832>
		{
			for(Local_u8Counter = 0; Local_u8Counter < 25; Local_u8Counter++)
    70ba:	10 92 aa 03 	sts	0x03AA, r1
    70be:	47 c1       	rjmp	.+654    	; 0x734e <APP_voidMainMenu+0x43c>
			{
				DIO_u8SetPinValue(BUZZER_PORT,  BUZZER_PIN, DIO_u8PIN_HIGH);
    70c0:	80 e0       	ldi	r24, 0x00	; 0
    70c2:	65 e0       	ldi	r22, 0x05	; 5
    70c4:	41 e0       	ldi	r20, 0x01	; 1
    70c6:	0e 94 b2 13 	call	0x2764	; 0x2764 <DIO_u8SetPinValue>
    70ca:	fe 01       	movw	r30, r28
    70cc:	ef 5a       	subi	r30, 0xAF	; 175
    70ce:	ff 4f       	sbci	r31, 0xFF	; 255
    70d0:	80 e0       	ldi	r24, 0x00	; 0
    70d2:	90 e0       	ldi	r25, 0x00	; 0
    70d4:	a8 e4       	ldi	r26, 0x48	; 72
    70d6:	b2 e4       	ldi	r27, 0x42	; 66
    70d8:	80 83       	st	Z, r24
    70da:	91 83       	std	Z+1, r25	; 0x01
    70dc:	a2 83       	std	Z+2, r26	; 0x02
    70de:	b3 83       	std	Z+3, r27	; 0x03
 */
void
_delay_ms(double __ms)
{
	uint16_t __ticks;
	double __tmp = ((F_CPU) / 4e3) * __ms;
    70e0:	8e 01       	movw	r16, r28
    70e2:	03 5b       	subi	r16, 0xB3	; 179
    70e4:	1f 4f       	sbci	r17, 0xFF	; 255
    70e6:	fe 01       	movw	r30, r28
    70e8:	ef 5a       	subi	r30, 0xAF	; 175
    70ea:	ff 4f       	sbci	r31, 0xFF	; 255
    70ec:	60 81       	ld	r22, Z
    70ee:	71 81       	ldd	r23, Z+1	; 0x01
    70f0:	82 81       	ldd	r24, Z+2	; 0x02
    70f2:	93 81       	ldd	r25, Z+3	; 0x03
    70f4:	20 e0       	ldi	r18, 0x00	; 0
    70f6:	30 e0       	ldi	r19, 0x00	; 0
    70f8:	4a ef       	ldi	r20, 0xFA	; 250
    70fa:	54 e4       	ldi	r21, 0x44	; 68
    70fc:	0e 94 1f 02 	call	0x43e	; 0x43e <__mulsf3>
    7100:	dc 01       	movw	r26, r24
    7102:	cb 01       	movw	r24, r22
    7104:	f8 01       	movw	r30, r16
    7106:	80 83       	st	Z, r24
    7108:	91 83       	std	Z+1, r25	; 0x01
    710a:	a2 83       	std	Z+2, r26	; 0x02
    710c:	b3 83       	std	Z+3, r27	; 0x03
	if (__tmp < 1.0)
    710e:	fe 01       	movw	r30, r28
    7110:	e3 5b       	subi	r30, 0xB3	; 179
    7112:	ff 4f       	sbci	r31, 0xFF	; 255
    7114:	60 81       	ld	r22, Z
    7116:	71 81       	ldd	r23, Z+1	; 0x01
    7118:	82 81       	ldd	r24, Z+2	; 0x02
    711a:	93 81       	ldd	r25, Z+3	; 0x03
    711c:	20 e0       	ldi	r18, 0x00	; 0
    711e:	30 e0       	ldi	r19, 0x00	; 0
    7120:	40 e8       	ldi	r20, 0x80	; 128
    7122:	5f e3       	ldi	r21, 0x3F	; 63
    7124:	0e 94 25 04 	call	0x84a	; 0x84a <__ltsf2>
    7128:	88 23       	and	r24, r24
    712a:	44 f4       	brge	.+16     	; 0x713c <APP_voidMainMenu+0x22a>
		__ticks = 1;
    712c:	fe 01       	movw	r30, r28
    712e:	e5 5b       	subi	r30, 0xB5	; 181
    7130:	ff 4f       	sbci	r31, 0xFF	; 255
    7132:	81 e0       	ldi	r24, 0x01	; 1
    7134:	90 e0       	ldi	r25, 0x00	; 0
    7136:	91 83       	std	Z+1, r25	; 0x01
    7138:	80 83       	st	Z, r24
    713a:	64 c0       	rjmp	.+200    	; 0x7204 <APP_voidMainMenu+0x2f2>
	else if (__tmp > 65535)
    713c:	fe 01       	movw	r30, r28
    713e:	e3 5b       	subi	r30, 0xB3	; 179
    7140:	ff 4f       	sbci	r31, 0xFF	; 255
    7142:	60 81       	ld	r22, Z
    7144:	71 81       	ldd	r23, Z+1	; 0x01
    7146:	82 81       	ldd	r24, Z+2	; 0x02
    7148:	93 81       	ldd	r25, Z+3	; 0x03
    714a:	20 e0       	ldi	r18, 0x00	; 0
    714c:	3f ef       	ldi	r19, 0xFF	; 255
    714e:	4f e7       	ldi	r20, 0x7F	; 127
    7150:	57 e4       	ldi	r21, 0x47	; 71
    7152:	0e 94 c5 03 	call	0x78a	; 0x78a <__gtsf2>
    7156:	18 16       	cp	r1, r24
    7158:	0c f0       	brlt	.+2      	; 0x715c <APP_voidMainMenu+0x24a>
    715a:	43 c0       	rjmp	.+134    	; 0x71e2 <APP_voidMainMenu+0x2d0>
	{
		//	__ticks = requested delay in 1/10 ms
		__ticks = (uint16_t) (__ms * 10.0);
    715c:	fe 01       	movw	r30, r28
    715e:	ef 5a       	subi	r30, 0xAF	; 175
    7160:	ff 4f       	sbci	r31, 0xFF	; 255
    7162:	60 81       	ld	r22, Z
    7164:	71 81       	ldd	r23, Z+1	; 0x01
    7166:	82 81       	ldd	r24, Z+2	; 0x02
    7168:	93 81       	ldd	r25, Z+3	; 0x03
    716a:	20 e0       	ldi	r18, 0x00	; 0
    716c:	30 e0       	ldi	r19, 0x00	; 0
    716e:	40 e2       	ldi	r20, 0x20	; 32
    7170:	51 e4       	ldi	r21, 0x41	; 65
    7172:	0e 94 1f 02 	call	0x43e	; 0x43e <__mulsf3>
    7176:	dc 01       	movw	r26, r24
    7178:	cb 01       	movw	r24, r22
    717a:	8e 01       	movw	r16, r28
    717c:	05 5b       	subi	r16, 0xB5	; 181
    717e:	1f 4f       	sbci	r17, 0xFF	; 255
    7180:	bc 01       	movw	r22, r24
    7182:	cd 01       	movw	r24, r26
    7184:	0e 94 49 00 	call	0x92	; 0x92 <__fixunssfsi>
    7188:	dc 01       	movw	r26, r24
    718a:	cb 01       	movw	r24, r22
    718c:	f8 01       	movw	r30, r16
    718e:	91 83       	std	Z+1, r25	; 0x01
    7190:	80 83       	st	Z, r24
    7192:	1f c0       	rjmp	.+62     	; 0x71d2 <APP_voidMainMenu+0x2c0>
    7194:	fe 01       	movw	r30, r28
    7196:	e7 5b       	subi	r30, 0xB7	; 183
    7198:	ff 4f       	sbci	r31, 0xFF	; 255
    719a:	88 ec       	ldi	r24, 0xC8	; 200
    719c:	90 e0       	ldi	r25, 0x00	; 0
    719e:	91 83       	std	Z+1, r25	; 0x01
    71a0:	80 83       	st	Z, r24
    71a2:	fe 01       	movw	r30, r28
    71a4:	e7 5b       	subi	r30, 0xB7	; 183
    71a6:	ff 4f       	sbci	r31, 0xFF	; 255
    71a8:	80 81       	ld	r24, Z
    71aa:	91 81       	ldd	r25, Z+1	; 0x01
    71ac:	01 97       	sbiw	r24, 0x01	; 1
    71ae:	f1 f7       	brne	.-4      	; 0x71ac <APP_voidMainMenu+0x29a>
    71b0:	fe 01       	movw	r30, r28
    71b2:	e7 5b       	subi	r30, 0xB7	; 183
    71b4:	ff 4f       	sbci	r31, 0xFF	; 255
    71b6:	91 83       	std	Z+1, r25	; 0x01
    71b8:	80 83       	st	Z, r24
		while(__ticks)
		{
			// wait 1/10 ms
			_delay_loop_2(((F_CPU) / 4e3) / 10);
			__ticks --;
    71ba:	de 01       	movw	r26, r28
    71bc:	a5 5b       	subi	r26, 0xB5	; 181
    71be:	bf 4f       	sbci	r27, 0xFF	; 255
    71c0:	fe 01       	movw	r30, r28
    71c2:	e5 5b       	subi	r30, 0xB5	; 181
    71c4:	ff 4f       	sbci	r31, 0xFF	; 255
    71c6:	80 81       	ld	r24, Z
    71c8:	91 81       	ldd	r25, Z+1	; 0x01
    71ca:	01 97       	sbiw	r24, 0x01	; 1
    71cc:	11 96       	adiw	r26, 0x01	; 1
    71ce:	9c 93       	st	X, r25
    71d0:	8e 93       	st	-X, r24
		__ticks = 1;
	else if (__tmp > 65535)
	{
		//	__ticks = requested delay in 1/10 ms
		__ticks = (uint16_t) (__ms * 10.0);
		while(__ticks)
    71d2:	fe 01       	movw	r30, r28
    71d4:	e5 5b       	subi	r30, 0xB5	; 181
    71d6:	ff 4f       	sbci	r31, 0xFF	; 255
    71d8:	80 81       	ld	r24, Z
    71da:	91 81       	ldd	r25, Z+1	; 0x01
    71dc:	00 97       	sbiw	r24, 0x00	; 0
    71de:	d1 f6       	brne	.-76     	; 0x7194 <APP_voidMainMenu+0x282>
    71e0:	27 c0       	rjmp	.+78     	; 0x7230 <APP_voidMainMenu+0x31e>
			__ticks --;
		}
		return;
	}
	else
		__ticks = (uint16_t)__tmp;
    71e2:	8e 01       	movw	r16, r28
    71e4:	05 5b       	subi	r16, 0xB5	; 181
    71e6:	1f 4f       	sbci	r17, 0xFF	; 255
    71e8:	fe 01       	movw	r30, r28
    71ea:	e3 5b       	subi	r30, 0xB3	; 179
    71ec:	ff 4f       	sbci	r31, 0xFF	; 255
    71ee:	60 81       	ld	r22, Z
    71f0:	71 81       	ldd	r23, Z+1	; 0x01
    71f2:	82 81       	ldd	r24, Z+2	; 0x02
    71f4:	93 81       	ldd	r25, Z+3	; 0x03
    71f6:	0e 94 49 00 	call	0x92	; 0x92 <__fixunssfsi>
    71fa:	dc 01       	movw	r26, r24
    71fc:	cb 01       	movw	r24, r22
    71fe:	f8 01       	movw	r30, r16
    7200:	91 83       	std	Z+1, r25	; 0x01
    7202:	80 83       	st	Z, r24
    7204:	de 01       	movw	r26, r28
    7206:	a9 5b       	subi	r26, 0xB9	; 185
    7208:	bf 4f       	sbci	r27, 0xFF	; 255
    720a:	fe 01       	movw	r30, r28
    720c:	e5 5b       	subi	r30, 0xB5	; 181
    720e:	ff 4f       	sbci	r31, 0xFF	; 255
    7210:	80 81       	ld	r24, Z
    7212:	91 81       	ldd	r25, Z+1	; 0x01
    7214:	8d 93       	st	X+, r24
    7216:	9c 93       	st	X, r25
    7218:	fe 01       	movw	r30, r28
    721a:	e9 5b       	subi	r30, 0xB9	; 185
    721c:	ff 4f       	sbci	r31, 0xFF	; 255
    721e:	80 81       	ld	r24, Z
    7220:	91 81       	ldd	r25, Z+1	; 0x01
    7222:	01 97       	sbiw	r24, 0x01	; 1
    7224:	f1 f7       	brne	.-4      	; 0x7222 <APP_voidMainMenu+0x310>
    7226:	fe 01       	movw	r30, r28
    7228:	e9 5b       	subi	r30, 0xB9	; 185
    722a:	ff 4f       	sbci	r31, 0xFF	; 255
    722c:	91 83       	std	Z+1, r25	; 0x01
    722e:	80 83       	st	Z, r24
				_delay_ms(100 / 2);
				DIO_u8SetPinValue(BUZZER_PORT,  BUZZER_PIN, DIO_u8PIN_LOW);
    7230:	80 e0       	ldi	r24, 0x00	; 0
    7232:	65 e0       	ldi	r22, 0x05	; 5
    7234:	40 e0       	ldi	r20, 0x00	; 0
    7236:	0e 94 b2 13 	call	0x2764	; 0x2764 <DIO_u8SetPinValue>
    723a:	fe 01       	movw	r30, r28
    723c:	ed 5b       	subi	r30, 0xBD	; 189
    723e:	ff 4f       	sbci	r31, 0xFF	; 255
    7240:	80 e0       	ldi	r24, 0x00	; 0
    7242:	90 e0       	ldi	r25, 0x00	; 0
    7244:	a8 e4       	ldi	r26, 0x48	; 72
    7246:	b2 e4       	ldi	r27, 0x42	; 66
    7248:	80 83       	st	Z, r24
    724a:	91 83       	std	Z+1, r25	; 0x01
    724c:	a2 83       	std	Z+2, r26	; 0x02
    724e:	b3 83       	std	Z+3, r27	; 0x03
 */
void
_delay_ms(double __ms)
{
	uint16_t __ticks;
	double __tmp = ((F_CPU) / 4e3) * __ms;
    7250:	8e 01       	movw	r16, r28
    7252:	01 5c       	subi	r16, 0xC1	; 193
    7254:	1f 4f       	sbci	r17, 0xFF	; 255
    7256:	fe 01       	movw	r30, r28
    7258:	ed 5b       	subi	r30, 0xBD	; 189
    725a:	ff 4f       	sbci	r31, 0xFF	; 255
    725c:	60 81       	ld	r22, Z
    725e:	71 81       	ldd	r23, Z+1	; 0x01
    7260:	82 81       	ldd	r24, Z+2	; 0x02
    7262:	93 81       	ldd	r25, Z+3	; 0x03
    7264:	20 e0       	ldi	r18, 0x00	; 0
    7266:	30 e0       	ldi	r19, 0x00	; 0
    7268:	4a ef       	ldi	r20, 0xFA	; 250
    726a:	54 e4       	ldi	r21, 0x44	; 68
    726c:	0e 94 1f 02 	call	0x43e	; 0x43e <__mulsf3>
    7270:	dc 01       	movw	r26, r24
    7272:	cb 01       	movw	r24, r22
    7274:	f8 01       	movw	r30, r16
    7276:	80 83       	st	Z, r24
    7278:	91 83       	std	Z+1, r25	; 0x01
    727a:	a2 83       	std	Z+2, r26	; 0x02
    727c:	b3 83       	std	Z+3, r27	; 0x03
	if (__tmp < 1.0)
    727e:	fe 01       	movw	r30, r28
    7280:	ff 96       	adiw	r30, 0x3f	; 63
    7282:	60 81       	ld	r22, Z
    7284:	71 81       	ldd	r23, Z+1	; 0x01
    7286:	82 81       	ldd	r24, Z+2	; 0x02
    7288:	93 81       	ldd	r25, Z+3	; 0x03
    728a:	20 e0       	ldi	r18, 0x00	; 0
    728c:	30 e0       	ldi	r19, 0x00	; 0
    728e:	40 e8       	ldi	r20, 0x80	; 128
    7290:	5f e3       	ldi	r21, 0x3F	; 63
    7292:	0e 94 25 04 	call	0x84a	; 0x84a <__ltsf2>
    7296:	88 23       	and	r24, r24
    7298:	2c f4       	brge	.+10     	; 0x72a4 <APP_voidMainMenu+0x392>
		__ticks = 1;
    729a:	81 e0       	ldi	r24, 0x01	; 1
    729c:	90 e0       	ldi	r25, 0x00	; 0
    729e:	9e af       	std	Y+62, r25	; 0x3e
    72a0:	8d af       	std	Y+61, r24	; 0x3d
    72a2:	46 c0       	rjmp	.+140    	; 0x7330 <APP_voidMainMenu+0x41e>
	else if (__tmp > 65535)
    72a4:	fe 01       	movw	r30, r28
    72a6:	ff 96       	adiw	r30, 0x3f	; 63
    72a8:	60 81       	ld	r22, Z
    72aa:	71 81       	ldd	r23, Z+1	; 0x01
    72ac:	82 81       	ldd	r24, Z+2	; 0x02
    72ae:	93 81       	ldd	r25, Z+3	; 0x03
    72b0:	20 e0       	ldi	r18, 0x00	; 0
    72b2:	3f ef       	ldi	r19, 0xFF	; 255
    72b4:	4f e7       	ldi	r20, 0x7F	; 127
    72b6:	57 e4       	ldi	r21, 0x47	; 71
    72b8:	0e 94 c5 03 	call	0x78a	; 0x78a <__gtsf2>
    72bc:	18 16       	cp	r1, r24
    72be:	64 f5       	brge	.+88     	; 0x7318 <APP_voidMainMenu+0x406>
	{
		//	__ticks = requested delay in 1/10 ms
		__ticks = (uint16_t) (__ms * 10.0);
    72c0:	fe 01       	movw	r30, r28
    72c2:	ed 5b       	subi	r30, 0xBD	; 189
    72c4:	ff 4f       	sbci	r31, 0xFF	; 255
    72c6:	60 81       	ld	r22, Z
    72c8:	71 81       	ldd	r23, Z+1	; 0x01
    72ca:	82 81       	ldd	r24, Z+2	; 0x02
    72cc:	93 81       	ldd	r25, Z+3	; 0x03
    72ce:	20 e0       	ldi	r18, 0x00	; 0
    72d0:	30 e0       	ldi	r19, 0x00	; 0
    72d2:	40 e2       	ldi	r20, 0x20	; 32
    72d4:	51 e4       	ldi	r21, 0x41	; 65
    72d6:	0e 94 1f 02 	call	0x43e	; 0x43e <__mulsf3>
    72da:	dc 01       	movw	r26, r24
    72dc:	cb 01       	movw	r24, r22
    72de:	bc 01       	movw	r22, r24
    72e0:	cd 01       	movw	r24, r26
    72e2:	0e 94 49 00 	call	0x92	; 0x92 <__fixunssfsi>
    72e6:	dc 01       	movw	r26, r24
    72e8:	cb 01       	movw	r24, r22
    72ea:	9e af       	std	Y+62, r25	; 0x3e
    72ec:	8d af       	std	Y+61, r24	; 0x3d
    72ee:	0f c0       	rjmp	.+30     	; 0x730e <APP_voidMainMenu+0x3fc>
    72f0:	88 ec       	ldi	r24, 0xC8	; 200
    72f2:	90 e0       	ldi	r25, 0x00	; 0
    72f4:	9c af       	std	Y+60, r25	; 0x3c
    72f6:	8b af       	std	Y+59, r24	; 0x3b
    72f8:	8b ad       	ldd	r24, Y+59	; 0x3b
    72fa:	9c ad       	ldd	r25, Y+60	; 0x3c
    72fc:	01 97       	sbiw	r24, 0x01	; 1
    72fe:	f1 f7       	brne	.-4      	; 0x72fc <APP_voidMainMenu+0x3ea>
    7300:	9c af       	std	Y+60, r25	; 0x3c
    7302:	8b af       	std	Y+59, r24	; 0x3b
		while(__ticks)
		{
			// wait 1/10 ms
			_delay_loop_2(((F_CPU) / 4e3) / 10);
			__ticks --;
    7304:	8d ad       	ldd	r24, Y+61	; 0x3d
    7306:	9e ad       	ldd	r25, Y+62	; 0x3e
    7308:	01 97       	sbiw	r24, 0x01	; 1
    730a:	9e af       	std	Y+62, r25	; 0x3e
    730c:	8d af       	std	Y+61, r24	; 0x3d
		__ticks = 1;
	else if (__tmp > 65535)
	{
		//	__ticks = requested delay in 1/10 ms
		__ticks = (uint16_t) (__ms * 10.0);
		while(__ticks)
    730e:	8d ad       	ldd	r24, Y+61	; 0x3d
    7310:	9e ad       	ldd	r25, Y+62	; 0x3e
    7312:	00 97       	sbiw	r24, 0x00	; 0
    7314:	69 f7       	brne	.-38     	; 0x72f0 <APP_voidMainMenu+0x3de>
    7316:	16 c0       	rjmp	.+44     	; 0x7344 <APP_voidMainMenu+0x432>
			__ticks --;
		}
		return;
	}
	else
		__ticks = (uint16_t)__tmp;
    7318:	fe 01       	movw	r30, r28
    731a:	ff 96       	adiw	r30, 0x3f	; 63
    731c:	60 81       	ld	r22, Z
    731e:	71 81       	ldd	r23, Z+1	; 0x01
    7320:	82 81       	ldd	r24, Z+2	; 0x02
    7322:	93 81       	ldd	r25, Z+3	; 0x03
    7324:	0e 94 49 00 	call	0x92	; 0x92 <__fixunssfsi>
    7328:	dc 01       	movw	r26, r24
    732a:	cb 01       	movw	r24, r22
    732c:	9e af       	std	Y+62, r25	; 0x3e
    732e:	8d af       	std	Y+61, r24	; 0x3d
    7330:	8d ad       	ldd	r24, Y+61	; 0x3d
    7332:	9e ad       	ldd	r25, Y+62	; 0x3e
    7334:	9a af       	std	Y+58, r25	; 0x3a
    7336:	89 af       	std	Y+57, r24	; 0x39
    7338:	89 ad       	ldd	r24, Y+57	; 0x39
    733a:	9a ad       	ldd	r25, Y+58	; 0x3a
    733c:	01 97       	sbiw	r24, 0x01	; 1
    733e:	f1 f7       	brne	.-4      	; 0x733c <APP_voidMainMenu+0x42a>
    7340:	9a af       	std	Y+58, r25	; 0x3a
    7342:	89 af       	std	Y+57, r24	; 0x39
		Main_u8ControlFan=CLOSED;
		Main_u8AlarmFlag=OPENED;
		LCD_voidSendString2("ALARM !!!!");
		if(Main_u8AlarmFlag==OPENED)
		{
			for(Local_u8Counter = 0; Local_u8Counter < 25; Local_u8Counter++)
    7344:	80 91 aa 03 	lds	r24, 0x03AA
    7348:	8f 5f       	subi	r24, 0xFF	; 255
    734a:	80 93 aa 03 	sts	0x03AA, r24
    734e:	80 91 aa 03 	lds	r24, 0x03AA
    7352:	89 31       	cpi	r24, 0x19	; 25
    7354:	08 f4       	brcc	.+2      	; 0x7358 <APP_voidMainMenu+0x446>
    7356:	b4 ce       	rjmp	.-664    	; 0x70c0 <APP_voidMainMenu+0x1ae>
				_delay_ms(100 / 2);
				DIO_u8SetPinValue(BUZZER_PORT,  BUZZER_PIN, DIO_u8PIN_LOW);
				_delay_ms(100 / 2);
			}

			for(Local_u8Counter = 0; Local_u8Counter < 25; Local_u8Counter++)
    7358:	10 92 aa 03 	sts	0x03AA, r1
    735c:	f3 c0       	rjmp	.+486    	; 0x7544 <APP_voidMainMenu+0x632>
			{
				DIO_u8SetPinValue(BUZZER_PORT,  BUZZER_PIN, DIO_u8PIN_HIGH);
    735e:	80 e0       	ldi	r24, 0x00	; 0
    7360:	65 e0       	ldi	r22, 0x05	; 5
    7362:	41 e0       	ldi	r20, 0x01	; 1
    7364:	0e 94 b2 13 	call	0x2764	; 0x2764 <DIO_u8SetPinValue>
    7368:	80 e0       	ldi	r24, 0x00	; 0
    736a:	90 e0       	ldi	r25, 0x00	; 0
    736c:	a8 e0       	ldi	r26, 0x08	; 8
    736e:	b3 e4       	ldi	r27, 0x43	; 67
    7370:	8d ab       	std	Y+53, r24	; 0x35
    7372:	9e ab       	std	Y+54, r25	; 0x36
    7374:	af ab       	std	Y+55, r26	; 0x37
    7376:	b8 af       	std	Y+56, r27	; 0x38
 */
void
_delay_ms(double __ms)
{
	uint16_t __ticks;
	double __tmp = ((F_CPU) / 4e3) * __ms;
    7378:	6d a9       	ldd	r22, Y+53	; 0x35
    737a:	7e a9       	ldd	r23, Y+54	; 0x36
    737c:	8f a9       	ldd	r24, Y+55	; 0x37
    737e:	98 ad       	ldd	r25, Y+56	; 0x38
    7380:	20 e0       	ldi	r18, 0x00	; 0
    7382:	30 e0       	ldi	r19, 0x00	; 0
    7384:	4a ef       	ldi	r20, 0xFA	; 250
    7386:	54 e4       	ldi	r21, 0x44	; 68
    7388:	0e 94 1f 02 	call	0x43e	; 0x43e <__mulsf3>
    738c:	dc 01       	movw	r26, r24
    738e:	cb 01       	movw	r24, r22
    7390:	89 ab       	std	Y+49, r24	; 0x31
    7392:	9a ab       	std	Y+50, r25	; 0x32
    7394:	ab ab       	std	Y+51, r26	; 0x33
    7396:	bc ab       	std	Y+52, r27	; 0x34
	if (__tmp < 1.0)
    7398:	69 a9       	ldd	r22, Y+49	; 0x31
    739a:	7a a9       	ldd	r23, Y+50	; 0x32
    739c:	8b a9       	ldd	r24, Y+51	; 0x33
    739e:	9c a9       	ldd	r25, Y+52	; 0x34
    73a0:	20 e0       	ldi	r18, 0x00	; 0
    73a2:	30 e0       	ldi	r19, 0x00	; 0
    73a4:	40 e8       	ldi	r20, 0x80	; 128
    73a6:	5f e3       	ldi	r21, 0x3F	; 63
    73a8:	0e 94 25 04 	call	0x84a	; 0x84a <__ltsf2>
    73ac:	88 23       	and	r24, r24
    73ae:	2c f4       	brge	.+10     	; 0x73ba <APP_voidMainMenu+0x4a8>
		__ticks = 1;
    73b0:	81 e0       	ldi	r24, 0x01	; 1
    73b2:	90 e0       	ldi	r25, 0x00	; 0
    73b4:	98 ab       	std	Y+48, r25	; 0x30
    73b6:	8f a7       	std	Y+47, r24	; 0x2f
    73b8:	3f c0       	rjmp	.+126    	; 0x7438 <APP_voidMainMenu+0x526>
	else if (__tmp > 65535)
    73ba:	69 a9       	ldd	r22, Y+49	; 0x31
    73bc:	7a a9       	ldd	r23, Y+50	; 0x32
    73be:	8b a9       	ldd	r24, Y+51	; 0x33
    73c0:	9c a9       	ldd	r25, Y+52	; 0x34
    73c2:	20 e0       	ldi	r18, 0x00	; 0
    73c4:	3f ef       	ldi	r19, 0xFF	; 255
    73c6:	4f e7       	ldi	r20, 0x7F	; 127
    73c8:	57 e4       	ldi	r21, 0x47	; 71
    73ca:	0e 94 c5 03 	call	0x78a	; 0x78a <__gtsf2>
    73ce:	18 16       	cp	r1, r24
    73d0:	4c f5       	brge	.+82     	; 0x7424 <APP_voidMainMenu+0x512>
	{
		//	__ticks = requested delay in 1/10 ms
		__ticks = (uint16_t) (__ms * 10.0);
    73d2:	6d a9       	ldd	r22, Y+53	; 0x35
    73d4:	7e a9       	ldd	r23, Y+54	; 0x36
    73d6:	8f a9       	ldd	r24, Y+55	; 0x37
    73d8:	98 ad       	ldd	r25, Y+56	; 0x38
    73da:	20 e0       	ldi	r18, 0x00	; 0
    73dc:	30 e0       	ldi	r19, 0x00	; 0
    73de:	40 e2       	ldi	r20, 0x20	; 32
    73e0:	51 e4       	ldi	r21, 0x41	; 65
    73e2:	0e 94 1f 02 	call	0x43e	; 0x43e <__mulsf3>
    73e6:	dc 01       	movw	r26, r24
    73e8:	cb 01       	movw	r24, r22
    73ea:	bc 01       	movw	r22, r24
    73ec:	cd 01       	movw	r24, r26
    73ee:	0e 94 49 00 	call	0x92	; 0x92 <__fixunssfsi>
    73f2:	dc 01       	movw	r26, r24
    73f4:	cb 01       	movw	r24, r22
    73f6:	98 ab       	std	Y+48, r25	; 0x30
    73f8:	8f a7       	std	Y+47, r24	; 0x2f
    73fa:	0f c0       	rjmp	.+30     	; 0x741a <APP_voidMainMenu+0x508>
    73fc:	88 ec       	ldi	r24, 0xC8	; 200
    73fe:	90 e0       	ldi	r25, 0x00	; 0
    7400:	9e a7       	std	Y+46, r25	; 0x2e
    7402:	8d a7       	std	Y+45, r24	; 0x2d
    7404:	8d a5       	ldd	r24, Y+45	; 0x2d
    7406:	9e a5       	ldd	r25, Y+46	; 0x2e
    7408:	01 97       	sbiw	r24, 0x01	; 1
    740a:	f1 f7       	brne	.-4      	; 0x7408 <APP_voidMainMenu+0x4f6>
    740c:	9e a7       	std	Y+46, r25	; 0x2e
    740e:	8d a7       	std	Y+45, r24	; 0x2d
		while(__ticks)
		{
			// wait 1/10 ms
			_delay_loop_2(((F_CPU) / 4e3) / 10);
			__ticks --;
    7410:	8f a5       	ldd	r24, Y+47	; 0x2f
    7412:	98 a9       	ldd	r25, Y+48	; 0x30
    7414:	01 97       	sbiw	r24, 0x01	; 1
    7416:	98 ab       	std	Y+48, r25	; 0x30
    7418:	8f a7       	std	Y+47, r24	; 0x2f
		__ticks = 1;
	else if (__tmp > 65535)
	{
		//	__ticks = requested delay in 1/10 ms
		__ticks = (uint16_t) (__ms * 10.0);
		while(__ticks)
    741a:	8f a5       	ldd	r24, Y+47	; 0x2f
    741c:	98 a9       	ldd	r25, Y+48	; 0x30
    741e:	00 97       	sbiw	r24, 0x00	; 0
    7420:	69 f7       	brne	.-38     	; 0x73fc <APP_voidMainMenu+0x4ea>
    7422:	14 c0       	rjmp	.+40     	; 0x744c <APP_voidMainMenu+0x53a>
			__ticks --;
		}
		return;
	}
	else
		__ticks = (uint16_t)__tmp;
    7424:	69 a9       	ldd	r22, Y+49	; 0x31
    7426:	7a a9       	ldd	r23, Y+50	; 0x32
    7428:	8b a9       	ldd	r24, Y+51	; 0x33
    742a:	9c a9       	ldd	r25, Y+52	; 0x34
    742c:	0e 94 49 00 	call	0x92	; 0x92 <__fixunssfsi>
    7430:	dc 01       	movw	r26, r24
    7432:	cb 01       	movw	r24, r22
    7434:	98 ab       	std	Y+48, r25	; 0x30
    7436:	8f a7       	std	Y+47, r24	; 0x2f
    7438:	8f a5       	ldd	r24, Y+47	; 0x2f
    743a:	98 a9       	ldd	r25, Y+48	; 0x30
    743c:	9c a7       	std	Y+44, r25	; 0x2c
    743e:	8b a7       	std	Y+43, r24	; 0x2b
    7440:	8b a5       	ldd	r24, Y+43	; 0x2b
    7442:	9c a5       	ldd	r25, Y+44	; 0x2c
    7444:	01 97       	sbiw	r24, 0x01	; 1
    7446:	f1 f7       	brne	.-4      	; 0x7444 <APP_voidMainMenu+0x532>
    7448:	9c a7       	std	Y+44, r25	; 0x2c
    744a:	8b a7       	std	Y+43, r24	; 0x2b
				_delay_ms(2 * 68);
				DIO_u8SetPinValue(BUZZER_PORT,  BUZZER_PIN, DIO_u8PIN_LOW);
    744c:	80 e0       	ldi	r24, 0x00	; 0
    744e:	65 e0       	ldi	r22, 0x05	; 5
    7450:	40 e0       	ldi	r20, 0x00	; 0
    7452:	0e 94 b2 13 	call	0x2764	; 0x2764 <DIO_u8SetPinValue>
    7456:	80 e0       	ldi	r24, 0x00	; 0
    7458:	90 e0       	ldi	r25, 0x00	; 0
    745a:	a8 e0       	ldi	r26, 0x08	; 8
    745c:	b3 e4       	ldi	r27, 0x43	; 67
    745e:	8f a3       	std	Y+39, r24	; 0x27
    7460:	98 a7       	std	Y+40, r25	; 0x28
    7462:	a9 a7       	std	Y+41, r26	; 0x29
    7464:	ba a7       	std	Y+42, r27	; 0x2a
 */
void
_delay_ms(double __ms)
{
	uint16_t __ticks;
	double __tmp = ((F_CPU) / 4e3) * __ms;
    7466:	6f a1       	ldd	r22, Y+39	; 0x27
    7468:	78 a5       	ldd	r23, Y+40	; 0x28
    746a:	89 a5       	ldd	r24, Y+41	; 0x29
    746c:	9a a5       	ldd	r25, Y+42	; 0x2a
    746e:	20 e0       	ldi	r18, 0x00	; 0
    7470:	30 e0       	ldi	r19, 0x00	; 0
    7472:	4a ef       	ldi	r20, 0xFA	; 250
    7474:	54 e4       	ldi	r21, 0x44	; 68
    7476:	0e 94 1f 02 	call	0x43e	; 0x43e <__mulsf3>
    747a:	dc 01       	movw	r26, r24
    747c:	cb 01       	movw	r24, r22
    747e:	8b a3       	std	Y+35, r24	; 0x23
    7480:	9c a3       	std	Y+36, r25	; 0x24
    7482:	ad a3       	std	Y+37, r26	; 0x25
    7484:	be a3       	std	Y+38, r27	; 0x26
	if (__tmp < 1.0)
    7486:	6b a1       	ldd	r22, Y+35	; 0x23
    7488:	7c a1       	ldd	r23, Y+36	; 0x24
    748a:	8d a1       	ldd	r24, Y+37	; 0x25
    748c:	9e a1       	ldd	r25, Y+38	; 0x26
    748e:	20 e0       	ldi	r18, 0x00	; 0
    7490:	30 e0       	ldi	r19, 0x00	; 0
    7492:	40 e8       	ldi	r20, 0x80	; 128
    7494:	5f e3       	ldi	r21, 0x3F	; 63
    7496:	0e 94 25 04 	call	0x84a	; 0x84a <__ltsf2>
    749a:	88 23       	and	r24, r24
    749c:	2c f4       	brge	.+10     	; 0x74a8 <APP_voidMainMenu+0x596>
		__ticks = 1;
    749e:	81 e0       	ldi	r24, 0x01	; 1
    74a0:	90 e0       	ldi	r25, 0x00	; 0
    74a2:	9a a3       	std	Y+34, r25	; 0x22
    74a4:	89 a3       	std	Y+33, r24	; 0x21
    74a6:	3f c0       	rjmp	.+126    	; 0x7526 <APP_voidMainMenu+0x614>
	else if (__tmp > 65535)
    74a8:	6b a1       	ldd	r22, Y+35	; 0x23
    74aa:	7c a1       	ldd	r23, Y+36	; 0x24
    74ac:	8d a1       	ldd	r24, Y+37	; 0x25
    74ae:	9e a1       	ldd	r25, Y+38	; 0x26
    74b0:	20 e0       	ldi	r18, 0x00	; 0
    74b2:	3f ef       	ldi	r19, 0xFF	; 255
    74b4:	4f e7       	ldi	r20, 0x7F	; 127
    74b6:	57 e4       	ldi	r21, 0x47	; 71
    74b8:	0e 94 c5 03 	call	0x78a	; 0x78a <__gtsf2>
    74bc:	18 16       	cp	r1, r24
    74be:	4c f5       	brge	.+82     	; 0x7512 <APP_voidMainMenu+0x600>
	{
		//	__ticks = requested delay in 1/10 ms
		__ticks = (uint16_t) (__ms * 10.0);
    74c0:	6f a1       	ldd	r22, Y+39	; 0x27
    74c2:	78 a5       	ldd	r23, Y+40	; 0x28
    74c4:	89 a5       	ldd	r24, Y+41	; 0x29
    74c6:	9a a5       	ldd	r25, Y+42	; 0x2a
    74c8:	20 e0       	ldi	r18, 0x00	; 0
    74ca:	30 e0       	ldi	r19, 0x00	; 0
    74cc:	40 e2       	ldi	r20, 0x20	; 32
    74ce:	51 e4       	ldi	r21, 0x41	; 65
    74d0:	0e 94 1f 02 	call	0x43e	; 0x43e <__mulsf3>
    74d4:	dc 01       	movw	r26, r24
    74d6:	cb 01       	movw	r24, r22
    74d8:	bc 01       	movw	r22, r24
    74da:	cd 01       	movw	r24, r26
    74dc:	0e 94 49 00 	call	0x92	; 0x92 <__fixunssfsi>
    74e0:	dc 01       	movw	r26, r24
    74e2:	cb 01       	movw	r24, r22
    74e4:	9a a3       	std	Y+34, r25	; 0x22
    74e6:	89 a3       	std	Y+33, r24	; 0x21
    74e8:	0f c0       	rjmp	.+30     	; 0x7508 <APP_voidMainMenu+0x5f6>
    74ea:	88 ec       	ldi	r24, 0xC8	; 200
    74ec:	90 e0       	ldi	r25, 0x00	; 0
    74ee:	98 a3       	std	Y+32, r25	; 0x20
    74f0:	8f 8f       	std	Y+31, r24	; 0x1f
    74f2:	8f 8d       	ldd	r24, Y+31	; 0x1f
    74f4:	98 a1       	ldd	r25, Y+32	; 0x20
    74f6:	01 97       	sbiw	r24, 0x01	; 1
    74f8:	f1 f7       	brne	.-4      	; 0x74f6 <APP_voidMainMenu+0x5e4>
    74fa:	98 a3       	std	Y+32, r25	; 0x20
    74fc:	8f 8f       	std	Y+31, r24	; 0x1f
		while(__ticks)
		{
			// wait 1/10 ms
			_delay_loop_2(((F_CPU) / 4e3) / 10);
			__ticks --;
    74fe:	89 a1       	ldd	r24, Y+33	; 0x21
    7500:	9a a1       	ldd	r25, Y+34	; 0x22
    7502:	01 97       	sbiw	r24, 0x01	; 1
    7504:	9a a3       	std	Y+34, r25	; 0x22
    7506:	89 a3       	std	Y+33, r24	; 0x21
		__ticks = 1;
	else if (__tmp > 65535)
	{
		//	__ticks = requested delay in 1/10 ms
		__ticks = (uint16_t) (__ms * 10.0);
		while(__ticks)
    7508:	89 a1       	ldd	r24, Y+33	; 0x21
    750a:	9a a1       	ldd	r25, Y+34	; 0x22
    750c:	00 97       	sbiw	r24, 0x00	; 0
    750e:	69 f7       	brne	.-38     	; 0x74ea <APP_voidMainMenu+0x5d8>
    7510:	14 c0       	rjmp	.+40     	; 0x753a <APP_voidMainMenu+0x628>
			__ticks --;
		}
		return;
	}
	else
		__ticks = (uint16_t)__tmp;
    7512:	6b a1       	ldd	r22, Y+35	; 0x23
    7514:	7c a1       	ldd	r23, Y+36	; 0x24
    7516:	8d a1       	ldd	r24, Y+37	; 0x25
    7518:	9e a1       	ldd	r25, Y+38	; 0x26
    751a:	0e 94 49 00 	call	0x92	; 0x92 <__fixunssfsi>
    751e:	dc 01       	movw	r26, r24
    7520:	cb 01       	movw	r24, r22
    7522:	9a a3       	std	Y+34, r25	; 0x22
    7524:	89 a3       	std	Y+33, r24	; 0x21
    7526:	89 a1       	ldd	r24, Y+33	; 0x21
    7528:	9a a1       	ldd	r25, Y+34	; 0x22
    752a:	9e 8f       	std	Y+30, r25	; 0x1e
    752c:	8d 8f       	std	Y+29, r24	; 0x1d
    752e:	8d 8d       	ldd	r24, Y+29	; 0x1d
    7530:	9e 8d       	ldd	r25, Y+30	; 0x1e
    7532:	01 97       	sbiw	r24, 0x01	; 1
    7534:	f1 f7       	brne	.-4      	; 0x7532 <APP_voidMainMenu+0x620>
    7536:	9e 8f       	std	Y+30, r25	; 0x1e
    7538:	8d 8f       	std	Y+29, r24	; 0x1d
				_delay_ms(100 / 2);
				DIO_u8SetPinValue(BUZZER_PORT,  BUZZER_PIN, DIO_u8PIN_LOW);
				_delay_ms(100 / 2);
			}

			for(Local_u8Counter = 0; Local_u8Counter < 25; Local_u8Counter++)
    753a:	80 91 aa 03 	lds	r24, 0x03AA
    753e:	8f 5f       	subi	r24, 0xFF	; 255
    7540:	80 93 aa 03 	sts	0x03AA, r24
    7544:	80 91 aa 03 	lds	r24, 0x03AA
    7548:	89 31       	cpi	r24, 0x19	; 25
    754a:	08 f4       	brcc	.+2      	; 0x754e <APP_voidMainMenu+0x63c>
    754c:	08 cf       	rjmp	.-496    	; 0x735e <APP_voidMainMenu+0x44c>
				_delay_ms(2 * 68);
				DIO_u8SetPinValue(BUZZER_PORT,  BUZZER_PIN, DIO_u8PIN_LOW);
				_delay_ms(2 * 68);
			}

			for(Local_u8Counter = 0; Local_u8Counter < 25; Local_u8Counter++)
    754e:	10 92 aa 03 	sts	0x03AA, r1
    7552:	f3 c0       	rjmp	.+486    	; 0x773a <APP_voidMainMenu+0x828>
			{
				DIO_u8SetPinValue(BUZZER_PORT, BUZZER_PIN, DIO_u8PIN_HIGH);
    7554:	80 e0       	ldi	r24, 0x00	; 0
    7556:	65 e0       	ldi	r22, 0x05	; 5
    7558:	41 e0       	ldi	r20, 0x01	; 1
    755a:	0e 94 b2 13 	call	0x2764	; 0x2764 <DIO_u8SetPinValue>
    755e:	80 e0       	ldi	r24, 0x00	; 0
    7560:	90 e0       	ldi	r25, 0x00	; 0
    7562:	a8 e8       	ldi	r26, 0x88	; 136
    7564:	b2 e4       	ldi	r27, 0x42	; 66
    7566:	89 8f       	std	Y+25, r24	; 0x19
    7568:	9a 8f       	std	Y+26, r25	; 0x1a
    756a:	ab 8f       	std	Y+27, r26	; 0x1b
    756c:	bc 8f       	std	Y+28, r27	; 0x1c
 */
void
_delay_ms(double __ms)
{
	uint16_t __ticks;
	double __tmp = ((F_CPU) / 4e3) * __ms;
    756e:	69 8d       	ldd	r22, Y+25	; 0x19
    7570:	7a 8d       	ldd	r23, Y+26	; 0x1a
    7572:	8b 8d       	ldd	r24, Y+27	; 0x1b
    7574:	9c 8d       	ldd	r25, Y+28	; 0x1c
    7576:	20 e0       	ldi	r18, 0x00	; 0
    7578:	30 e0       	ldi	r19, 0x00	; 0
    757a:	4a ef       	ldi	r20, 0xFA	; 250
    757c:	54 e4       	ldi	r21, 0x44	; 68
    757e:	0e 94 1f 02 	call	0x43e	; 0x43e <__mulsf3>
    7582:	dc 01       	movw	r26, r24
    7584:	cb 01       	movw	r24, r22
    7586:	8d 8b       	std	Y+21, r24	; 0x15
    7588:	9e 8b       	std	Y+22, r25	; 0x16
    758a:	af 8b       	std	Y+23, r26	; 0x17
    758c:	b8 8f       	std	Y+24, r27	; 0x18
	if (__tmp < 1.0)
    758e:	6d 89       	ldd	r22, Y+21	; 0x15
    7590:	7e 89       	ldd	r23, Y+22	; 0x16
    7592:	8f 89       	ldd	r24, Y+23	; 0x17
    7594:	98 8d       	ldd	r25, Y+24	; 0x18
    7596:	20 e0       	ldi	r18, 0x00	; 0
    7598:	30 e0       	ldi	r19, 0x00	; 0
    759a:	40 e8       	ldi	r20, 0x80	; 128
    759c:	5f e3       	ldi	r21, 0x3F	; 63
    759e:	0e 94 25 04 	call	0x84a	; 0x84a <__ltsf2>
    75a2:	88 23       	and	r24, r24
    75a4:	2c f4       	brge	.+10     	; 0x75b0 <APP_voidMainMenu+0x69e>
		__ticks = 1;
    75a6:	81 e0       	ldi	r24, 0x01	; 1
    75a8:	90 e0       	ldi	r25, 0x00	; 0
    75aa:	9c 8b       	std	Y+20, r25	; 0x14
    75ac:	8b 8b       	std	Y+19, r24	; 0x13
    75ae:	3f c0       	rjmp	.+126    	; 0x762e <APP_voidMainMenu+0x71c>
	else if (__tmp > 65535)
    75b0:	6d 89       	ldd	r22, Y+21	; 0x15
    75b2:	7e 89       	ldd	r23, Y+22	; 0x16
    75b4:	8f 89       	ldd	r24, Y+23	; 0x17
    75b6:	98 8d       	ldd	r25, Y+24	; 0x18
    75b8:	20 e0       	ldi	r18, 0x00	; 0
    75ba:	3f ef       	ldi	r19, 0xFF	; 255
    75bc:	4f e7       	ldi	r20, 0x7F	; 127
    75be:	57 e4       	ldi	r21, 0x47	; 71
    75c0:	0e 94 c5 03 	call	0x78a	; 0x78a <__gtsf2>
    75c4:	18 16       	cp	r1, r24
    75c6:	4c f5       	brge	.+82     	; 0x761a <APP_voidMainMenu+0x708>
	{
		//	__ticks = requested delay in 1/10 ms
		__ticks = (uint16_t) (__ms * 10.0);
    75c8:	69 8d       	ldd	r22, Y+25	; 0x19
    75ca:	7a 8d       	ldd	r23, Y+26	; 0x1a
    75cc:	8b 8d       	ldd	r24, Y+27	; 0x1b
    75ce:	9c 8d       	ldd	r25, Y+28	; 0x1c
    75d0:	20 e0       	ldi	r18, 0x00	; 0
    75d2:	30 e0       	ldi	r19, 0x00	; 0
    75d4:	40 e2       	ldi	r20, 0x20	; 32
    75d6:	51 e4       	ldi	r21, 0x41	; 65
    75d8:	0e 94 1f 02 	call	0x43e	; 0x43e <__mulsf3>
    75dc:	dc 01       	movw	r26, r24
    75de:	cb 01       	movw	r24, r22
    75e0:	bc 01       	movw	r22, r24
    75e2:	cd 01       	movw	r24, r26
    75e4:	0e 94 49 00 	call	0x92	; 0x92 <__fixunssfsi>
    75e8:	dc 01       	movw	r26, r24
    75ea:	cb 01       	movw	r24, r22
    75ec:	9c 8b       	std	Y+20, r25	; 0x14
    75ee:	8b 8b       	std	Y+19, r24	; 0x13
    75f0:	0f c0       	rjmp	.+30     	; 0x7610 <APP_voidMainMenu+0x6fe>
    75f2:	88 ec       	ldi	r24, 0xC8	; 200
    75f4:	90 e0       	ldi	r25, 0x00	; 0
    75f6:	9a 8b       	std	Y+18, r25	; 0x12
    75f8:	89 8b       	std	Y+17, r24	; 0x11
    75fa:	89 89       	ldd	r24, Y+17	; 0x11
    75fc:	9a 89       	ldd	r25, Y+18	; 0x12
    75fe:	01 97       	sbiw	r24, 0x01	; 1
    7600:	f1 f7       	brne	.-4      	; 0x75fe <APP_voidMainMenu+0x6ec>
    7602:	9a 8b       	std	Y+18, r25	; 0x12
    7604:	89 8b       	std	Y+17, r24	; 0x11
		while(__ticks)
		{
			// wait 1/10 ms
			_delay_loop_2(((F_CPU) / 4e3) / 10);
			__ticks --;
    7606:	8b 89       	ldd	r24, Y+19	; 0x13
    7608:	9c 89       	ldd	r25, Y+20	; 0x14
    760a:	01 97       	sbiw	r24, 0x01	; 1
    760c:	9c 8b       	std	Y+20, r25	; 0x14
    760e:	8b 8b       	std	Y+19, r24	; 0x13
		__ticks = 1;
	else if (__tmp > 65535)
	{
		//	__ticks = requested delay in 1/10 ms
		__ticks = (uint16_t) (__ms * 10.0);
		while(__ticks)
    7610:	8b 89       	ldd	r24, Y+19	; 0x13
    7612:	9c 89       	ldd	r25, Y+20	; 0x14
    7614:	00 97       	sbiw	r24, 0x00	; 0
    7616:	69 f7       	brne	.-38     	; 0x75f2 <APP_voidMainMenu+0x6e0>
    7618:	14 c0       	rjmp	.+40     	; 0x7642 <APP_voidMainMenu+0x730>
			__ticks --;
		}
		return;
	}
	else
		__ticks = (uint16_t)__tmp;
    761a:	6d 89       	ldd	r22, Y+21	; 0x15
    761c:	7e 89       	ldd	r23, Y+22	; 0x16
    761e:	8f 89       	ldd	r24, Y+23	; 0x17
    7620:	98 8d       	ldd	r25, Y+24	; 0x18
    7622:	0e 94 49 00 	call	0x92	; 0x92 <__fixunssfsi>
    7626:	dc 01       	movw	r26, r24
    7628:	cb 01       	movw	r24, r22
    762a:	9c 8b       	std	Y+20, r25	; 0x14
    762c:	8b 8b       	std	Y+19, r24	; 0x13
    762e:	8b 89       	ldd	r24, Y+19	; 0x13
    7630:	9c 89       	ldd	r25, Y+20	; 0x14
    7632:	98 8b       	std	Y+16, r25	; 0x10
    7634:	8f 87       	std	Y+15, r24	; 0x0f
    7636:	8f 85       	ldd	r24, Y+15	; 0x0f
    7638:	98 89       	ldd	r25, Y+16	; 0x10
    763a:	01 97       	sbiw	r24, 0x01	; 1
    763c:	f1 f7       	brne	.-4      	; 0x763a <APP_voidMainMenu+0x728>
    763e:	98 8b       	std	Y+16, r25	; 0x10
    7640:	8f 87       	std	Y+15, r24	; 0x0f
				_delay_ms(68);
				DIO_u8SetPinValue(BUZZER_PORT,  BUZZER_PIN, DIO_u8PIN_LOW);
    7642:	80 e0       	ldi	r24, 0x00	; 0
    7644:	65 e0       	ldi	r22, 0x05	; 5
    7646:	40 e0       	ldi	r20, 0x00	; 0
    7648:	0e 94 b2 13 	call	0x2764	; 0x2764 <DIO_u8SetPinValue>
    764c:	80 e0       	ldi	r24, 0x00	; 0
    764e:	90 e0       	ldi	r25, 0x00	; 0
    7650:	a8 ec       	ldi	r26, 0xC8	; 200
    7652:	b2 e4       	ldi	r27, 0x42	; 66
    7654:	8b 87       	std	Y+11, r24	; 0x0b
    7656:	9c 87       	std	Y+12, r25	; 0x0c
    7658:	ad 87       	std	Y+13, r26	; 0x0d
    765a:	be 87       	std	Y+14, r27	; 0x0e
 */
void
_delay_ms(double __ms)
{
	uint16_t __ticks;
	double __tmp = ((F_CPU) / 4e3) * __ms;
    765c:	6b 85       	ldd	r22, Y+11	; 0x0b
    765e:	7c 85       	ldd	r23, Y+12	; 0x0c
    7660:	8d 85       	ldd	r24, Y+13	; 0x0d
    7662:	9e 85       	ldd	r25, Y+14	; 0x0e
    7664:	20 e0       	ldi	r18, 0x00	; 0
    7666:	30 e0       	ldi	r19, 0x00	; 0
    7668:	4a ef       	ldi	r20, 0xFA	; 250
    766a:	54 e4       	ldi	r21, 0x44	; 68
    766c:	0e 94 1f 02 	call	0x43e	; 0x43e <__mulsf3>
    7670:	dc 01       	movw	r26, r24
    7672:	cb 01       	movw	r24, r22
    7674:	8f 83       	std	Y+7, r24	; 0x07
    7676:	98 87       	std	Y+8, r25	; 0x08
    7678:	a9 87       	std	Y+9, r26	; 0x09
    767a:	ba 87       	std	Y+10, r27	; 0x0a
	if (__tmp < 1.0)
    767c:	6f 81       	ldd	r22, Y+7	; 0x07
    767e:	78 85       	ldd	r23, Y+8	; 0x08
    7680:	89 85       	ldd	r24, Y+9	; 0x09
    7682:	9a 85       	ldd	r25, Y+10	; 0x0a
    7684:	20 e0       	ldi	r18, 0x00	; 0
    7686:	30 e0       	ldi	r19, 0x00	; 0
    7688:	40 e8       	ldi	r20, 0x80	; 128
    768a:	5f e3       	ldi	r21, 0x3F	; 63
    768c:	0e 94 25 04 	call	0x84a	; 0x84a <__ltsf2>
    7690:	88 23       	and	r24, r24
    7692:	2c f4       	brge	.+10     	; 0x769e <APP_voidMainMenu+0x78c>
		__ticks = 1;
    7694:	81 e0       	ldi	r24, 0x01	; 1
    7696:	90 e0       	ldi	r25, 0x00	; 0
    7698:	9e 83       	std	Y+6, r25	; 0x06
    769a:	8d 83       	std	Y+5, r24	; 0x05
    769c:	3f c0       	rjmp	.+126    	; 0x771c <APP_voidMainMenu+0x80a>
	else if (__tmp > 65535)
    769e:	6f 81       	ldd	r22, Y+7	; 0x07
    76a0:	78 85       	ldd	r23, Y+8	; 0x08
    76a2:	89 85       	ldd	r24, Y+9	; 0x09
    76a4:	9a 85       	ldd	r25, Y+10	; 0x0a
    76a6:	20 e0       	ldi	r18, 0x00	; 0
    76a8:	3f ef       	ldi	r19, 0xFF	; 255
    76aa:	4f e7       	ldi	r20, 0x7F	; 127
    76ac:	57 e4       	ldi	r21, 0x47	; 71
    76ae:	0e 94 c5 03 	call	0x78a	; 0x78a <__gtsf2>
    76b2:	18 16       	cp	r1, r24
    76b4:	4c f5       	brge	.+82     	; 0x7708 <APP_voidMainMenu+0x7f6>
	{
		//	__ticks = requested delay in 1/10 ms
		__ticks = (uint16_t) (__ms * 10.0);
    76b6:	6b 85       	ldd	r22, Y+11	; 0x0b
    76b8:	7c 85       	ldd	r23, Y+12	; 0x0c
    76ba:	8d 85       	ldd	r24, Y+13	; 0x0d
    76bc:	9e 85       	ldd	r25, Y+14	; 0x0e
    76be:	20 e0       	ldi	r18, 0x00	; 0
    76c0:	30 e0       	ldi	r19, 0x00	; 0
    76c2:	40 e2       	ldi	r20, 0x20	; 32
    76c4:	51 e4       	ldi	r21, 0x41	; 65
    76c6:	0e 94 1f 02 	call	0x43e	; 0x43e <__mulsf3>
    76ca:	dc 01       	movw	r26, r24
    76cc:	cb 01       	movw	r24, r22
    76ce:	bc 01       	movw	r22, r24
    76d0:	cd 01       	movw	r24, r26
    76d2:	0e 94 49 00 	call	0x92	; 0x92 <__fixunssfsi>
    76d6:	dc 01       	movw	r26, r24
    76d8:	cb 01       	movw	r24, r22
    76da:	9e 83       	std	Y+6, r25	; 0x06
    76dc:	8d 83       	std	Y+5, r24	; 0x05
    76de:	0f c0       	rjmp	.+30     	; 0x76fe <APP_voidMainMenu+0x7ec>
    76e0:	88 ec       	ldi	r24, 0xC8	; 200
    76e2:	90 e0       	ldi	r25, 0x00	; 0
    76e4:	9c 83       	std	Y+4, r25	; 0x04
    76e6:	8b 83       	std	Y+3, r24	; 0x03
    76e8:	8b 81       	ldd	r24, Y+3	; 0x03
    76ea:	9c 81       	ldd	r25, Y+4	; 0x04
    76ec:	01 97       	sbiw	r24, 0x01	; 1
    76ee:	f1 f7       	brne	.-4      	; 0x76ec <APP_voidMainMenu+0x7da>
    76f0:	9c 83       	std	Y+4, r25	; 0x04
    76f2:	8b 83       	std	Y+3, r24	; 0x03
		while(__ticks)
		{
			// wait 1/10 ms
			_delay_loop_2(((F_CPU) / 4e3) / 10);
			__ticks --;
    76f4:	8d 81       	ldd	r24, Y+5	; 0x05
    76f6:	9e 81       	ldd	r25, Y+6	; 0x06
    76f8:	01 97       	sbiw	r24, 0x01	; 1
    76fa:	9e 83       	std	Y+6, r25	; 0x06
    76fc:	8d 83       	std	Y+5, r24	; 0x05
		__ticks = 1;
	else if (__tmp > 65535)
	{
		//	__ticks = requested delay in 1/10 ms
		__ticks = (uint16_t) (__ms * 10.0);
		while(__ticks)
    76fe:	8d 81       	ldd	r24, Y+5	; 0x05
    7700:	9e 81       	ldd	r25, Y+6	; 0x06
    7702:	00 97       	sbiw	r24, 0x00	; 0
    7704:	69 f7       	brne	.-38     	; 0x76e0 <APP_voidMainMenu+0x7ce>
    7706:	14 c0       	rjmp	.+40     	; 0x7730 <APP_voidMainMenu+0x81e>
			__ticks --;
		}
		return;
	}
	else
		__ticks = (uint16_t)__tmp;
    7708:	6f 81       	ldd	r22, Y+7	; 0x07
    770a:	78 85       	ldd	r23, Y+8	; 0x08
    770c:	89 85       	ldd	r24, Y+9	; 0x09
    770e:	9a 85       	ldd	r25, Y+10	; 0x0a
    7710:	0e 94 49 00 	call	0x92	; 0x92 <__fixunssfsi>
    7714:	dc 01       	movw	r26, r24
    7716:	cb 01       	movw	r24, r22
    7718:	9e 83       	std	Y+6, r25	; 0x06
    771a:	8d 83       	std	Y+5, r24	; 0x05
    771c:	8d 81       	ldd	r24, Y+5	; 0x05
    771e:	9e 81       	ldd	r25, Y+6	; 0x06
    7720:	9a 83       	std	Y+2, r25	; 0x02
    7722:	89 83       	std	Y+1, r24	; 0x01
    7724:	89 81       	ldd	r24, Y+1	; 0x01
    7726:	9a 81       	ldd	r25, Y+2	; 0x02
    7728:	01 97       	sbiw	r24, 0x01	; 1
    772a:	f1 f7       	brne	.-4      	; 0x7728 <APP_voidMainMenu+0x816>
    772c:	9a 83       	std	Y+2, r25	; 0x02
    772e:	89 83       	std	Y+1, r24	; 0x01
				_delay_ms(2 * 68);
				DIO_u8SetPinValue(BUZZER_PORT,  BUZZER_PIN, DIO_u8PIN_LOW);
				_delay_ms(2 * 68);
			}

			for(Local_u8Counter = 0; Local_u8Counter < 25; Local_u8Counter++)
    7730:	80 91 aa 03 	lds	r24, 0x03AA
    7734:	8f 5f       	subi	r24, 0xFF	; 255
    7736:	80 93 aa 03 	sts	0x03AA, r24
    773a:	80 91 aa 03 	lds	r24, 0x03AA
    773e:	89 31       	cpi	r24, 0x19	; 25
    7740:	08 f4       	brcc	.+2      	; 0x7744 <APP_voidMainMenu+0x832>
    7742:	08 cf       	rjmp	.-496    	; 0x7554 <APP_voidMainMenu+0x642>
				_delay_ms(68);
				DIO_u8SetPinValue(BUZZER_PORT,  BUZZER_PIN, DIO_u8PIN_LOW);
				_delay_ms(100);
			}
		}
		Main_u8AlarmFlag=CLOSED;
    7744:	10 92 a3 03 	sts	0x03A3, r1

	default:
		break;
	}

}
    7748:	ca 5a       	subi	r28, 0xAA	; 170
    774a:	df 4f       	sbci	r29, 0xFF	; 255
    774c:	0f b6       	in	r0, 0x3f	; 63
    774e:	f8 94       	cli
    7750:	de bf       	out	0x3e, r29	; 62
    7752:	0f be       	out	0x3f, r0	; 63
    7754:	cd bf       	out	0x3d, r28	; 61
    7756:	cf 91       	pop	r28
    7758:	df 91       	pop	r29
    775a:	1f 91       	pop	r17
    775c:	0f 91       	pop	r16
    775e:	08 95       	ret

00007760 <NotificationTimer0Func>:

/*Fan PWM*/
void NotificationTimer0Func()
{
    7760:	df 93       	push	r29
    7762:	cf 93       	push	r28
    7764:	cd b7       	in	r28, 0x3d	; 61
    7766:	de b7       	in	r29, 0x3e	; 62

	static u8 Local_u8Counter=0;
	Local_u8Counter++;
    7768:	80 91 a6 03 	lds	r24, 0x03A6
    776c:	8f 5f       	subi	r24, 0xFF	; 255
    776e:	80 93 a6 03 	sts	0x03A6, r24

	if(Local_u8Counter==Main_u8MotorSpeed && Main_u8ControlFan==OPENED)
    7772:	90 91 a6 03 	lds	r25, 0x03A6
    7776:	80 91 a9 03 	lds	r24, 0x03A9
    777a:	98 17       	cp	r25, r24
    777c:	51 f4       	brne	.+20     	; 0x7792 <NotificationTimer0Func+0x32>
    777e:	80 91 a2 03 	lds	r24, 0x03A2
    7782:	81 30       	cpi	r24, 0x01	; 1
    7784:	31 f4       	brne	.+12     	; 0x7792 <NotificationTimer0Func+0x32>
	{
		DIO_u8SetPinValue(FAN_PORT,FAN_PIN,DIO_u8PIN_LOW);
    7786:	80 e0       	ldi	r24, 0x00	; 0
    7788:	66 e0       	ldi	r22, 0x06	; 6
    778a:	40 e0       	ldi	r20, 0x00	; 0
    778c:	0e 94 b2 13 	call	0x2764	; 0x2764 <DIO_u8SetPinValue>
    7790:	0f c0       	rjmp	.+30     	; 0x77b0 <NotificationTimer0Func+0x50>

	}
	else if(Local_u8Counter==100 && Main_u8ControlFan==OPENED)
    7792:	80 91 a6 03 	lds	r24, 0x03A6
    7796:	84 36       	cpi	r24, 0x64	; 100
    7798:	59 f4       	brne	.+22     	; 0x77b0 <NotificationTimer0Func+0x50>
    779a:	80 91 a2 03 	lds	r24, 0x03A2
    779e:	81 30       	cpi	r24, 0x01	; 1
    77a0:	39 f4       	brne	.+14     	; 0x77b0 <NotificationTimer0Func+0x50>
	{
		DIO_u8SetPinValue(FAN_PORT,FAN_PIN,DIO_u8PIN_HIGH);
    77a2:	80 e0       	ldi	r24, 0x00	; 0
    77a4:	66 e0       	ldi	r22, 0x06	; 6
    77a6:	41 e0       	ldi	r20, 0x01	; 1
    77a8:	0e 94 b2 13 	call	0x2764	; 0x2764 <DIO_u8SetPinValue>
		Local_u8Counter=0;
    77ac:	10 92 a6 03 	sts	0x03A6, r1

	}


}
    77b0:	cf 91       	pop	r28
    77b2:	df 91       	pop	r29
    77b4:	08 95       	ret

000077b6 <INT0Emergency>:



void INT0Emergency()
{
    77b6:	df 93       	push	r29
    77b8:	cf 93       	push	r28
    77ba:	cd b7       	in	r28, 0x3d	; 61
    77bc:	de b7       	in	r29, 0x3e	; 62
    77be:	6c 97       	sbiw	r28, 0x1c	; 28
    77c0:	0f b6       	in	r0, 0x3f	; 63
    77c2:	f8 94       	cli
    77c4:	de bf       	out	0x3e, r29	; 62
    77c6:	0f be       	out	0x3f, r0	; 63
    77c8:	cd bf       	out	0x3d, r28	; 61
	APP_voidLight_OFF();
    77ca:	0e 94 c7 0f 	call	0x1f8e	; 0x1f8e <APP_voidLight_OFF>
	LCD_voidClearDisplay();
    77ce:	0e 94 72 1c 	call	0x38e4	; 0x38e4 <LCD_voidClearDisplay>
	LCD_voidSendString2("___EMERGENCY___");
    77d2:	84 ec       	ldi	r24, 0xC4	; 196
    77d4:	91 e0       	ldi	r25, 0x01	; 1
    77d6:	0e 94 7c 1c 	call	0x38f8	; 0x38f8 <LCD_voidSendString2>
	GIE_voidDisable();
    77da:	0e 94 58 18 	call	0x30b0	; 0x30b0 <GIE_voidDisable>
	while(1)
	{
		DIO_u8SetPinValue(RED_LIGHT_PORT,RED_LIGHT_PIN,DIO_u8PIN_HIGH);
    77de:	80 e0       	ldi	r24, 0x00	; 0
    77e0:	60 e0       	ldi	r22, 0x00	; 0
    77e2:	41 e0       	ldi	r20, 0x01	; 1
    77e4:	0e 94 b2 13 	call	0x2764	; 0x2764 <DIO_u8SetPinValue>
		DIO_u8SetPinValue(BUZZER_PORT,BUZZER_PIN,DIO_u8PIN_HIGH);
    77e8:	80 e0       	ldi	r24, 0x00	; 0
    77ea:	65 e0       	ldi	r22, 0x05	; 5
    77ec:	41 e0       	ldi	r20, 0x01	; 1
    77ee:	0e 94 b2 13 	call	0x2764	; 0x2764 <DIO_u8SetPinValue>
    77f2:	80 e0       	ldi	r24, 0x00	; 0
    77f4:	90 e0       	ldi	r25, 0x00	; 0
    77f6:	aa e7       	ldi	r26, 0x7A	; 122
    77f8:	b4 e4       	ldi	r27, 0x44	; 68
    77fa:	89 8f       	std	Y+25, r24	; 0x19
    77fc:	9a 8f       	std	Y+26, r25	; 0x1a
    77fe:	ab 8f       	std	Y+27, r26	; 0x1b
    7800:	bc 8f       	std	Y+28, r27	; 0x1c
 */
void
_delay_ms(double __ms)
{
	uint16_t __ticks;
	double __tmp = ((F_CPU) / 4e3) * __ms;
    7802:	69 8d       	ldd	r22, Y+25	; 0x19
    7804:	7a 8d       	ldd	r23, Y+26	; 0x1a
    7806:	8b 8d       	ldd	r24, Y+27	; 0x1b
    7808:	9c 8d       	ldd	r25, Y+28	; 0x1c
    780a:	20 e0       	ldi	r18, 0x00	; 0
    780c:	30 e0       	ldi	r19, 0x00	; 0
    780e:	4a ef       	ldi	r20, 0xFA	; 250
    7810:	54 e4       	ldi	r21, 0x44	; 68
    7812:	0e 94 1f 02 	call	0x43e	; 0x43e <__mulsf3>
    7816:	dc 01       	movw	r26, r24
    7818:	cb 01       	movw	r24, r22
    781a:	8d 8b       	std	Y+21, r24	; 0x15
    781c:	9e 8b       	std	Y+22, r25	; 0x16
    781e:	af 8b       	std	Y+23, r26	; 0x17
    7820:	b8 8f       	std	Y+24, r27	; 0x18
	if (__tmp < 1.0)
    7822:	6d 89       	ldd	r22, Y+21	; 0x15
    7824:	7e 89       	ldd	r23, Y+22	; 0x16
    7826:	8f 89       	ldd	r24, Y+23	; 0x17
    7828:	98 8d       	ldd	r25, Y+24	; 0x18
    782a:	20 e0       	ldi	r18, 0x00	; 0
    782c:	30 e0       	ldi	r19, 0x00	; 0
    782e:	40 e8       	ldi	r20, 0x80	; 128
    7830:	5f e3       	ldi	r21, 0x3F	; 63
    7832:	0e 94 25 04 	call	0x84a	; 0x84a <__ltsf2>
    7836:	88 23       	and	r24, r24
    7838:	2c f4       	brge	.+10     	; 0x7844 <INT0Emergency+0x8e>
		__ticks = 1;
    783a:	81 e0       	ldi	r24, 0x01	; 1
    783c:	90 e0       	ldi	r25, 0x00	; 0
    783e:	9c 8b       	std	Y+20, r25	; 0x14
    7840:	8b 8b       	std	Y+19, r24	; 0x13
    7842:	3f c0       	rjmp	.+126    	; 0x78c2 <INT0Emergency+0x10c>
	else if (__tmp > 65535)
    7844:	6d 89       	ldd	r22, Y+21	; 0x15
    7846:	7e 89       	ldd	r23, Y+22	; 0x16
    7848:	8f 89       	ldd	r24, Y+23	; 0x17
    784a:	98 8d       	ldd	r25, Y+24	; 0x18
    784c:	20 e0       	ldi	r18, 0x00	; 0
    784e:	3f ef       	ldi	r19, 0xFF	; 255
    7850:	4f e7       	ldi	r20, 0x7F	; 127
    7852:	57 e4       	ldi	r21, 0x47	; 71
    7854:	0e 94 c5 03 	call	0x78a	; 0x78a <__gtsf2>
    7858:	18 16       	cp	r1, r24
    785a:	4c f5       	brge	.+82     	; 0x78ae <INT0Emergency+0xf8>
	{
		//	__ticks = requested delay in 1/10 ms
		__ticks = (uint16_t) (__ms * 10.0);
    785c:	69 8d       	ldd	r22, Y+25	; 0x19
    785e:	7a 8d       	ldd	r23, Y+26	; 0x1a
    7860:	8b 8d       	ldd	r24, Y+27	; 0x1b
    7862:	9c 8d       	ldd	r25, Y+28	; 0x1c
    7864:	20 e0       	ldi	r18, 0x00	; 0
    7866:	30 e0       	ldi	r19, 0x00	; 0
    7868:	40 e2       	ldi	r20, 0x20	; 32
    786a:	51 e4       	ldi	r21, 0x41	; 65
    786c:	0e 94 1f 02 	call	0x43e	; 0x43e <__mulsf3>
    7870:	dc 01       	movw	r26, r24
    7872:	cb 01       	movw	r24, r22
    7874:	bc 01       	movw	r22, r24
    7876:	cd 01       	movw	r24, r26
    7878:	0e 94 49 00 	call	0x92	; 0x92 <__fixunssfsi>
    787c:	dc 01       	movw	r26, r24
    787e:	cb 01       	movw	r24, r22
    7880:	9c 8b       	std	Y+20, r25	; 0x14
    7882:	8b 8b       	std	Y+19, r24	; 0x13
    7884:	0f c0       	rjmp	.+30     	; 0x78a4 <INT0Emergency+0xee>
    7886:	88 ec       	ldi	r24, 0xC8	; 200
    7888:	90 e0       	ldi	r25, 0x00	; 0
    788a:	9a 8b       	std	Y+18, r25	; 0x12
    788c:	89 8b       	std	Y+17, r24	; 0x11
    788e:	89 89       	ldd	r24, Y+17	; 0x11
    7890:	9a 89       	ldd	r25, Y+18	; 0x12
    7892:	01 97       	sbiw	r24, 0x01	; 1
    7894:	f1 f7       	brne	.-4      	; 0x7892 <INT0Emergency+0xdc>
    7896:	9a 8b       	std	Y+18, r25	; 0x12
    7898:	89 8b       	std	Y+17, r24	; 0x11
		while(__ticks)
		{
			// wait 1/10 ms
			_delay_loop_2(((F_CPU) / 4e3) / 10);
			__ticks --;
    789a:	8b 89       	ldd	r24, Y+19	; 0x13
    789c:	9c 89       	ldd	r25, Y+20	; 0x14
    789e:	01 97       	sbiw	r24, 0x01	; 1
    78a0:	9c 8b       	std	Y+20, r25	; 0x14
    78a2:	8b 8b       	std	Y+19, r24	; 0x13
		__ticks = 1;
	else if (__tmp > 65535)
	{
		//	__ticks = requested delay in 1/10 ms
		__ticks = (uint16_t) (__ms * 10.0);
		while(__ticks)
    78a4:	8b 89       	ldd	r24, Y+19	; 0x13
    78a6:	9c 89       	ldd	r25, Y+20	; 0x14
    78a8:	00 97       	sbiw	r24, 0x00	; 0
    78aa:	69 f7       	brne	.-38     	; 0x7886 <INT0Emergency+0xd0>
    78ac:	14 c0       	rjmp	.+40     	; 0x78d6 <INT0Emergency+0x120>
			__ticks --;
		}
		return;
	}
	else
		__ticks = (uint16_t)__tmp;
    78ae:	6d 89       	ldd	r22, Y+21	; 0x15
    78b0:	7e 89       	ldd	r23, Y+22	; 0x16
    78b2:	8f 89       	ldd	r24, Y+23	; 0x17
    78b4:	98 8d       	ldd	r25, Y+24	; 0x18
    78b6:	0e 94 49 00 	call	0x92	; 0x92 <__fixunssfsi>
    78ba:	dc 01       	movw	r26, r24
    78bc:	cb 01       	movw	r24, r22
    78be:	9c 8b       	std	Y+20, r25	; 0x14
    78c0:	8b 8b       	std	Y+19, r24	; 0x13
    78c2:	8b 89       	ldd	r24, Y+19	; 0x13
    78c4:	9c 89       	ldd	r25, Y+20	; 0x14
    78c6:	98 8b       	std	Y+16, r25	; 0x10
    78c8:	8f 87       	std	Y+15, r24	; 0x0f
    78ca:	8f 85       	ldd	r24, Y+15	; 0x0f
    78cc:	98 89       	ldd	r25, Y+16	; 0x10
    78ce:	01 97       	sbiw	r24, 0x01	; 1
    78d0:	f1 f7       	brne	.-4      	; 0x78ce <INT0Emergency+0x118>
    78d2:	98 8b       	std	Y+16, r25	; 0x10
    78d4:	8f 87       	std	Y+15, r24	; 0x0f
		_delay_ms(1000);
		DIO_u8SetPinValue(RED_LIGHT_PORT,RED_LIGHT_PIN,DIO_u8PIN_LOW);
    78d6:	80 e0       	ldi	r24, 0x00	; 0
    78d8:	60 e0       	ldi	r22, 0x00	; 0
    78da:	40 e0       	ldi	r20, 0x00	; 0
    78dc:	0e 94 b2 13 	call	0x2764	; 0x2764 <DIO_u8SetPinValue>
		DIO_u8SetPinValue(BUZZER_PORT,BUZZER_PIN,DIO_u8PIN_LOW);
    78e0:	80 e0       	ldi	r24, 0x00	; 0
    78e2:	65 e0       	ldi	r22, 0x05	; 5
    78e4:	40 e0       	ldi	r20, 0x00	; 0
    78e6:	0e 94 b2 13 	call	0x2764	; 0x2764 <DIO_u8SetPinValue>
    78ea:	80 e0       	ldi	r24, 0x00	; 0
    78ec:	90 e0       	ldi	r25, 0x00	; 0
    78ee:	aa e7       	ldi	r26, 0x7A	; 122
    78f0:	b4 e4       	ldi	r27, 0x44	; 68
    78f2:	8b 87       	std	Y+11, r24	; 0x0b
    78f4:	9c 87       	std	Y+12, r25	; 0x0c
    78f6:	ad 87       	std	Y+13, r26	; 0x0d
    78f8:	be 87       	std	Y+14, r27	; 0x0e
 */
void
_delay_ms(double __ms)
{
	uint16_t __ticks;
	double __tmp = ((F_CPU) / 4e3) * __ms;
    78fa:	6b 85       	ldd	r22, Y+11	; 0x0b
    78fc:	7c 85       	ldd	r23, Y+12	; 0x0c
    78fe:	8d 85       	ldd	r24, Y+13	; 0x0d
    7900:	9e 85       	ldd	r25, Y+14	; 0x0e
    7902:	20 e0       	ldi	r18, 0x00	; 0
    7904:	30 e0       	ldi	r19, 0x00	; 0
    7906:	4a ef       	ldi	r20, 0xFA	; 250
    7908:	54 e4       	ldi	r21, 0x44	; 68
    790a:	0e 94 1f 02 	call	0x43e	; 0x43e <__mulsf3>
    790e:	dc 01       	movw	r26, r24
    7910:	cb 01       	movw	r24, r22
    7912:	8f 83       	std	Y+7, r24	; 0x07
    7914:	98 87       	std	Y+8, r25	; 0x08
    7916:	a9 87       	std	Y+9, r26	; 0x09
    7918:	ba 87       	std	Y+10, r27	; 0x0a
	if (__tmp < 1.0)
    791a:	6f 81       	ldd	r22, Y+7	; 0x07
    791c:	78 85       	ldd	r23, Y+8	; 0x08
    791e:	89 85       	ldd	r24, Y+9	; 0x09
    7920:	9a 85       	ldd	r25, Y+10	; 0x0a
    7922:	20 e0       	ldi	r18, 0x00	; 0
    7924:	30 e0       	ldi	r19, 0x00	; 0
    7926:	40 e8       	ldi	r20, 0x80	; 128
    7928:	5f e3       	ldi	r21, 0x3F	; 63
    792a:	0e 94 25 04 	call	0x84a	; 0x84a <__ltsf2>
    792e:	88 23       	and	r24, r24
    7930:	2c f4       	brge	.+10     	; 0x793c <INT0Emergency+0x186>
		__ticks = 1;
    7932:	81 e0       	ldi	r24, 0x01	; 1
    7934:	90 e0       	ldi	r25, 0x00	; 0
    7936:	9e 83       	std	Y+6, r25	; 0x06
    7938:	8d 83       	std	Y+5, r24	; 0x05
    793a:	3f c0       	rjmp	.+126    	; 0x79ba <INT0Emergency+0x204>
	else if (__tmp > 65535)
    793c:	6f 81       	ldd	r22, Y+7	; 0x07
    793e:	78 85       	ldd	r23, Y+8	; 0x08
    7940:	89 85       	ldd	r24, Y+9	; 0x09
    7942:	9a 85       	ldd	r25, Y+10	; 0x0a
    7944:	20 e0       	ldi	r18, 0x00	; 0
    7946:	3f ef       	ldi	r19, 0xFF	; 255
    7948:	4f e7       	ldi	r20, 0x7F	; 127
    794a:	57 e4       	ldi	r21, 0x47	; 71
    794c:	0e 94 c5 03 	call	0x78a	; 0x78a <__gtsf2>
    7950:	18 16       	cp	r1, r24
    7952:	4c f5       	brge	.+82     	; 0x79a6 <INT0Emergency+0x1f0>
	{
		//	__ticks = requested delay in 1/10 ms
		__ticks = (uint16_t) (__ms * 10.0);
    7954:	6b 85       	ldd	r22, Y+11	; 0x0b
    7956:	7c 85       	ldd	r23, Y+12	; 0x0c
    7958:	8d 85       	ldd	r24, Y+13	; 0x0d
    795a:	9e 85       	ldd	r25, Y+14	; 0x0e
    795c:	20 e0       	ldi	r18, 0x00	; 0
    795e:	30 e0       	ldi	r19, 0x00	; 0
    7960:	40 e2       	ldi	r20, 0x20	; 32
    7962:	51 e4       	ldi	r21, 0x41	; 65
    7964:	0e 94 1f 02 	call	0x43e	; 0x43e <__mulsf3>
    7968:	dc 01       	movw	r26, r24
    796a:	cb 01       	movw	r24, r22
    796c:	bc 01       	movw	r22, r24
    796e:	cd 01       	movw	r24, r26
    7970:	0e 94 49 00 	call	0x92	; 0x92 <__fixunssfsi>
    7974:	dc 01       	movw	r26, r24
    7976:	cb 01       	movw	r24, r22
    7978:	9e 83       	std	Y+6, r25	; 0x06
    797a:	8d 83       	std	Y+5, r24	; 0x05
    797c:	0f c0       	rjmp	.+30     	; 0x799c <INT0Emergency+0x1e6>
    797e:	88 ec       	ldi	r24, 0xC8	; 200
    7980:	90 e0       	ldi	r25, 0x00	; 0
    7982:	9c 83       	std	Y+4, r25	; 0x04
    7984:	8b 83       	std	Y+3, r24	; 0x03
    7986:	8b 81       	ldd	r24, Y+3	; 0x03
    7988:	9c 81       	ldd	r25, Y+4	; 0x04
    798a:	01 97       	sbiw	r24, 0x01	; 1
    798c:	f1 f7       	brne	.-4      	; 0x798a <INT0Emergency+0x1d4>
    798e:	9c 83       	std	Y+4, r25	; 0x04
    7990:	8b 83       	std	Y+3, r24	; 0x03
		while(__ticks)
		{
			// wait 1/10 ms
			_delay_loop_2(((F_CPU) / 4e3) / 10);
			__ticks --;
    7992:	8d 81       	ldd	r24, Y+5	; 0x05
    7994:	9e 81       	ldd	r25, Y+6	; 0x06
    7996:	01 97       	sbiw	r24, 0x01	; 1
    7998:	9e 83       	std	Y+6, r25	; 0x06
    799a:	8d 83       	std	Y+5, r24	; 0x05
		__ticks = 1;
	else if (__tmp > 65535)
	{
		//	__ticks = requested delay in 1/10 ms
		__ticks = (uint16_t) (__ms * 10.0);
		while(__ticks)
    799c:	8d 81       	ldd	r24, Y+5	; 0x05
    799e:	9e 81       	ldd	r25, Y+6	; 0x06
    79a0:	00 97       	sbiw	r24, 0x00	; 0
    79a2:	69 f7       	brne	.-38     	; 0x797e <INT0Emergency+0x1c8>
    79a4:	1c cf       	rjmp	.-456    	; 0x77de <INT0Emergency+0x28>
			__ticks --;
		}
		return;
	}
	else
		__ticks = (uint16_t)__tmp;
    79a6:	6f 81       	ldd	r22, Y+7	; 0x07
    79a8:	78 85       	ldd	r23, Y+8	; 0x08
    79aa:	89 85       	ldd	r24, Y+9	; 0x09
    79ac:	9a 85       	ldd	r25, Y+10	; 0x0a
    79ae:	0e 94 49 00 	call	0x92	; 0x92 <__fixunssfsi>
    79b2:	dc 01       	movw	r26, r24
    79b4:	cb 01       	movw	r24, r22
    79b6:	9e 83       	std	Y+6, r25	; 0x06
    79b8:	8d 83       	std	Y+5, r24	; 0x05
    79ba:	8d 81       	ldd	r24, Y+5	; 0x05
    79bc:	9e 81       	ldd	r25, Y+6	; 0x06
    79be:	9a 83       	std	Y+2, r25	; 0x02
    79c0:	89 83       	std	Y+1, r24	; 0x01
    79c2:	89 81       	ldd	r24, Y+1	; 0x01
    79c4:	9a 81       	ldd	r25, Y+2	; 0x02
    79c6:	01 97       	sbiw	r24, 0x01	; 1
    79c8:	f1 f7       	brne	.-4      	; 0x79c6 <INT0Emergency+0x210>
    79ca:	9a 83       	std	Y+2, r25	; 0x02
    79cc:	89 83       	std	Y+1, r24	; 0x01
    79ce:	07 cf       	rjmp	.-498    	; 0x77de <INT0Emergency+0x28>

000079d0 <__mulsi3>:
    79d0:	62 9f       	mul	r22, r18
    79d2:	d0 01       	movw	r26, r0
    79d4:	73 9f       	mul	r23, r19
    79d6:	f0 01       	movw	r30, r0
    79d8:	82 9f       	mul	r24, r18
    79da:	e0 0d       	add	r30, r0
    79dc:	f1 1d       	adc	r31, r1
    79de:	64 9f       	mul	r22, r20
    79e0:	e0 0d       	add	r30, r0
    79e2:	f1 1d       	adc	r31, r1
    79e4:	92 9f       	mul	r25, r18
    79e6:	f0 0d       	add	r31, r0
    79e8:	83 9f       	mul	r24, r19
    79ea:	f0 0d       	add	r31, r0
    79ec:	74 9f       	mul	r23, r20
    79ee:	f0 0d       	add	r31, r0
    79f0:	65 9f       	mul	r22, r21
    79f2:	f0 0d       	add	r31, r0
    79f4:	99 27       	eor	r25, r25
    79f6:	72 9f       	mul	r23, r18
    79f8:	b0 0d       	add	r27, r0
    79fa:	e1 1d       	adc	r30, r1
    79fc:	f9 1f       	adc	r31, r25
    79fe:	63 9f       	mul	r22, r19
    7a00:	b0 0d       	add	r27, r0
    7a02:	e1 1d       	adc	r30, r1
    7a04:	f9 1f       	adc	r31, r25
    7a06:	bd 01       	movw	r22, r26
    7a08:	cf 01       	movw	r24, r30
    7a0a:	11 24       	eor	r1, r1
    7a0c:	08 95       	ret

00007a0e <__udivmodhi4>:
    7a0e:	aa 1b       	sub	r26, r26
    7a10:	bb 1b       	sub	r27, r27
    7a12:	51 e1       	ldi	r21, 0x11	; 17
    7a14:	07 c0       	rjmp	.+14     	; 0x7a24 <__udivmodhi4_ep>

00007a16 <__udivmodhi4_loop>:
    7a16:	aa 1f       	adc	r26, r26
    7a18:	bb 1f       	adc	r27, r27
    7a1a:	a6 17       	cp	r26, r22
    7a1c:	b7 07       	cpc	r27, r23
    7a1e:	10 f0       	brcs	.+4      	; 0x7a24 <__udivmodhi4_ep>
    7a20:	a6 1b       	sub	r26, r22
    7a22:	b7 0b       	sbc	r27, r23

00007a24 <__udivmodhi4_ep>:
    7a24:	88 1f       	adc	r24, r24
    7a26:	99 1f       	adc	r25, r25
    7a28:	5a 95       	dec	r21
    7a2a:	a9 f7       	brne	.-22     	; 0x7a16 <__udivmodhi4_loop>
    7a2c:	80 95       	com	r24
    7a2e:	90 95       	com	r25
    7a30:	bc 01       	movw	r22, r24
    7a32:	cd 01       	movw	r24, r26
    7a34:	08 95       	ret

00007a36 <__udivmodsi4>:
    7a36:	a1 e2       	ldi	r26, 0x21	; 33
    7a38:	1a 2e       	mov	r1, r26
    7a3a:	aa 1b       	sub	r26, r26
    7a3c:	bb 1b       	sub	r27, r27
    7a3e:	fd 01       	movw	r30, r26
    7a40:	0d c0       	rjmp	.+26     	; 0x7a5c <__udivmodsi4_ep>

00007a42 <__udivmodsi4_loop>:
    7a42:	aa 1f       	adc	r26, r26
    7a44:	bb 1f       	adc	r27, r27
    7a46:	ee 1f       	adc	r30, r30
    7a48:	ff 1f       	adc	r31, r31
    7a4a:	a2 17       	cp	r26, r18
    7a4c:	b3 07       	cpc	r27, r19
    7a4e:	e4 07       	cpc	r30, r20
    7a50:	f5 07       	cpc	r31, r21
    7a52:	20 f0       	brcs	.+8      	; 0x7a5c <__udivmodsi4_ep>
    7a54:	a2 1b       	sub	r26, r18
    7a56:	b3 0b       	sbc	r27, r19
    7a58:	e4 0b       	sbc	r30, r20
    7a5a:	f5 0b       	sbc	r31, r21

00007a5c <__udivmodsi4_ep>:
    7a5c:	66 1f       	adc	r22, r22
    7a5e:	77 1f       	adc	r23, r23
    7a60:	88 1f       	adc	r24, r24
    7a62:	99 1f       	adc	r25, r25
    7a64:	1a 94       	dec	r1
    7a66:	69 f7       	brne	.-38     	; 0x7a42 <__udivmodsi4_loop>
    7a68:	60 95       	com	r22
    7a6a:	70 95       	com	r23
    7a6c:	80 95       	com	r24
    7a6e:	90 95       	com	r25
    7a70:	9b 01       	movw	r18, r22
    7a72:	ac 01       	movw	r20, r24
    7a74:	bd 01       	movw	r22, r26
    7a76:	cf 01       	movw	r24, r30
    7a78:	08 95       	ret

00007a7a <__divmodsi4>:
    7a7a:	97 fb       	bst	r25, 7
    7a7c:	09 2e       	mov	r0, r25
    7a7e:	05 26       	eor	r0, r21
    7a80:	0e d0       	rcall	.+28     	; 0x7a9e <__divmodsi4_neg1>
    7a82:	57 fd       	sbrc	r21, 7
    7a84:	04 d0       	rcall	.+8      	; 0x7a8e <__divmodsi4_neg2>
    7a86:	d7 df       	rcall	.-82     	; 0x7a36 <__udivmodsi4>
    7a88:	0a d0       	rcall	.+20     	; 0x7a9e <__divmodsi4_neg1>
    7a8a:	00 1c       	adc	r0, r0
    7a8c:	38 f4       	brcc	.+14     	; 0x7a9c <__divmodsi4_exit>

00007a8e <__divmodsi4_neg2>:
    7a8e:	50 95       	com	r21
    7a90:	40 95       	com	r20
    7a92:	30 95       	com	r19
    7a94:	21 95       	neg	r18
    7a96:	3f 4f       	sbci	r19, 0xFF	; 255
    7a98:	4f 4f       	sbci	r20, 0xFF	; 255
    7a9a:	5f 4f       	sbci	r21, 0xFF	; 255

00007a9c <__divmodsi4_exit>:
    7a9c:	08 95       	ret

00007a9e <__divmodsi4_neg1>:
    7a9e:	f6 f7       	brtc	.-4      	; 0x7a9c <__divmodsi4_exit>
    7aa0:	90 95       	com	r25
    7aa2:	80 95       	com	r24
    7aa4:	70 95       	com	r23
    7aa6:	61 95       	neg	r22
    7aa8:	7f 4f       	sbci	r23, 0xFF	; 255
    7aaa:	8f 4f       	sbci	r24, 0xFF	; 255
    7aac:	9f 4f       	sbci	r25, 0xFF	; 255
    7aae:	08 95       	ret

00007ab0 <__prologue_saves__>:
    7ab0:	2f 92       	push	r2
    7ab2:	3f 92       	push	r3
    7ab4:	4f 92       	push	r4
    7ab6:	5f 92       	push	r5
    7ab8:	6f 92       	push	r6
    7aba:	7f 92       	push	r7
    7abc:	8f 92       	push	r8
    7abe:	9f 92       	push	r9
    7ac0:	af 92       	push	r10
    7ac2:	bf 92       	push	r11
    7ac4:	cf 92       	push	r12
    7ac6:	df 92       	push	r13
    7ac8:	ef 92       	push	r14
    7aca:	ff 92       	push	r15
    7acc:	0f 93       	push	r16
    7ace:	1f 93       	push	r17
    7ad0:	cf 93       	push	r28
    7ad2:	df 93       	push	r29
    7ad4:	cd b7       	in	r28, 0x3d	; 61
    7ad6:	de b7       	in	r29, 0x3e	; 62
    7ad8:	ca 1b       	sub	r28, r26
    7ada:	db 0b       	sbc	r29, r27
    7adc:	0f b6       	in	r0, 0x3f	; 63
    7ade:	f8 94       	cli
    7ae0:	de bf       	out	0x3e, r29	; 62
    7ae2:	0f be       	out	0x3f, r0	; 63
    7ae4:	cd bf       	out	0x3d, r28	; 61
    7ae6:	09 94       	ijmp

00007ae8 <__epilogue_restores__>:
    7ae8:	2a 88       	ldd	r2, Y+18	; 0x12
    7aea:	39 88       	ldd	r3, Y+17	; 0x11
    7aec:	48 88       	ldd	r4, Y+16	; 0x10
    7aee:	5f 84       	ldd	r5, Y+15	; 0x0f
    7af0:	6e 84       	ldd	r6, Y+14	; 0x0e
    7af2:	7d 84       	ldd	r7, Y+13	; 0x0d
    7af4:	8c 84       	ldd	r8, Y+12	; 0x0c
    7af6:	9b 84       	ldd	r9, Y+11	; 0x0b
    7af8:	aa 84       	ldd	r10, Y+10	; 0x0a
    7afa:	b9 84       	ldd	r11, Y+9	; 0x09
    7afc:	c8 84       	ldd	r12, Y+8	; 0x08
    7afe:	df 80       	ldd	r13, Y+7	; 0x07
    7b00:	ee 80       	ldd	r14, Y+6	; 0x06
    7b02:	fd 80       	ldd	r15, Y+5	; 0x05
    7b04:	0c 81       	ldd	r16, Y+4	; 0x04
    7b06:	1b 81       	ldd	r17, Y+3	; 0x03
    7b08:	aa 81       	ldd	r26, Y+2	; 0x02
    7b0a:	b9 81       	ldd	r27, Y+1	; 0x01
    7b0c:	ce 0f       	add	r28, r30
    7b0e:	d1 1d       	adc	r29, r1
    7b10:	0f b6       	in	r0, 0x3f	; 63
    7b12:	f8 94       	cli
    7b14:	de bf       	out	0x3e, r29	; 62
    7b16:	0f be       	out	0x3f, r0	; 63
    7b18:	cd bf       	out	0x3d, r28	; 61
    7b1a:	ed 01       	movw	r28, r26
    7b1c:	08 95       	ret

00007b1e <strtok>:
    7b1e:	42 e5       	ldi	r20, 0x52	; 82
    7b20:	53 e0       	ldi	r21, 0x03	; 3
    7b22:	0e 94 9d 3d 	call	0x7b3a	; 0x7b3a <strtok_r>
    7b26:	08 95       	ret

00007b28 <strlen>:
    7b28:	fc 01       	movw	r30, r24
    7b2a:	01 90       	ld	r0, Z+
    7b2c:	00 20       	and	r0, r0
    7b2e:	e9 f7       	brne	.-6      	; 0x7b2a <strlen+0x2>
    7b30:	80 95       	com	r24
    7b32:	90 95       	com	r25
    7b34:	8e 0f       	add	r24, r30
    7b36:	9f 1f       	adc	r25, r31
    7b38:	08 95       	ret

00007b3a <strtok_r>:
    7b3a:	fa 01       	movw	r30, r20
    7b3c:	a1 91       	ld	r26, Z+
    7b3e:	b0 81       	ld	r27, Z
    7b40:	00 97       	sbiw	r24, 0x00	; 0
    7b42:	19 f4       	brne	.+6      	; 0x7b4a <strtok_r+0x10>
    7b44:	10 97       	sbiw	r26, 0x00	; 0
    7b46:	e1 f0       	breq	.+56     	; 0x7b80 <strtok_r+0x46>
    7b48:	cd 01       	movw	r24, r26
    7b4a:	dc 01       	movw	r26, r24
    7b4c:	cd 01       	movw	r24, r26
    7b4e:	0d 90       	ld	r0, X+
    7b50:	00 20       	and	r0, r0
    7b52:	11 f4       	brne	.+4      	; 0x7b58 <strtok_r+0x1e>
    7b54:	c0 01       	movw	r24, r0
    7b56:	13 c0       	rjmp	.+38     	; 0x7b7e <strtok_r+0x44>
    7b58:	fb 01       	movw	r30, r22
    7b5a:	21 91       	ld	r18, Z+
    7b5c:	22 23       	and	r18, r18
    7b5e:	19 f0       	breq	.+6      	; 0x7b66 <strtok_r+0x2c>
    7b60:	20 15       	cp	r18, r0
    7b62:	d9 f7       	brne	.-10     	; 0x7b5a <strtok_r+0x20>
    7b64:	f3 cf       	rjmp	.-26     	; 0x7b4c <strtok_r+0x12>
    7b66:	fb 01       	movw	r30, r22
    7b68:	21 91       	ld	r18, Z+
    7b6a:	20 15       	cp	r18, r0
    7b6c:	19 f4       	brne	.+6      	; 0x7b74 <strtok_r+0x3a>
    7b6e:	1e 92       	st	-X, r1
    7b70:	11 96       	adiw	r26, 0x01	; 1
    7b72:	06 c0       	rjmp	.+12     	; 0x7b80 <strtok_r+0x46>
    7b74:	22 23       	and	r18, r18
    7b76:	c1 f7       	brne	.-16     	; 0x7b68 <strtok_r+0x2e>
    7b78:	0d 90       	ld	r0, X+
    7b7a:	00 20       	and	r0, r0
    7b7c:	a1 f7       	brne	.-24     	; 0x7b66 <strtok_r+0x2c>
    7b7e:	d0 01       	movw	r26, r0
    7b80:	fa 01       	movw	r30, r20
    7b82:	a1 93       	st	Z+, r26
    7b84:	b0 83       	st	Z, r27
    7b86:	08 95       	ret

00007b88 <_exit>:
    7b88:	f8 94       	cli

00007b8a <__stop_program>:
    7b8a:	ff cf       	rjmp	.-2      	; 0x7b8a <__stop_program>
